
time:     file format elf64-littleriscv


Disassembly of section .text:

0000000000010000 <_ftext>:
   10000:	0000c197          	auipc	gp,0xc
   10004:	b1018193          	addi	gp,gp,-1264 # 1bb10 <_gp>
   10008:	0000b297          	auipc	t0,0xb
   1000c:	3a028293          	addi	t0,t0,928 # 1b3a8 <_PathLocale>
   10010:	0000b317          	auipc	t1,0xb
   10014:	43830313          	addi	t1,t1,1080 # 1b448 <_end>
   10018:	0002b023          	sd	zero,0(t0)
   1001c:	00828293          	addi	t0,t0,8
   10020:	fe62ece3          	bltu	t0,t1,10018 <_ftext+0x18>
   10024:	00000517          	auipc	a0,0x0
   10028:	1d450513          	addi	a0,a0,468 # 101f8 <__libc_fini_array>
   1002c:	188000ef          	jal	101b4 <atexit>
   10030:	224000ef          	jal	10254 <__libc_init_array>
   10034:	00012503          	lw	a0,0(sp)
   10038:	00810593          	addi	a1,sp,8
   1003c:	00000613          	li	a2,0
   10040:	124000ef          	jal	10164 <main>
   10044:	1840006f          	j	101c8 <exit>

0000000000010048 <_fini>:
   10048:	00008067          	ret

000000000001004c <deregister_tm_clones>:
   1004c:	0001b537          	lui	a0,0x1b
   10050:	0001b7b7          	lui	a5,0x1b
   10054:	30850713          	addi	a4,a0,776 # 1b308 <__TMC_END__>
   10058:	30f78793          	addi	a5,a5,783 # 1b30f <__TMC_END__+0x7>
   1005c:	40e787b3          	sub	a5,a5,a4
   10060:	00e00713          	li	a4,14
   10064:	00f77c63          	bleu	a5,a4,1007c <deregister_tm_clones+0x30>
   10068:	00000337          	lui	t1,0x0
   1006c:	00030313          	mv	t1,t1
   10070:	00030663          	beqz	t1,1007c <deregister_tm_clones+0x30>
   10074:	30850513          	addi	a0,a0,776
   10078:	00030067          	jr	t1
   1007c:	00008067          	ret

0000000000010080 <register_tm_clones>:
   10080:	0001b537          	lui	a0,0x1b
   10084:	0001b7b7          	lui	a5,0x1b
   10088:	30850593          	addi	a1,a0,776 # 1b308 <__TMC_END__>
   1008c:	30878793          	addi	a5,a5,776 # 1b308 <__TMC_END__>
   10090:	40b787b3          	sub	a5,a5,a1
   10094:	4037d793          	srai	a5,a5,0x3
   10098:	03f7d593          	srli	a1,a5,0x3f
   1009c:	00f585b3          	add	a1,a1,a5
   100a0:	4015d593          	srai	a1,a1,0x1
   100a4:	00058c63          	beqz	a1,100bc <register_tm_clones+0x3c>
   100a8:	00000337          	lui	t1,0x0
   100ac:	00030313          	mv	t1,t1
   100b0:	00030663          	beqz	t1,100bc <register_tm_clones+0x3c>
   100b4:	30850513          	addi	a0,a0,776
   100b8:	00030067          	jr	t1
   100bc:	00008067          	ret

00000000000100c0 <__do_global_dtors_aux>:
   100c0:	ff010113          	addi	sp,sp,-16
   100c4:	00813023          	sd	s0,0(sp)
   100c8:	8c81c783          	lbu	a5,-1848(gp) # 1b3d8 <_bss_start>
   100cc:	00113423          	sd	ra,8(sp)
   100d0:	02079663          	bnez	a5,100fc <__do_global_dtors_aux+0x3c>
   100d4:	f79ff0ef          	jal	1004c <deregister_tm_clones>
   100d8:	000007b7          	lui	a5,0x0
   100dc:	00078793          	mv	a5,a5
   100e0:	00078a63          	beqz	a5,100f4 <__do_global_dtors_aux+0x34>
   100e4:	00019537          	lui	a0,0x19
   100e8:	2c050513          	addi	a0,a0,704 # 192c0 <__fini_array_end>
   100ec:	ffff0317          	auipc	t1,0xffff0
   100f0:	f14300e7          	jalr	t1,-236 # 0 <_ftext-0x10000>
   100f4:	00100793          	li	a5,1
   100f8:	8cf18423          	sb	a5,-1848(gp) # 1b3d8 <_bss_start>
   100fc:	00813083          	ld	ra,8(sp)
   10100:	00013403          	ld	s0,0(sp)
   10104:	01010113          	addi	sp,sp,16
   10108:	00008067          	ret

000000000001010c <frame_dummy>:
   1010c:	ff010113          	addi	sp,sp,-16
   10110:	000007b7          	lui	a5,0x0
   10114:	00113423          	sd	ra,8(sp)
   10118:	00078793          	mv	a5,a5
   1011c:	00078c63          	beqz	a5,10134 <frame_dummy+0x28>
   10120:	00019537          	lui	a0,0x19
   10124:	8d018593          	addi	a1,gp,-1840 # 1b3e0 <object.3092>
   10128:	2c050513          	addi	a0,a0,704 # 192c0 <__fini_array_end>
   1012c:	ffff0317          	auipc	t1,0xffff0
   10130:	ed4300e7          	jalr	t1,-300 # 0 <_ftext-0x10000>
   10134:	0001a7b7          	lui	a5,0x1a
   10138:	30878513          	addi	a0,a5,776 # 1a308 <__JCR_END__>
   1013c:	00053783          	ld	a5,0(a0)
   10140:	00079863          	bnez	a5,10150 <frame_dummy+0x44>
   10144:	00813083          	ld	ra,8(sp)
   10148:	01010113          	addi	sp,sp,16
   1014c:	f35ff06f          	j	10080 <register_tm_clones>
   10150:	000007b7          	lui	a5,0x0
   10154:	00078793          	mv	a5,a5
   10158:	fe0786e3          	beqz	a5,10144 <frame_dummy+0x38>
   1015c:	000780e7          	jalr	a5
   10160:	fe5ff06f          	j	10144 <frame_dummy+0x38>

0000000000010164 <main>:
   10164:	fc010113          	addi	sp,sp,-64
   10168:	02113c23          	sd	ra,56(sp)
   1016c:	02813823          	sd	s0,48(sp)
   10170:	04010413          	addi	s0,sp,64
   10174:	fc840793          	addi	a5,s0,-56
   10178:	00078513          	mv	a0,a5
   1017c:	2d1080ef          	jal	18c4c <times>
   10180:	fc843783          	ld	a5,-56(s0)
   10184:	fef43423          	sd	a5,-24(s0)
   10188:	fe843603          	ld	a2,-24(s0)
   1018c:	fe843583          	ld	a1,-24(s0)
   10190:	000197b7          	lui	a5,0x19
   10194:	dc878513          	addi	a0,a5,-568 # 18dc8 <__errno+0xc>
   10198:	1a0000ef          	jal	10338 <printf>
   1019c:	00000793          	li	a5,0
   101a0:	00078513          	mv	a0,a5
   101a4:	03813083          	ld	ra,56(sp)
   101a8:	03013403          	ld	s0,48(sp)
   101ac:	04010113          	addi	sp,sp,64
   101b0:	00008067          	ret

00000000000101b4 <atexit>:
   101b4:	00050593          	mv	a1,a0
   101b8:	00000693          	li	a3,0
   101bc:	00000613          	li	a2,0
   101c0:	00000513          	li	a0,0
   101c4:	0840206f          	j	12248 <__register_exitproc>

00000000000101c8 <exit>:
   101c8:	ff010113          	addi	sp,sp,-16
   101cc:	00000593          	li	a1,0
   101d0:	00813023          	sd	s0,0(sp)
   101d4:	00113423          	sd	ra,8(sp)
   101d8:	00050413          	mv	s0,a0
   101dc:	180020ef          	jal	1235c <__call_exitprocs>
   101e0:	8081b503          	ld	a0,-2040(gp) # 1b318 <_global_impure_ptr>
   101e4:	05853783          	ld	a5,88(a0)
   101e8:	00078463          	beqz	a5,101f0 <exit+0x28>
   101ec:	000780e7          	jalr	a5
   101f0:	00040513          	mv	a0,s0
   101f4:	3ad080ef          	jal	18da0 <_exit>

00000000000101f8 <__libc_fini_array>:
   101f8:	fe010113          	addi	sp,sp,-32
   101fc:	00813823          	sd	s0,16(sp)
   10200:	00913423          	sd	s1,8(sp)
   10204:	00019437          	lui	s0,0x19
   10208:	000194b7          	lui	s1,0x19
   1020c:	2b848493          	addi	s1,s1,696 # 192b8 <__init_array_end>
   10210:	2c040413          	addi	s0,s0,704 # 192c0 <__fini_array_end>
   10214:	40940433          	sub	s0,s0,s1
   10218:	ff840793          	addi	a5,s0,-8
   1021c:	00113c23          	sd	ra,24(sp)
   10220:	40345413          	srai	s0,s0,0x3
   10224:	009784b3          	add	s1,a5,s1
   10228:	00040c63          	beqz	s0,10240 <__libc_fini_array+0x48>
   1022c:	0004b783          	ld	a5,0(s1)
   10230:	fff40413          	addi	s0,s0,-1
   10234:	ff848493          	addi	s1,s1,-8
   10238:	000780e7          	jalr	a5
   1023c:	fe0418e3          	bnez	s0,1022c <__libc_fini_array+0x34>
   10240:	01813083          	ld	ra,24(sp)
   10244:	01013403          	ld	s0,16(sp)
   10248:	00813483          	ld	s1,8(sp)
   1024c:	02010113          	addi	sp,sp,32
   10250:	df9ff06f          	j	10048 <_fini>

0000000000010254 <__libc_init_array>:
   10254:	fe010113          	addi	sp,sp,-32
   10258:	00813823          	sd	s0,16(sp)
   1025c:	000197b7          	lui	a5,0x19
   10260:	00019437          	lui	s0,0x19
   10264:	01213023          	sd	s2,0(sp)
   10268:	2b078793          	addi	a5,a5,688 # 192b0 <_etext>
   1026c:	2b040913          	addi	s2,s0,688 # 192b0 <_etext>
   10270:	41278933          	sub	s2,a5,s2
   10274:	00913423          	sd	s1,8(sp)
   10278:	00113c23          	sd	ra,24(sp)
   1027c:	40395913          	srai	s2,s2,0x3
   10280:	2b040413          	addi	s0,s0,688
   10284:	00000493          	li	s1,0
   10288:	00090c63          	beqz	s2,102a0 <__libc_init_array+0x4c>
   1028c:	00043783          	ld	a5,0(s0)
   10290:	00148493          	addi	s1,s1,1
   10294:	00840413          	addi	s0,s0,8
   10298:	000780e7          	jalr	a5
   1029c:	fe9918e3          	bne	s2,s1,1028c <__libc_init_array+0x38>
   102a0:	da9ff0ef          	jal	10048 <_fini>
   102a4:	00019437          	lui	s0,0x19
   102a8:	000197b7          	lui	a5,0x19
   102ac:	2b040913          	addi	s2,s0,688 # 192b0 <_etext>
   102b0:	2b878793          	addi	a5,a5,696 # 192b8 <__init_array_end>
   102b4:	41278933          	sub	s2,a5,s2
   102b8:	40395913          	srai	s2,s2,0x3
   102bc:	2b040413          	addi	s0,s0,688
   102c0:	00000493          	li	s1,0
   102c4:	00090c63          	beqz	s2,102dc <__libc_init_array+0x88>
   102c8:	00043783          	ld	a5,0(s0)
   102cc:	00148493          	addi	s1,s1,1
   102d0:	00840413          	addi	s0,s0,8
   102d4:	000780e7          	jalr	a5
   102d8:	fe9918e3          	bne	s2,s1,102c8 <__libc_init_array+0x74>
   102dc:	01813083          	ld	ra,24(sp)
   102e0:	01013403          	ld	s0,16(sp)
   102e4:	00813483          	ld	s1,8(sp)
   102e8:	00013903          	ld	s2,0(sp)
   102ec:	02010113          	addi	sp,sp,32
   102f0:	00008067          	ret

00000000000102f4 <_printf_r>:
   102f4:	fb010113          	addi	sp,sp,-80
   102f8:	02c13023          	sd	a2,32(sp)
   102fc:	02d13423          	sd	a3,40(sp)
   10300:	02f13c23          	sd	a5,56(sp)
   10304:	02e13823          	sd	a4,48(sp)
   10308:	05013023          	sd	a6,64(sp)
   1030c:	05113423          	sd	a7,72(sp)
   10310:	00058613          	mv	a2,a1
   10314:	01053583          	ld	a1,16(a0)
   10318:	02010793          	addi	a5,sp,32
   1031c:	00078693          	mv	a3,a5
   10320:	00113c23          	sd	ra,24(sp)
   10324:	00f13423          	sd	a5,8(sp)
   10328:	060000ef          	jal	10388 <_vfprintf_r>
   1032c:	01813083          	ld	ra,24(sp)
   10330:	05010113          	addi	sp,sp,80
   10334:	00008067          	ret

0000000000010338 <printf>:
   10338:	8101b303          	ld	t1,-2032(gp) # 1b320 <_impure_ptr>
   1033c:	fa010113          	addi	sp,sp,-96
   10340:	02c13823          	sd	a2,48(sp)
   10344:	02d13c23          	sd	a3,56(sp)
   10348:	04f13423          	sd	a5,72(sp)
   1034c:	02b13423          	sd	a1,40(sp)
   10350:	04e13023          	sd	a4,64(sp)
   10354:	05013823          	sd	a6,80(sp)
   10358:	05113c23          	sd	a7,88(sp)
   1035c:	01033583          	ld	a1,16(t1)
   10360:	02810793          	addi	a5,sp,40
   10364:	00050613          	mv	a2,a0
   10368:	00078693          	mv	a3,a5
   1036c:	00030513          	mv	a0,t1
   10370:	00113c23          	sd	ra,24(sp)
   10374:	00f13423          	sd	a5,8(sp)
   10378:	010000ef          	jal	10388 <_vfprintf_r>
   1037c:	01813083          	ld	ra,24(sp)
   10380:	06010113          	addi	sp,sp,96
   10384:	00008067          	ret

0000000000010388 <_vfprintf_r>:
   10388:	e1010113          	addi	sp,sp,-496
   1038c:	1e113423          	sd	ra,488(sp)
   10390:	1d313423          	sd	s3,456(sp)
   10394:	1d413023          	sd	s4,448(sp)
   10398:	1b713423          	sd	s7,424(sp)
   1039c:	00058a13          	mv	s4,a1
   103a0:	00060993          	mv	s3,a2
   103a4:	02d13423          	sd	a3,40(sp)
   103a8:	1e813023          	sd	s0,480(sp)
   103ac:	1c913c23          	sd	s1,472(sp)
   103b0:	1d213823          	sd	s2,464(sp)
   103b4:	1b513c23          	sd	s5,440(sp)
   103b8:	1b613823          	sd	s6,432(sp)
   103bc:	1b813023          	sd	s8,416(sp)
   103c0:	19913c23          	sd	s9,408(sp)
   103c4:	19a13823          	sd	s10,400(sp)
   103c8:	19b13423          	sd	s11,392(sp)
   103cc:	16813c27          	fsd	fs0,376(sp)
   103d0:	00050b93          	mv	s7,a0
   103d4:	094040ef          	jal	14468 <_localeconv_r>
   103d8:	00053783          	ld	a5,0(a0)
   103dc:	00078513          	mv	a0,a5
   103e0:	06f13023          	sd	a5,96(sp)
   103e4:	00c060ef          	jal	163f0 <strlen>
   103e8:	06a13423          	sd	a0,104(sp)
   103ec:	000b8663          	beqz	s7,103f8 <_vfprintf_r+0x70>
   103f0:	050ba783          	lw	a5,80(s7)
   103f4:	2e078c63          	beqz	a5,106ec <_vfprintf_r+0x364>
   103f8:	010a1683          	lh	a3,16(s4)
   103fc:	03069793          	slli	a5,a3,0x30
   10400:	0307d793          	srli	a5,a5,0x30
   10404:	03279713          	slli	a4,a5,0x32
   10408:	02074a63          	bltz	a4,1043c <_vfprintf_r+0xb4>
   1040c:	000027b7          	lui	a5,0x2
   10410:	0aca2603          	lw	a2,172(s4)
   10414:	00f6e7b3          	or	a5,a3,a5
   10418:	0107979b          	slliw	a5,a5,0x10
   1041c:	ffffe737          	lui	a4,0xffffe
   10420:	4107d79b          	sraiw	a5,a5,0x10
   10424:	fff7071b          	addiw	a4,a4,-1
   10428:	00e67733          	and	a4,a2,a4
   1042c:	00fa1823          	sh	a5,16(s4)
   10430:	03079793          	slli	a5,a5,0x30
   10434:	0aea2623          	sw	a4,172(s4)
   10438:	0307d793          	srli	a5,a5,0x30
   1043c:	0087f713          	andi	a4,a5,8
   10440:	1e070063          	beqz	a4,10620 <_vfprintf_r+0x298>
   10444:	018a3703          	ld	a4,24(s4)
   10448:	1c070c63          	beqz	a4,10620 <_vfprintf_r+0x298>
   1044c:	01a7f793          	andi	a5,a5,26
   10450:	00a00713          	li	a4,10
   10454:	1ee78863          	beq	a5,a4,10644 <_vfprintf_r+0x2bc>
   10458:	000197b7          	lui	a5,0x19
   1045c:	de878793          	addi	a5,a5,-536 # 18de8 <__errno+0x2c>
   10460:	0f010b13          	addi	s6,sp,240
   10464:	02f13823          	sd	a5,48(sp)
   10468:	0ef10793          	addi	a5,sp,239
   1046c:	00019ab7          	lui	s5,0x19
   10470:	000194b7          	lui	s1,0x19
   10474:	40fb07b3          	sub	a5,s6,a5
   10478:	04013c23          	sd	zero,88(sp)
   1047c:	0b613823          	sd	s6,176(sp)
   10480:	0c013023          	sd	zero,192(sp)
   10484:	0a012c23          	sw	zero,184(sp)
   10488:	06012823          	sw	zero,112(sp)
   1048c:	000b0893          	mv	a7,s6
   10490:	02013c23          	sd	zero,56(sp)
   10494:	06012a23          	sw	zero,116(sp)
   10498:	00012e23          	sw	zero,28(sp)
   1049c:	f50a8a93          	addi	s5,s5,-176 # 18f50 <blanks.4193>
   104a0:	f6048493          	addi	s1,s1,-160 # 18f60 <zeroes.4194>
   104a4:	06f13c23          	sd	a5,120(sp)
   104a8:	0009c783          	lbu	a5,0(s3)
   104ac:	0e0782e3          	beqz	a5,10d90 <_vfprintf_r+0xa08>
   104b0:	02500713          	li	a4,37
   104b4:	00098413          	mv	s0,s3
   104b8:	00e79663          	bne	a5,a4,104c4 <_vfprintf_r+0x13c>
   104bc:	0580006f          	j	10514 <_vfprintf_r+0x18c>
   104c0:	00e78863          	beq	a5,a4,104d0 <_vfprintf_r+0x148>
   104c4:	00140413          	addi	s0,s0,1
   104c8:	00044783          	lbu	a5,0(s0)
   104cc:	fe079ae3          	bnez	a5,104c0 <_vfprintf_r+0x138>
   104d0:	4134093b          	subw	s2,s0,s3
   104d4:	04090063          	beqz	s2,10514 <_vfprintf_r+0x18c>
   104d8:	0c013703          	ld	a4,192(sp)
   104dc:	0b812783          	lw	a5,184(sp)
   104e0:	00090693          	mv	a3,s2
   104e4:	00d70733          	add	a4,a4,a3
   104e8:	0017879b          	addiw	a5,a5,1
   104ec:	0138b023          	sd	s3,0(a7)
   104f0:	00d8b423          	sd	a3,8(a7)
   104f4:	0ce13023          	sd	a4,192(sp)
   104f8:	0af12c23          	sw	a5,184(sp)
   104fc:	00700713          	li	a4,7
   10500:	01088893          	addi	a7,a7,16
   10504:	16f74063          	blt	a4,a5,10664 <_vfprintf_r+0x2dc>
   10508:	01c12783          	lw	a5,28(sp)
   1050c:	012787bb          	addw	a5,a5,s2
   10510:	00f12e23          	sw	a5,28(sp)
   10514:	00044783          	lbu	a5,0(s0)
   10518:	16078463          	beqz	a5,10680 <_vfprintf_r+0x2f8>
   1051c:	00140993          	addi	s3,s0,1
   10520:	080107a3          	sb	zero,143(sp)
   10524:	00000613          	li	a2,0
   10528:	00000593          	li	a1,0
   1052c:	fff00413          	li	s0,-1
   10530:	00012c23          	sw	zero,24(sp)
   10534:	00000c13          	li	s8,0
   10538:	05800713          	li	a4,88
   1053c:	00900693          	li	a3,9
   10540:	02a00513          	li	a0,42
   10544:	0009cd03          	lbu	s10,0(s3)
   10548:	00198993          	addi	s3,s3,1
   1054c:	fe0d079b          	addiw	a5,s10,-32
   10550:	1cf762e3          	bltu	a4,a5,10f14 <_vfprintf_r+0xb8c>
   10554:	03013803          	ld	a6,48(sp)
   10558:	02079793          	slli	a5,a5,0x20
   1055c:	01e7d793          	srli	a5,a5,0x1e
   10560:	010787b3          	add	a5,a5,a6
   10564:	0007a783          	lw	a5,0(a5)
   10568:	00078067          	jr	a5
   1056c:	010c6c13          	ori	s8,s8,16
   10570:	fd5ff06f          	j	10544 <_vfprintf_r+0x1bc>
   10574:	02813783          	ld	a5,40(sp)
   10578:	0007a803          	lw	a6,0(a5)
   1057c:	00878793          	addi	a5,a5,8
   10580:	02f13423          	sd	a5,40(sp)
   10584:	01012c23          	sw	a6,24(sp)
   10588:	fa085ee3          	bgez	a6,10544 <_vfprintf_r+0x1bc>
   1058c:	410007bb          	negw	a5,a6
   10590:	00f12c23          	sw	a5,24(sp)
   10594:	004c6c13          	ori	s8,s8,4
   10598:	fadff06f          	j	10544 <_vfprintf_r+0x1bc>
   1059c:	03000793          	li	a5,48
   105a0:	08f10823          	sb	a5,144(sp)
   105a4:	07800793          	li	a5,120
   105a8:	08f108a3          	sb	a5,145(sp)
   105ac:	02813783          	ld	a5,40(sp)
   105b0:	080107a3          	sb	zero,143(sp)
   105b4:	002c6693          	ori	a3,s8,2
   105b8:	00878713          	addi	a4,a5,8
   105bc:	0007b783          	ld	a5,0(a5)
   105c0:	180444e3          	bltz	s0,10f48 <_vfprintf_r+0xbc0>
   105c4:	f7fc7c13          	andi	s8,s8,-129
   105c8:	02e13423          	sd	a4,40(sp)
   105cc:	002c6c13          	ori	s8,s8,2
   105d0:	120796e3          	bnez	a5,10efc <_vfprintf_r+0xb74>
   105d4:	000197b7          	lui	a5,0x19
   105d8:	26078793          	addi	a5,a5,608 # 19260 <zeroes.4137+0x50>
   105dc:	02f13c23          	sd	a5,56(sp)
   105e0:	07800d13          	li	s10,120
   105e4:	00000613          	li	a2,0
   105e8:	7e040463          	beqz	s0,10dd0 <_vfprintf_r+0xa48>
   105ec:	00000793          	li	a5,0
   105f0:	000b0913          	mv	s2,s6
   105f4:	03813683          	ld	a3,56(sp)
   105f8:	00f7f713          	andi	a4,a5,15
   105fc:	fff90913          	addi	s2,s2,-1
   10600:	00e68733          	add	a4,a3,a4
   10604:	00074703          	lbu	a4,0(a4) # ffffffffffffe000 <_gp+0xfffffffffffe24f0>
   10608:	0047d793          	srli	a5,a5,0x4
   1060c:	00e90023          	sb	a4,0(s2)
   10610:	fe0792e3          	bnez	a5,105f4 <_vfprintf_r+0x26c>
   10614:	412b07b3          	sub	a5,s6,s2
   10618:	02f12023          	sw	a5,32(sp)
   1061c:	1680006f          	j	10784 <_vfprintf_r+0x3fc>
   10620:	000a0593          	mv	a1,s4
   10624:	000b8513          	mv	a0,s7
   10628:	2bd010ef          	jal	120e4 <__swsetup_r>
   1062c:	00050463          	beqz	a0,10634 <_vfprintf_r+0x2ac>
   10630:	3940106f          	j	119c4 <_vfprintf_r+0x163c>
   10634:	010a5783          	lhu	a5,16(s4)
   10638:	00a00713          	li	a4,10
   1063c:	01a7f793          	andi	a5,a5,26
   10640:	e0e79ce3          	bne	a5,a4,10458 <_vfprintf_r+0xd0>
   10644:	012a1783          	lh	a5,18(s4)
   10648:	e007c8e3          	bltz	a5,10458 <_vfprintf_r+0xd0>
   1064c:	02813683          	ld	a3,40(sp)
   10650:	00098613          	mv	a2,s3
   10654:	000a0593          	mv	a1,s4
   10658:	000b8513          	mv	a0,s7
   1065c:	1c9010ef          	jal	12024 <__sbprintf>
   10660:	04c0006f          	j	106ac <_vfprintf_r+0x324>
   10664:	0b010613          	addi	a2,sp,176
   10668:	000a0593          	mv	a1,s4
   1066c:	000b8513          	mv	a0,s7
   10670:	73d050ef          	jal	165ac <__sprint_r>
   10674:	02051263          	bnez	a0,10698 <_vfprintf_r+0x310>
   10678:	000b0893          	mv	a7,s6
   1067c:	e8dff06f          	j	10508 <_vfprintf_r+0x180>
   10680:	0c013783          	ld	a5,192(sp)
   10684:	00078a63          	beqz	a5,10698 <_vfprintf_r+0x310>
   10688:	0b010613          	addi	a2,sp,176
   1068c:	000a0593          	mv	a1,s4
   10690:	000b8513          	mv	a0,s7
   10694:	719050ef          	jal	165ac <__sprint_r>
   10698:	010a5783          	lhu	a5,16(s4)
   1069c:	0407f793          	andi	a5,a5,64
   106a0:	00078463          	beqz	a5,106a8 <_vfprintf_r+0x320>
   106a4:	3200106f          	j	119c4 <_vfprintf_r+0x163c>
   106a8:	01c12503          	lw	a0,28(sp)
   106ac:	1e813083          	ld	ra,488(sp)
   106b0:	1e013403          	ld	s0,480(sp)
   106b4:	1d813483          	ld	s1,472(sp)
   106b8:	1d013903          	ld	s2,464(sp)
   106bc:	1c813983          	ld	s3,456(sp)
   106c0:	1c013a03          	ld	s4,448(sp)
   106c4:	1b813a83          	ld	s5,440(sp)
   106c8:	1b013b03          	ld	s6,432(sp)
   106cc:	1a813b83          	ld	s7,424(sp)
   106d0:	1a013c03          	ld	s8,416(sp)
   106d4:	19813c83          	ld	s9,408(sp)
   106d8:	19013d03          	ld	s10,400(sp)
   106dc:	18813d83          	ld	s11,392(sp)
   106e0:	17813407          	fld	fs0,376(sp)
   106e4:	1f010113          	addi	sp,sp,496
   106e8:	00008067          	ret
   106ec:	000b8513          	mv	a0,s7
   106f0:	700030ef          	jal	13df0 <__sinit>
   106f4:	d05ff06f          	j	103f8 <_vfprintf_r+0x70>
   106f8:	00100613          	li	a2,1
   106fc:	02b00593          	li	a1,43
   10700:	e45ff06f          	j	10544 <_vfprintf_r+0x1bc>
   10704:	00060463          	beqz	a2,1070c <_vfprintf_r+0x384>
   10708:	0d90106f          	j	11fe0 <_vfprintf_r+0x1c58>
   1070c:	010c7793          	andi	a5,s8,16
   10710:	22078263          	beqz	a5,10934 <_vfprintf_r+0x5ac>
   10714:	02813783          	ld	a5,40(sp)
   10718:	080107a3          	sb	zero,143(sp)
   1071c:	00878713          	addi	a4,a5,8
   10720:	0007b783          	ld	a5,0(a5)
   10724:	22044663          	bltz	s0,10950 <_vfprintf_r+0x5c8>
   10728:	02e13423          	sd	a4,40(sp)
   1072c:	f7fc7c13          	andi	s8,s8,-129
   10730:	22079663          	bnez	a5,1095c <_vfprintf_r+0x5d4>
   10734:	00000613          	li	a2,0
   10738:	00000793          	li	a5,0
   1073c:	00041463          	bnez	s0,10744 <_vfprintf_r+0x3bc>
   10740:	3680106f          	j	11aa8 <_vfprintf_r+0x1720>
   10744:	000b0913          	mv	s2,s6
   10748:	0077f713          	andi	a4,a5,7
   1074c:	fff90913          	addi	s2,s2,-1
   10750:	0307071b          	addiw	a4,a4,48
   10754:	00e90023          	sb	a4,0(s2)
   10758:	0037d793          	srli	a5,a5,0x3
   1075c:	fe0796e3          	bnez	a5,10748 <_vfprintf_r+0x3c0>
   10760:	001c7793          	andi	a5,s8,1
   10764:	ea0788e3          	beqz	a5,10614 <_vfprintf_r+0x28c>
   10768:	03000793          	li	a5,48
   1076c:	eaf704e3          	beq	a4,a5,10614 <_vfprintf_r+0x28c>
   10770:	fff90713          	addi	a4,s2,-1
   10774:	40eb06b3          	sub	a3,s6,a4
   10778:	fef90fa3          	sb	a5,-1(s2)
   1077c:	02d12023          	sw	a3,32(sp)
   10780:	00070913          	mv	s2,a4
   10784:	02012783          	lw	a5,32(sp)
   10788:	00078d93          	mv	s11,a5
   1078c:	0087d463          	ble	s0,a5,10794 <_vfprintf_r+0x40c>
   10790:	00040d93          	mv	s11,s0
   10794:	01b12423          	sw	s11,8(sp)
   10798:	04012623          	sw	zero,76(sp)
   1079c:	2a060263          	beqz	a2,10a40 <_vfprintf_r+0x6b8>
   107a0:	00812783          	lw	a5,8(sp)
   107a4:	0017879b          	addiw	a5,a5,1
   107a8:	00f12423          	sw	a5,8(sp)
   107ac:	2940006f          	j	10a40 <_vfprintf_r+0x6b8>
   107b0:	0009cd03          	lbu	s10,0(s3)
   107b4:	00198993          	addi	s3,s3,1
   107b8:	00ad1463          	bne	s10,a0,107c0 <_vfprintf_r+0x438>
   107bc:	75c0106f          	j	11f18 <_vfprintf_r+0x1b90>
   107c0:	fd0d079b          	addiw	a5,s10,-48
   107c4:	00000413          	li	s0,0
   107c8:	d8f6e2e3          	bltu	a3,a5,1054c <_vfprintf_r+0x1c4>
   107cc:	00198993          	addi	s3,s3,1
   107d0:	fff9cd03          	lbu	s10,-1(s3)
   107d4:	0014181b          	slliw	a6,s0,0x1
   107d8:	0034141b          	slliw	s0,s0,0x3
   107dc:	0088043b          	addw	s0,a6,s0
   107e0:	00f4043b          	addw	s0,s0,a5
   107e4:	fd0d079b          	addiw	a5,s10,-48
   107e8:	fef6f2e3          	bleu	a5,a3,107cc <_vfprintf_r+0x444>
   107ec:	d60450e3          	bgez	s0,1054c <_vfprintf_r+0x1c4>
   107f0:	fff00413          	li	s0,-1
   107f4:	d59ff06f          	j	1054c <_vfprintf_r+0x1c4>
   107f8:	080c6c13          	ori	s8,s8,128
   107fc:	d49ff06f          	j	10544 <_vfprintf_r+0x1bc>
   10800:	d40592e3          	bnez	a1,10544 <_vfprintf_r+0x1bc>
   10804:	00100613          	li	a2,1
   10808:	02000593          	li	a1,32
   1080c:	d39ff06f          	j	10544 <_vfprintf_r+0x1bc>
   10810:	001c6c13          	ori	s8,s8,1
   10814:	d31ff06f          	j	10544 <_vfprintf_r+0x1bc>
   10818:	02813783          	ld	a5,40(sp)
   1081c:	080107a3          	sb	zero,143(sp)
   10820:	0007b903          	ld	s2,0(a5)
   10824:	00878c93          	addi	s9,a5,8
   10828:	00091463          	bnez	s2,10830 <_vfprintf_r+0x4a8>
   1082c:	39c0106f          	j	11bc8 <_vfprintf_r+0x1840>
   10830:	01113023          	sd	a7,0(sp)
   10834:	00045463          	bgez	s0,1083c <_vfprintf_r+0x4b4>
   10838:	3240106f          	j	11b5c <_vfprintf_r+0x17d4>
   1083c:	00040613          	mv	a2,s0
   10840:	00000593          	li	a1,0
   10844:	00090513          	mv	a0,s2
   10848:	564040ef          	jal	14dac <memchr>
   1084c:	00013883          	ld	a7,0(sp)
   10850:	00051463          	bnez	a0,10858 <_vfprintf_r+0x4d0>
   10854:	4c00106f          	j	11d14 <_vfprintf_r+0x198c>
   10858:	412507bb          	subw	a5,a0,s2
   1085c:	02f12023          	sw	a5,32(sp)
   10860:	00078d93          	mv	s11,a5
   10864:	0007d463          	bgez	a5,1086c <_vfprintf_r+0x4e4>
   10868:	3140106f          	j	11b7c <_vfprintf_r+0x17f4>
   1086c:	08f14603          	lbu	a2,143(sp)
   10870:	01b12423          	sw	s11,8(sp)
   10874:	03913423          	sd	s9,40(sp)
   10878:	00000413          	li	s0,0
   1087c:	04012623          	sw	zero,76(sp)
   10880:	f1dff06f          	j	1079c <_vfprintf_r+0x414>
   10884:	00060463          	beqz	a2,1088c <_vfprintf_r+0x504>
   10888:	7800106f          	j	12008 <_vfprintf_r+0x1c80>
   1088c:	010c7793          	andi	a5,s8,16
   10890:	0e078463          	beqz	a5,10978 <_vfprintf_r+0x5f0>
   10894:	02813783          	ld	a5,40(sp)
   10898:	080107a3          	sb	zero,143(sp)
   1089c:	00878713          	addi	a4,a5,8
   108a0:	0007b783          	ld	a5,0(a5)
   108a4:	0e044863          	bltz	s0,10994 <_vfprintf_r+0x60c>
   108a8:	02e13423          	sd	a4,40(sp)
   108ac:	f7fc7c13          	andi	s8,s8,-129
   108b0:	00000613          	li	a2,0
   108b4:	50078c63          	beqz	a5,10dcc <_vfprintf_r+0xa44>
   108b8:	00900713          	li	a4,9
   108bc:	000b0913          	mv	s2,s6
   108c0:	00a00693          	li	a3,10
   108c4:	40f770e3          	bleu	a5,a4,114c4 <_vfprintf_r+0x113c>
   108c8:	02d7f733          	remu	a4,a5,a3
   108cc:	fff90913          	addi	s2,s2,-1
   108d0:	02d7d7b3          	divu	a5,a5,a3
   108d4:	0307071b          	addiw	a4,a4,48
   108d8:	00e90023          	sb	a4,0(s2)
   108dc:	fe0796e3          	bnez	a5,108c8 <_vfprintf_r+0x540>
   108e0:	412b07b3          	sub	a5,s6,s2
   108e4:	02f12023          	sw	a5,32(sp)
   108e8:	e9dff06f          	j	10784 <_vfprintf_r+0x3fc>
   108ec:	00012c23          	sw	zero,24(sp)
   108f0:	fd0d079b          	addiw	a5,s10,-48
   108f4:	01812303          	lw	t1,24(sp)
   108f8:	00198993          	addi	s3,s3,1
   108fc:	fff9cd03          	lbu	s10,-1(s3)
   10900:	0013181b          	slliw	a6,t1,0x1
   10904:	00331c9b          	slliw	s9,t1,0x3
   10908:	01980cbb          	addw	s9,a6,s9
   1090c:	019787bb          	addw	a5,a5,s9
   10910:	00f12c23          	sw	a5,24(sp)
   10914:	fd0d079b          	addiw	a5,s10,-48
   10918:	fcf6fee3          	bleu	a5,a3,108f4 <_vfprintf_r+0x56c>
   1091c:	c31ff06f          	j	1054c <_vfprintf_r+0x1c4>
   10920:	00060463          	beqz	a2,10928 <_vfprintf_r+0x5a0>
   10924:	6d80106f          	j	11ffc <_vfprintf_r+0x1c74>
   10928:	010c6c13          	ori	s8,s8,16
   1092c:	010c7793          	andi	a5,s8,16
   10930:	de0792e3          	bnez	a5,10714 <_vfprintf_r+0x38c>
   10934:	040c7793          	andi	a5,s8,64
   10938:	080107a3          	sb	zero,143(sp)
   1093c:	580780e3          	beqz	a5,116bc <_vfprintf_r+0x1334>
   10940:	02813783          	ld	a5,40(sp)
   10944:	00878713          	addi	a4,a5,8
   10948:	0007d783          	lhu	a5,0(a5)
   1094c:	dc045ee3          	bgez	s0,10728 <_vfprintf_r+0x3a0>
   10950:	02e13423          	sd	a4,40(sp)
   10954:	00000613          	li	a2,0
   10958:	60078a63          	beqz	a5,10f6c <_vfprintf_r+0xbe4>
   1095c:	00000613          	li	a2,0
   10960:	de5ff06f          	j	10744 <_vfprintf_r+0x3bc>
   10964:	00060463          	beqz	a2,1096c <_vfprintf_r+0x5e4>
   10968:	6880106f          	j	11ff0 <_vfprintf_r+0x1c68>
   1096c:	010c6c13          	ori	s8,s8,16
   10970:	010c7793          	andi	a5,s8,16
   10974:	f20790e3          	bnez	a5,10894 <_vfprintf_r+0x50c>
   10978:	040c7793          	andi	a5,s8,64
   1097c:	080107a3          	sb	zero,143(sp)
   10980:	500780e3          	beqz	a5,11680 <_vfprintf_r+0x12f8>
   10984:	02813783          	ld	a5,40(sp)
   10988:	00878713          	addi	a4,a5,8
   1098c:	0007d783          	lhu	a5,0(a5)
   10990:	f0045ce3          	bgez	s0,108a8 <_vfprintf_r+0x520>
   10994:	02e13423          	sd	a4,40(sp)
   10998:	00000613          	li	a2,0
   1099c:	f0079ee3          	bnez	a5,108b8 <_vfprintf_r+0x530>
   109a0:	00100793          	li	a5,1
   109a4:	5c80006f          	j	10f6c <_vfprintf_r+0xbe4>
   109a8:	00060463          	beqz	a2,109b0 <_vfprintf_r+0x628>
   109ac:	63c0106f          	j	11fe8 <_vfprintf_r+0x1c60>
   109b0:	000197b7          	lui	a5,0x19
   109b4:	24878793          	addi	a5,a5,584 # 19248 <zeroes.4137+0x38>
   109b8:	02f13c23          	sd	a5,56(sp)
   109bc:	010c7793          	andi	a5,s8,16
   109c0:	4c078263          	beqz	a5,10e84 <_vfprintf_r+0xafc>
   109c4:	02813703          	ld	a4,40(sp)
   109c8:	00073783          	ld	a5,0(a4)
   109cc:	00870713          	addi	a4,a4,8
   109d0:	02e13423          	sd	a4,40(sp)
   109d4:	001c7713          	andi	a4,s8,1
   109d8:	120706e3          	beqz	a4,11304 <_vfprintf_r+0xf7c>
   109dc:	6a078ee3          	beqz	a5,11898 <_vfprintf_r+0x1510>
   109e0:	03000713          	li	a4,48
   109e4:	08e10823          	sb	a4,144(sp)
   109e8:	09a108a3          	sb	s10,145(sp)
   109ec:	080107a3          	sb	zero,143(sp)
   109f0:	002c6713          	ori	a4,s8,2
   109f4:	00045463          	bgez	s0,109fc <_vfprintf_r+0x674>
   109f8:	2140106f          	j	11c0c <_vfprintf_r+0x1884>
   109fc:	f7fc7c13          	andi	s8,s8,-129
   10a00:	002c6c13          	ori	s8,s8,2
   10a04:	00000613          	li	a2,0
   10a08:	be9ff06f          	j	105f0 <_vfprintf_r+0x268>
   10a0c:	02813703          	ld	a4,40(sp)
   10a10:	00100693          	li	a3,1
   10a14:	00d12423          	sw	a3,8(sp)
   10a18:	00072783          	lw	a5,0(a4)
   10a1c:	080107a3          	sb	zero,143(sp)
   10a20:	00000613          	li	a2,0
   10a24:	0cf10423          	sb	a5,200(sp)
   10a28:	00870793          	addi	a5,a4,8
   10a2c:	02f13423          	sd	a5,40(sp)
   10a30:	02d12023          	sw	a3,32(sp)
   10a34:	00000413          	li	s0,0
   10a38:	04012623          	sw	zero,76(sp)
   10a3c:	0c810913          	addi	s2,sp,200
   10a40:	002c7793          	andi	a5,s8,2
   10a44:	04f12023          	sw	a5,64(sp)
   10a48:	00078863          	beqz	a5,10a58 <_vfprintf_r+0x6d0>
   10a4c:	00812783          	lw	a5,8(sp)
   10a50:	0027879b          	addiw	a5,a5,2
   10a54:	00f12423          	sw	a5,8(sp)
   10a58:	084c7793          	andi	a5,s8,132
   10a5c:	04f12423          	sw	a5,72(sp)
   10a60:	52079263          	bnez	a5,10f84 <_vfprintf_r+0xbfc>
   10a64:	01812783          	lw	a5,24(sp)
   10a68:	00812703          	lw	a4,8(sp)
   10a6c:	40e78cbb          	subw	s9,a5,a4
   10a70:	51905a63          	blez	s9,10f84 <_vfprintf_r+0xbfc>
   10a74:	01000793          	li	a5,16
   10a78:	0197c463          	blt	a5,s9,10a80 <_vfprintf_r+0x6f8>
   10a7c:	1080106f          	j	11b84 <_vfprintf_r+0x17fc>
   10a80:	01000813          	li	a6,16
   10a84:	0c013783          	ld	a5,192(sp)
   10a88:	0b812703          	lw	a4,184(sp)
   10a8c:	05513823          	sd	s5,80(sp)
   10a90:	00700313          	li	t1,7
   10a94:	00080d93          	mv	s11,a6
   10a98:	00c0006f          	j	10aa4 <_vfprintf_r+0x71c>
   10a9c:	ff0c8c9b          	addiw	s9,s9,-16
   10aa0:	059dde63          	ble	s9,s11,10afc <_vfprintf_r+0x774>
   10aa4:	01078793          	addi	a5,a5,16
   10aa8:	0017071b          	addiw	a4,a4,1
   10aac:	0158b023          	sd	s5,0(a7)
   10ab0:	0108b423          	sd	a6,8(a7)
   10ab4:	0cf13023          	sd	a5,192(sp)
   10ab8:	0ae12c23          	sw	a4,184(sp)
   10abc:	01088893          	addi	a7,a7,16
   10ac0:	fce35ee3          	ble	a4,t1,10a9c <_vfprintf_r+0x714>
   10ac4:	0b010613          	addi	a2,sp,176
   10ac8:	000a0593          	mv	a1,s4
   10acc:	000b8513          	mv	a0,s7
   10ad0:	00613823          	sd	t1,16(sp)
   10ad4:	01013023          	sd	a6,0(sp)
   10ad8:	2d5050ef          	jal	165ac <__sprint_r>
   10adc:	ba051ee3          	bnez	a0,10698 <_vfprintf_r+0x310>
   10ae0:	ff0c8c9b          	addiw	s9,s9,-16
   10ae4:	0c013783          	ld	a5,192(sp)
   10ae8:	0b812703          	lw	a4,184(sp)
   10aec:	000b0893          	mv	a7,s6
   10af0:	01013303          	ld	t1,16(sp)
   10af4:	00013803          	ld	a6,0(sp)
   10af8:	fb9dc6e3          	blt	s11,s9,10aa4 <_vfprintf_r+0x71c>
   10afc:	05013603          	ld	a2,80(sp)
   10b00:	00fc87b3          	add	a5,s9,a5
   10b04:	0017071b          	addiw	a4,a4,1
   10b08:	00c8b023          	sd	a2,0(a7)
   10b0c:	0198b423          	sd	s9,8(a7)
   10b10:	0cf13023          	sd	a5,192(sp)
   10b14:	0ae12c23          	sw	a4,184(sp)
   10b18:	00700693          	li	a3,7
   10b1c:	0ce6cae3          	blt	a3,a4,113f0 <_vfprintf_r+0x1068>
   10b20:	08f14603          	lbu	a2,143(sp)
   10b24:	01088893          	addi	a7,a7,16
   10b28:	02060a63          	beqz	a2,10b5c <_vfprintf_r+0x7d4>
   10b2c:	0b812703          	lw	a4,184(sp)
   10b30:	08f10693          	addi	a3,sp,143
   10b34:	00d8b023          	sd	a3,0(a7)
   10b38:	00178793          	addi	a5,a5,1
   10b3c:	00100693          	li	a3,1
   10b40:	0017071b          	addiw	a4,a4,1
   10b44:	00d8b423          	sd	a3,8(a7)
   10b48:	0cf13023          	sd	a5,192(sp)
   10b4c:	0ae12c23          	sw	a4,184(sp)
   10b50:	00700693          	li	a3,7
   10b54:	01088893          	addi	a7,a7,16
   10b58:	76e6c663          	blt	a3,a4,112c4 <_vfprintf_r+0xf3c>
   10b5c:	04012703          	lw	a4,64(sp)
   10b60:	02070a63          	beqz	a4,10b94 <_vfprintf_r+0x80c>
   10b64:	0b812703          	lw	a4,184(sp)
   10b68:	09010693          	addi	a3,sp,144
   10b6c:	00d8b023          	sd	a3,0(a7)
   10b70:	00278793          	addi	a5,a5,2
   10b74:	00200693          	li	a3,2
   10b78:	0017071b          	addiw	a4,a4,1
   10b7c:	00d8b423          	sd	a3,8(a7)
   10b80:	0cf13023          	sd	a5,192(sp)
   10b84:	0ae12c23          	sw	a4,184(sp)
   10b88:	00700693          	li	a3,7
   10b8c:	01088893          	addi	a7,a7,16
   10b90:	74e6ca63          	blt	a3,a4,112e4 <_vfprintf_r+0xf5c>
   10b94:	04812683          	lw	a3,72(sp)
   10b98:	08000713          	li	a4,128
   10b9c:	5ee68663          	beq	a3,a4,11188 <_vfprintf_r+0xe00>
   10ba0:	02012703          	lw	a4,32(sp)
   10ba4:	40e4043b          	subw	s0,s0,a4
   10ba8:	0c805063          	blez	s0,10c68 <_vfprintf_r+0x8e0>
   10bac:	01000713          	li	a4,16
   10bb0:	4e875ce3          	ble	s0,a4,118a8 <_vfprintf_r+0x1520>
   10bb4:	01000c93          	li	s9,16
   10bb8:	0b812703          	lw	a4,184(sp)
   10bbc:	00913823          	sd	s1,16(sp)
   10bc0:	00700813          	li	a6,7
   10bc4:	000c8d93          	mv	s11,s9
   10bc8:	00c0006f          	j	10bd4 <_vfprintf_r+0x84c>
   10bcc:	ff04041b          	addiw	s0,s0,-16
   10bd0:	048dda63          	ble	s0,s11,10c24 <_vfprintf_r+0x89c>
   10bd4:	01078793          	addi	a5,a5,16
   10bd8:	0017071b          	addiw	a4,a4,1
   10bdc:	0098b023          	sd	s1,0(a7)
   10be0:	0198b423          	sd	s9,8(a7)
   10be4:	0cf13023          	sd	a5,192(sp)
   10be8:	0ae12c23          	sw	a4,184(sp)
   10bec:	01088893          	addi	a7,a7,16
   10bf0:	fce85ee3          	ble	a4,a6,10bcc <_vfprintf_r+0x844>
   10bf4:	0b010613          	addi	a2,sp,176
   10bf8:	000a0593          	mv	a1,s4
   10bfc:	000b8513          	mv	a0,s7
   10c00:	01013023          	sd	a6,0(sp)
   10c04:	1a9050ef          	jal	165ac <__sprint_r>
   10c08:	a80518e3          	bnez	a0,10698 <_vfprintf_r+0x310>
   10c0c:	ff04041b          	addiw	s0,s0,-16
   10c10:	0c013783          	ld	a5,192(sp)
   10c14:	0b812703          	lw	a4,184(sp)
   10c18:	000b0893          	mv	a7,s6
   10c1c:	00013803          	ld	a6,0(sp)
   10c20:	fa8dcae3          	blt	s11,s0,10bd4 <_vfprintf_r+0x84c>
   10c24:	01013683          	ld	a3,16(sp)
   10c28:	008787b3          	add	a5,a5,s0
   10c2c:	0017071b          	addiw	a4,a4,1
   10c30:	00d8b023          	sd	a3,0(a7)
   10c34:	0088b423          	sd	s0,8(a7)
   10c38:	0cf13023          	sd	a5,192(sp)
   10c3c:	0ae12c23          	sw	a4,184(sp)
   10c40:	00700693          	li	a3,7
   10c44:	01088893          	addi	a7,a7,16
   10c48:	02e6d063          	ble	a4,a3,10c68 <_vfprintf_r+0x8e0>
   10c4c:	0b010613          	addi	a2,sp,176
   10c50:	000a0593          	mv	a1,s4
   10c54:	000b8513          	mv	a0,s7
   10c58:	155050ef          	jal	165ac <__sprint_r>
   10c5c:	a2051ee3          	bnez	a0,10698 <_vfprintf_r+0x310>
   10c60:	0c013783          	ld	a5,192(sp)
   10c64:	000b0893          	mv	a7,s6
   10c68:	100c7713          	andi	a4,s8,256
   10c6c:	40071663          	bnez	a4,11078 <_vfprintf_r+0xcf0>
   10c70:	02012703          	lw	a4,32(sp)
   10c74:	0b812683          	lw	a3,184(sp)
   10c78:	0128b023          	sd	s2,0(a7)
   10c7c:	00e787b3          	add	a5,a5,a4
   10c80:	0016869b          	addiw	a3,a3,1
   10c84:	00e8b423          	sd	a4,8(a7)
   10c88:	0cf13023          	sd	a5,192(sp)
   10c8c:	0ad12c23          	sw	a3,184(sp)
   10c90:	00700713          	li	a4,7
   10c94:	3cd74263          	blt	a4,a3,11058 <_vfprintf_r+0xcd0>
   10c98:	01088893          	addi	a7,a7,16
   10c9c:	004c7c13          	andi	s8,s8,4
   10ca0:	0c0c0063          	beqz	s8,10d60 <_vfprintf_r+0x9d8>
   10ca4:	01812703          	lw	a4,24(sp)
   10ca8:	00812683          	lw	a3,8(sp)
   10cac:	40d7043b          	subw	s0,a4,a3
   10cb0:	0a805863          	blez	s0,10d60 <_vfprintf_r+0x9d8>
   10cb4:	01000713          	li	a4,16
   10cb8:	748754e3          	ble	s0,a4,11c00 <_vfprintf_r+0x1878>
   10cbc:	01000913          	li	s2,16
   10cc0:	0b812703          	lw	a4,184(sp)
   10cc4:	05513823          	sd	s5,80(sp)
   10cc8:	00700c13          	li	s8,7
   10ccc:	00090d13          	mv	s10,s2
   10cd0:	00c0006f          	j	10cdc <_vfprintf_r+0x954>
   10cd4:	ff04041b          	addiw	s0,s0,-16
   10cd8:	048d5663          	ble	s0,s10,10d24 <_vfprintf_r+0x99c>
   10cdc:	01078793          	addi	a5,a5,16
   10ce0:	0017071b          	addiw	a4,a4,1
   10ce4:	0158b023          	sd	s5,0(a7)
   10ce8:	0128b423          	sd	s2,8(a7)
   10cec:	0cf13023          	sd	a5,192(sp)
   10cf0:	0ae12c23          	sw	a4,184(sp)
   10cf4:	01088893          	addi	a7,a7,16
   10cf8:	fcec5ee3          	ble	a4,s8,10cd4 <_vfprintf_r+0x94c>
   10cfc:	0b010613          	addi	a2,sp,176
   10d00:	000a0593          	mv	a1,s4
   10d04:	000b8513          	mv	a0,s7
   10d08:	0a5050ef          	jal	165ac <__sprint_r>
   10d0c:	980516e3          	bnez	a0,10698 <_vfprintf_r+0x310>
   10d10:	ff04041b          	addiw	s0,s0,-16
   10d14:	0c013783          	ld	a5,192(sp)
   10d18:	0b812703          	lw	a4,184(sp)
   10d1c:	000b0893          	mv	a7,s6
   10d20:	fa8d4ee3          	blt	s10,s0,10cdc <_vfprintf_r+0x954>
   10d24:	05013683          	ld	a3,80(sp)
   10d28:	008787b3          	add	a5,a5,s0
   10d2c:	0017071b          	addiw	a4,a4,1
   10d30:	00d8b023          	sd	a3,0(a7)
   10d34:	0088b423          	sd	s0,8(a7)
   10d38:	0cf13023          	sd	a5,192(sp)
   10d3c:	0ae12c23          	sw	a4,184(sp)
   10d40:	00700693          	li	a3,7
   10d44:	00e6de63          	ble	a4,a3,10d60 <_vfprintf_r+0x9d8>
   10d48:	0b010613          	addi	a2,sp,176
   10d4c:	000a0593          	mv	a1,s4
   10d50:	000b8513          	mv	a0,s7
   10d54:	059050ef          	jal	165ac <__sprint_r>
   10d58:	940510e3          	bnez	a0,10698 <_vfprintf_r+0x310>
   10d5c:	0c013783          	ld	a5,192(sp)
   10d60:	01812c83          	lw	s9,24(sp)
   10d64:	00812703          	lw	a4,8(sp)
   10d68:	00ecd463          	ble	a4,s9,10d70 <_vfprintf_r+0x9e8>
   10d6c:	00070c93          	mv	s9,a4
   10d70:	01c12703          	lw	a4,28(sp)
   10d74:	0197073b          	addw	a4,a4,s9
   10d78:	00e12e23          	sw	a4,28(sp)
   10d7c:	52079863          	bnez	a5,112ac <_vfprintf_r+0xf24>
   10d80:	0009c783          	lbu	a5,0(s3)
   10d84:	0a012c23          	sw	zero,184(sp)
   10d88:	000b0893          	mv	a7,s6
   10d8c:	f2079263          	bnez	a5,104b0 <_vfprintf_r+0x128>
   10d90:	00098413          	mv	s0,s3
   10d94:	f80ff06f          	j	10514 <_vfprintf_r+0x18c>
   10d98:	00060463          	beqz	a2,10da0 <_vfprintf_r+0xa18>
   10d9c:	22c0106f          	j	11fc8 <_vfprintf_r+0x1c40>
   10da0:	010c7793          	andi	a5,s8,16
   10da4:	12078e63          	beqz	a5,10ee0 <_vfprintf_r+0xb58>
   10da8:	02813703          	ld	a4,40(sp)
   10dac:	00073783          	ld	a5,0(a4)
   10db0:	00870713          	addi	a4,a4,8
   10db4:	02e13423          	sd	a4,40(sp)
   10db8:	1407c0e3          	bltz	a5,116f8 <_vfprintf_r+0x1370>
   10dbc:	08f14603          	lbu	a2,143(sp)
   10dc0:	bc044ee3          	bltz	s0,1099c <_vfprintf_r+0x614>
   10dc4:	f7fc7c13          	andi	s8,s8,-129
   10dc8:	ae0798e3          	bnez	a5,108b8 <_vfprintf_r+0x530>
   10dcc:	6e041a63          	bnez	s0,114c0 <_vfprintf_r+0x1138>
   10dd0:	00000413          	li	s0,0
   10dd4:	02012023          	sw	zero,32(sp)
   10dd8:	000b0913          	mv	s2,s6
   10ddc:	9a9ff06f          	j	10784 <_vfprintf_r+0x3fc>
   10de0:	040c6c13          	ori	s8,s8,64
   10de4:	f60ff06f          	j	10544 <_vfprintf_r+0x1bc>
   10de8:	00060463          	beqz	a2,10df0 <_vfprintf_r+0xa68>
   10dec:	1d40106f          	j	11fc0 <_vfprintf_r+0x1c38>
   10df0:	02813783          	ld	a5,40(sp)
   10df4:	00100913          	li	s2,1
   10df8:	0007b787          	fld	fa5,0(a5)
   10dfc:	00878793          	addi	a5,a5,8
   10e00:	01113023          	sd	a7,0(sp)
   10e04:	04f13c27          	fsd	fa5,88(sp)
   10e08:	05813c83          	ld	s9,88(sp)
   10e0c:	02f13423          	sd	a5,40(sp)
   10e10:	f20c8553          	fmv.d.x	fa0,s9
   10e14:	2e8050ef          	jal	160fc <__fpclassifyd>
   10e18:	00013883          	ld	a7,0(sp)
   10e1c:	0f251ce3          	bne	a0,s2,11714 <_vfprintf_r+0x138c>
   10e20:	f20007d3          	fmv.d.x	fa5,zero
   10e24:	f20c8753          	fmv.d.x	fa4,s9
   10e28:	a2f717d3          	flt.d	a5,fa4,fa5
   10e2c:	600792e3          	bnez	a5,11c30 <_vfprintf_r+0x18a8>
   10e30:	08f14603          	lbu	a2,143(sp)
   10e34:	04700793          	li	a5,71
   10e38:	3da7d8e3          	ble	s10,a5,11a08 <_vfprintf_r+0x1680>
   10e3c:	00019937          	lui	s2,0x19
   10e40:	23090913          	addi	s2,s2,560 # 19230 <zeroes.4137+0x20>
   10e44:	00300793          	li	a5,3
   10e48:	00f12423          	sw	a5,8(sp)
   10e4c:	f7fc7c13          	andi	s8,s8,-129
   10e50:	02f12023          	sw	a5,32(sp)
   10e54:	00000413          	li	s0,0
   10e58:	04012623          	sw	zero,76(sp)
   10e5c:	941ff06f          	j	1079c <_vfprintf_r+0x414>
   10e60:	008c6c13          	ori	s8,s8,8
   10e64:	ee0ff06f          	j	10544 <_vfprintf_r+0x1bc>
   10e68:	00060463          	beqz	a2,10e70 <_vfprintf_r+0xae8>
   10e6c:	1280106f          	j	11f94 <_vfprintf_r+0x1c0c>
   10e70:	000197b7          	lui	a5,0x19
   10e74:	26078793          	addi	a5,a5,608 # 19260 <zeroes.4137+0x50>
   10e78:	02f13c23          	sd	a5,56(sp)
   10e7c:	010c7793          	andi	a5,s8,16
   10e80:	b40792e3          	bnez	a5,109c4 <_vfprintf_r+0x63c>
   10e84:	040c7793          	andi	a5,s8,64
   10e88:	02813703          	ld	a4,40(sp)
   10e8c:	1c0784e3          	beqz	a5,11854 <_vfprintf_r+0x14cc>
   10e90:	00075783          	lhu	a5,0(a4)
   10e94:	00870713          	addi	a4,a4,8
   10e98:	02e13423          	sd	a4,40(sp)
   10e9c:	b39ff06f          	j	109d4 <_vfprintf_r+0x64c>
   10ea0:	00060463          	beqz	a2,10ea8 <_vfprintf_r+0xb20>
   10ea4:	10c0106f          	j	11fb0 <_vfprintf_r+0x1c28>
   10ea8:	010c7793          	andi	a5,s8,16
   10eac:	1a078ce3          	beqz	a5,11864 <_vfprintf_r+0x14dc>
   10eb0:	02813683          	ld	a3,40(sp)
   10eb4:	01c12703          	lw	a4,28(sp)
   10eb8:	0006b783          	ld	a5,0(a3)
   10ebc:	00868693          	addi	a3,a3,8
   10ec0:	02d13423          	sd	a3,40(sp)
   10ec4:	00e7b023          	sd	a4,0(a5)
   10ec8:	de0ff06f          	j	104a8 <_vfprintf_r+0x120>
   10ecc:	00060463          	beqz	a2,10ed4 <_vfprintf_r+0xb4c>
   10ed0:	0d40106f          	j	11fa4 <_vfprintf_r+0x1c1c>
   10ed4:	010c6c13          	ori	s8,s8,16
   10ed8:	010c7793          	andi	a5,s8,16
   10edc:	ec0796e3          	bnez	a5,10da8 <_vfprintf_r+0xa20>
   10ee0:	040c7793          	andi	a5,s8,64
   10ee4:	02813703          	ld	a4,40(sp)
   10ee8:	1a0780e3          	beqz	a5,11888 <_vfprintf_r+0x1500>
   10eec:	00071783          	lh	a5,0(a4)
   10ef0:	00870713          	addi	a4,a4,8
   10ef4:	02e13423          	sd	a4,40(sp)
   10ef8:	ec1ff06f          	j	10db8 <_vfprintf_r+0xa30>
   10efc:	00019737          	lui	a4,0x19
   10f00:	26070713          	addi	a4,a4,608 # 19260 <zeroes.4137+0x50>
   10f04:	00000613          	li	a2,0
   10f08:	02e13c23          	sd	a4,56(sp)
   10f0c:	07800d13          	li	s10,120
   10f10:	ee0ff06f          	j	105f0 <_vfprintf_r+0x268>
   10f14:	00060463          	beqz	a2,10f1c <_vfprintf_r+0xb94>
   10f18:	0c00106f          	j	11fd8 <_vfprintf_r+0x1c50>
   10f1c:	f60d0263          	beqz	s10,10680 <_vfprintf_r+0x2f8>
   10f20:	00100793          	li	a5,1
   10f24:	00f12423          	sw	a5,8(sp)
   10f28:	0da10423          	sb	s10,200(sp)
   10f2c:	080107a3          	sb	zero,143(sp)
   10f30:	00000613          	li	a2,0
   10f34:	02f12023          	sw	a5,32(sp)
   10f38:	00000413          	li	s0,0
   10f3c:	04012623          	sw	zero,76(sp)
   10f40:	0c810913          	addi	s2,sp,200
   10f44:	afdff06f          	j	10a40 <_vfprintf_r+0x6b8>
   10f48:	02e13423          	sd	a4,40(sp)
   10f4c:	00019737          	lui	a4,0x19
   10f50:	26070713          	addi	a4,a4,608 # 19260 <zeroes.4137+0x50>
   10f54:	00068c13          	mv	s8,a3
   10f58:	02e13c23          	sd	a4,56(sp)
   10f5c:	07800d13          	li	s10,120
   10f60:	3a079a63          	bnez	a5,11314 <_vfprintf_r+0xf8c>
   10f64:	00000613          	li	a2,0
   10f68:	00200793          	li	a5,2
   10f6c:	00100713          	li	a4,1
   10f70:	54e78863          	beq	a5,a4,114c0 <_vfprintf_r+0x1138>
   10f74:	00200713          	li	a4,2
   10f78:	e6e78a63          	beq	a5,a4,105ec <_vfprintf_r+0x264>
   10f7c:	00000793          	li	a5,0
   10f80:	fc4ff06f          	j	10744 <_vfprintf_r+0x3bc>
   10f84:	0c013783          	ld	a5,192(sp)
   10f88:	ba1ff06f          	j	10b28 <_vfprintf_r+0x7a0>
   10f8c:	07012683          	lw	a3,112(sp)
   10f90:	00100713          	li	a4,1
   10f94:	00178793          	addi	a5,a5,1
   10f98:	6cd75663          	ble	a3,a4,11664 <_vfprintf_r+0x12dc>
   10f9c:	0b812703          	lw	a4,184(sp)
   10fa0:	00100693          	li	a3,1
   10fa4:	00d8b423          	sd	a3,8(a7)
   10fa8:	0017071b          	addiw	a4,a4,1
   10fac:	0128b023          	sd	s2,0(a7)
   10fb0:	0cf13023          	sd	a5,192(sp)
   10fb4:	0ae12c23          	sw	a4,184(sp)
   10fb8:	00700693          	li	a3,7
   10fbc:	01088893          	addi	a7,a7,16
   10fc0:	6ce6ca63          	blt	a3,a4,11694 <_vfprintf_r+0x130c>
   10fc4:	06813683          	ld	a3,104(sp)
   10fc8:	06013603          	ld	a2,96(sp)
   10fcc:	0017071b          	addiw	a4,a4,1
   10fd0:	00f687b3          	add	a5,a3,a5
   10fd4:	00d8b423          	sd	a3,8(a7)
   10fd8:	00c8b023          	sd	a2,0(a7)
   10fdc:	0cf13023          	sd	a5,192(sp)
   10fe0:	0ae12c23          	sw	a4,184(sp)
   10fe4:	00700693          	li	a3,7
   10fe8:	01088893          	addi	a7,a7,16
   10fec:	6ee6c263          	blt	a3,a4,116d0 <_vfprintf_r+0x1348>
   10ff0:	f20007d3          	fmv.d.x	fa5,zero
   10ff4:	05813707          	fld	fa4,88(sp)
   10ff8:	a2f726d3          	feq.d	a3,fa4,fa5
   10ffc:	40069c63          	bnez	a3,11414 <_vfprintf_r+0x108c>
   11000:	07012683          	lw	a3,112(sp)
   11004:	00190913          	addi	s2,s2,1
   11008:	0017071b          	addiw	a4,a4,1
   1100c:	fff6869b          	addiw	a3,a3,-1
   11010:	00d787b3          	add	a5,a5,a3
   11014:	0128b023          	sd	s2,0(a7)
   11018:	00d8b423          	sd	a3,8(a7)
   1101c:	0cf13023          	sd	a5,192(sp)
   11020:	0ae12c23          	sw	a4,184(sp)
   11024:	00700693          	li	a3,7
   11028:	26e6c063          	blt	a3,a4,11288 <_vfprintf_r+0xf00>
   1102c:	01088893          	addi	a7,a7,16
   11030:	07412683          	lw	a3,116(sp)
   11034:	0a010613          	addi	a2,sp,160
   11038:	0017071b          	addiw	a4,a4,1
   1103c:	00f687b3          	add	a5,a3,a5
   11040:	00c8b023          	sd	a2,0(a7)
   11044:	00d8b423          	sd	a3,8(a7)
   11048:	0cf13023          	sd	a5,192(sp)
   1104c:	0ae12c23          	sw	a4,184(sp)
   11050:	00700693          	li	a3,7
   11054:	c4e6d2e3          	ble	a4,a3,10c98 <_vfprintf_r+0x910>
   11058:	0b010613          	addi	a2,sp,176
   1105c:	000a0593          	mv	a1,s4
   11060:	000b8513          	mv	a0,s7
   11064:	548050ef          	jal	165ac <__sprint_r>
   11068:	e2051863          	bnez	a0,10698 <_vfprintf_r+0x310>
   1106c:	0c013783          	ld	a5,192(sp)
   11070:	000b0893          	mv	a7,s6
   11074:	c29ff06f          	j	10c9c <_vfprintf_r+0x914>
   11078:	06500713          	li	a4,101
   1107c:	f1a758e3          	ble	s10,a4,10f8c <_vfprintf_r+0xc04>
   11080:	f20007d3          	fmv.d.x	fa5,zero
   11084:	05813707          	fld	fa4,88(sp)
   11088:	a2f72753          	feq.d	a4,fa4,fa5
   1108c:	28070863          	beqz	a4,1131c <_vfprintf_r+0xf94>
   11090:	0b812703          	lw	a4,184(sp)
   11094:	000196b7          	lui	a3,0x19
   11098:	28068693          	addi	a3,a3,640 # 19280 <zeroes.4137+0x70>
   1109c:	00d8b023          	sd	a3,0(a7)
   110a0:	00178793          	addi	a5,a5,1
   110a4:	00100693          	li	a3,1
   110a8:	0017071b          	addiw	a4,a4,1
   110ac:	00d8b423          	sd	a3,8(a7)
   110b0:	0cf13023          	sd	a5,192(sp)
   110b4:	0ae12c23          	sw	a4,184(sp)
   110b8:	00700693          	li	a3,7
   110bc:	01088893          	addi	a7,a7,16
   110c0:	7ee6ca63          	blt	a3,a4,118b4 <_vfprintf_r+0x152c>
   110c4:	09812703          	lw	a4,152(sp)
   110c8:	07012683          	lw	a3,112(sp)
   110cc:	00d74663          	blt	a4,a3,110d8 <_vfprintf_r+0xd50>
   110d0:	001c7713          	andi	a4,s8,1
   110d4:	bc0704e3          	beqz	a4,10c9c <_vfprintf_r+0x914>
   110d8:	06013703          	ld	a4,96(sp)
   110dc:	06813683          	ld	a3,104(sp)
   110e0:	01088893          	addi	a7,a7,16
   110e4:	fee8b823          	sd	a4,-16(a7)
   110e8:	0b812703          	lw	a4,184(sp)
   110ec:	00d787b3          	add	a5,a5,a3
   110f0:	fed8bc23          	sd	a3,-8(a7)
   110f4:	0017071b          	addiw	a4,a4,1
   110f8:	0cf13023          	sd	a5,192(sp)
   110fc:	0ae12c23          	sw	a4,184(sp)
   11100:	00700693          	li	a3,7
   11104:	1ce6c8e3          	blt	a3,a4,11ad4 <_vfprintf_r+0x174c>
   11108:	07012703          	lw	a4,112(sp)
   1110c:	fff7041b          	addiw	s0,a4,-1
   11110:	b88056e3          	blez	s0,10c9c <_vfprintf_r+0x914>
   11114:	01000713          	li	a4,16
   11118:	36875c63          	ble	s0,a4,11490 <_vfprintf_r+0x1108>
   1111c:	01000913          	li	s2,16
   11120:	0b812703          	lw	a4,184(sp)
   11124:	00913823          	sd	s1,16(sp)
   11128:	00700d13          	li	s10,7
   1112c:	00090693          	mv	a3,s2
   11130:	00c0006f          	j	1113c <_vfprintf_r+0xdb4>
   11134:	ff04041b          	addiw	s0,s0,-16
   11138:	3686d063          	ble	s0,a3,11498 <_vfprintf_r+0x1110>
   1113c:	01078793          	addi	a5,a5,16
   11140:	0017071b          	addiw	a4,a4,1
   11144:	0098b023          	sd	s1,0(a7)
   11148:	0128b423          	sd	s2,8(a7)
   1114c:	0cf13023          	sd	a5,192(sp)
   11150:	0ae12c23          	sw	a4,184(sp)
   11154:	01088893          	addi	a7,a7,16
   11158:	fced5ee3          	ble	a4,s10,11134 <_vfprintf_r+0xdac>
   1115c:	0b010613          	addi	a2,sp,176
   11160:	000a0593          	mv	a1,s4
   11164:	000b8513          	mv	a0,s7
   11168:	00d13023          	sd	a3,0(sp)
   1116c:	440050ef          	jal	165ac <__sprint_r>
   11170:	d2051463          	bnez	a0,10698 <_vfprintf_r+0x310>
   11174:	0c013783          	ld	a5,192(sp)
   11178:	0b812703          	lw	a4,184(sp)
   1117c:	000b0893          	mv	a7,s6
   11180:	00013683          	ld	a3,0(sp)
   11184:	fb1ff06f          	j	11134 <_vfprintf_r+0xdac>
   11188:	01812703          	lw	a4,24(sp)
   1118c:	00812683          	lw	a3,8(sp)
   11190:	40d70cbb          	subw	s9,a4,a3
   11194:	a19056e3          	blez	s9,10ba0 <_vfprintf_r+0x818>
   11198:	01000713          	li	a4,16
   1119c:	2f975ee3          	ble	s9,a4,11c98 <_vfprintf_r+0x1910>
   111a0:	01000813          	li	a6,16
   111a4:	0b812703          	lw	a4,184(sp)
   111a8:	00913823          	sd	s1,16(sp)
   111ac:	00700313          	li	t1,7
   111b0:	00080d93          	mv	s11,a6
   111b4:	00c0006f          	j	111c0 <_vfprintf_r+0xe38>
   111b8:	ff0c8c9b          	addiw	s9,s9,-16
   111bc:	059dde63          	ble	s9,s11,11218 <_vfprintf_r+0xe90>
   111c0:	01078793          	addi	a5,a5,16
   111c4:	0017071b          	addiw	a4,a4,1
   111c8:	0098b023          	sd	s1,0(a7)
   111cc:	0108b423          	sd	a6,8(a7)
   111d0:	0cf13023          	sd	a5,192(sp)
   111d4:	0ae12c23          	sw	a4,184(sp)
   111d8:	01088893          	addi	a7,a7,16
   111dc:	fce35ee3          	ble	a4,t1,111b8 <_vfprintf_r+0xe30>
   111e0:	0b010613          	addi	a2,sp,176
   111e4:	000a0593          	mv	a1,s4
   111e8:	000b8513          	mv	a0,s7
   111ec:	04613023          	sd	t1,64(sp)
   111f0:	01013023          	sd	a6,0(sp)
   111f4:	3b8050ef          	jal	165ac <__sprint_r>
   111f8:	ca051063          	bnez	a0,10698 <_vfprintf_r+0x310>
   111fc:	ff0c8c9b          	addiw	s9,s9,-16
   11200:	0c013783          	ld	a5,192(sp)
   11204:	0b812703          	lw	a4,184(sp)
   11208:	000b0893          	mv	a7,s6
   1120c:	04013303          	ld	t1,64(sp)
   11210:	00013803          	ld	a6,0(sp)
   11214:	fb9dc6e3          	blt	s11,s9,111c0 <_vfprintf_r+0xe38>
   11218:	01013603          	ld	a2,16(sp)
   1121c:	019787b3          	add	a5,a5,s9
   11220:	0017071b          	addiw	a4,a4,1
   11224:	00c8b023          	sd	a2,0(a7)
   11228:	0198b423          	sd	s9,8(a7)
   1122c:	0cf13023          	sd	a5,192(sp)
   11230:	0ae12c23          	sw	a4,184(sp)
   11234:	00700693          	li	a3,7
   11238:	01088893          	addi	a7,a7,16
   1123c:	96e6d2e3          	ble	a4,a3,10ba0 <_vfprintf_r+0x818>
   11240:	0b010613          	addi	a2,sp,176
   11244:	000a0593          	mv	a1,s4
   11248:	000b8513          	mv	a0,s7
   1124c:	360050ef          	jal	165ac <__sprint_r>
   11250:	c4051463          	bnez	a0,10698 <_vfprintf_r+0x310>
   11254:	0c013783          	ld	a5,192(sp)
   11258:	000b0893          	mv	a7,s6
   1125c:	945ff06f          	j	10ba0 <_vfprintf_r+0x818>
   11260:	00913823          	sd	s1,16(sp)
   11264:	01013683          	ld	a3,16(sp)
   11268:	008787b3          	add	a5,a5,s0
   1126c:	0017071b          	addiw	a4,a4,1
   11270:	00d8b023          	sd	a3,0(a7)
   11274:	0088b423          	sd	s0,8(a7)
   11278:	0cf13023          	sd	a5,192(sp)
   1127c:	0ae12c23          	sw	a4,184(sp)
   11280:	00700693          	li	a3,7
   11284:	dae6d4e3          	ble	a4,a3,1102c <_vfprintf_r+0xca4>
   11288:	0b010613          	addi	a2,sp,176
   1128c:	000a0593          	mv	a1,s4
   11290:	000b8513          	mv	a0,s7
   11294:	318050ef          	jal	165ac <__sprint_r>
   11298:	c0051063          	bnez	a0,10698 <_vfprintf_r+0x310>
   1129c:	0c013783          	ld	a5,192(sp)
   112a0:	0b812703          	lw	a4,184(sp)
   112a4:	000b0893          	mv	a7,s6
   112a8:	d89ff06f          	j	11030 <_vfprintf_r+0xca8>
   112ac:	0b010613          	addi	a2,sp,176
   112b0:	000a0593          	mv	a1,s4
   112b4:	000b8513          	mv	a0,s7
   112b8:	2f4050ef          	jal	165ac <__sprint_r>
   112bc:	ac0502e3          	beqz	a0,10d80 <_vfprintf_r+0x9f8>
   112c0:	bd8ff06f          	j	10698 <_vfprintf_r+0x310>
   112c4:	0b010613          	addi	a2,sp,176
   112c8:	000a0593          	mv	a1,s4
   112cc:	000b8513          	mv	a0,s7
   112d0:	2dc050ef          	jal	165ac <__sprint_r>
   112d4:	bc051263          	bnez	a0,10698 <_vfprintf_r+0x310>
   112d8:	0c013783          	ld	a5,192(sp)
   112dc:	000b0893          	mv	a7,s6
   112e0:	87dff06f          	j	10b5c <_vfprintf_r+0x7d4>
   112e4:	0b010613          	addi	a2,sp,176
   112e8:	000a0593          	mv	a1,s4
   112ec:	000b8513          	mv	a0,s7
   112f0:	2bc050ef          	jal	165ac <__sprint_r>
   112f4:	ba051263          	bnez	a0,10698 <_vfprintf_r+0x310>
   112f8:	0c013783          	ld	a5,192(sp)
   112fc:	000b0893          	mv	a7,s6
   11300:	895ff06f          	j	10b94 <_vfprintf_r+0x80c>
   11304:	080107a3          	sb	zero,143(sp)
   11308:	c4044ce3          	bltz	s0,10f60 <_vfprintf_r+0xbd8>
   1130c:	f7fc7c13          	andi	s8,s8,-129
   11310:	ac078a63          	beqz	a5,105e4 <_vfprintf_r+0x25c>
   11314:	00000613          	li	a2,0
   11318:	ad8ff06f          	j	105f0 <_vfprintf_r+0x268>
   1131c:	09812403          	lw	s0,152(sp)
   11320:	5a805c63          	blez	s0,118d8 <_vfprintf_r+0x1550>
   11324:	04c12703          	lw	a4,76(sp)
   11328:	07012683          	lw	a3,112(sp)
   1132c:	00070413          	mv	s0,a4
   11330:	00e6d463          	ble	a4,a3,11338 <_vfprintf_r+0xfb0>
   11334:	00068413          	mv	s0,a3
   11338:	02805663          	blez	s0,11364 <_vfprintf_r+0xfdc>
   1133c:	0b812703          	lw	a4,184(sp)
   11340:	008787b3          	add	a5,a5,s0
   11344:	0128b023          	sd	s2,0(a7)
   11348:	0017071b          	addiw	a4,a4,1
   1134c:	0088b423          	sd	s0,8(a7)
   11350:	0cf13023          	sd	a5,192(sp)
   11354:	0ae12c23          	sw	a4,184(sp)
   11358:	00700693          	li	a3,7
   1135c:	01088893          	addi	a7,a7,16
   11360:	6ae6ca63          	blt	a3,a4,11a14 <_vfprintf_r+0x168c>
   11364:	020448e3          	bltz	s0,11b94 <_vfprintf_r+0x180c>
   11368:	04c12703          	lw	a4,76(sp)
   1136c:	4087043b          	subw	s0,a4,s0
   11370:	1a805c63          	blez	s0,11528 <_vfprintf_r+0x11a0>
   11374:	01000713          	li	a4,16
   11378:	16875263          	ble	s0,a4,114dc <_vfprintf_r+0x1154>
   1137c:	01000d13          	li	s10,16
   11380:	0b812703          	lw	a4,184(sp)
   11384:	00913823          	sd	s1,16(sp)
   11388:	00700693          	li	a3,7
   1138c:	000d0813          	mv	a6,s10
   11390:	00c0006f          	j	1139c <_vfprintf_r+0x1014>
   11394:	ff04041b          	addiw	s0,s0,-16
   11398:	14885663          	ble	s0,a6,114e4 <_vfprintf_r+0x115c>
   1139c:	01078793          	addi	a5,a5,16
   113a0:	0017071b          	addiw	a4,a4,1
   113a4:	0098b023          	sd	s1,0(a7)
   113a8:	01a8b423          	sd	s10,8(a7)
   113ac:	0cf13023          	sd	a5,192(sp)
   113b0:	0ae12c23          	sw	a4,184(sp)
   113b4:	01088893          	addi	a7,a7,16
   113b8:	fce6dee3          	ble	a4,a3,11394 <_vfprintf_r+0x100c>
   113bc:	0b010613          	addi	a2,sp,176
   113c0:	000a0593          	mv	a1,s4
   113c4:	000b8513          	mv	a0,s7
   113c8:	03013023          	sd	a6,32(sp)
   113cc:	00d13023          	sd	a3,0(sp)
   113d0:	1dc050ef          	jal	165ac <__sprint_r>
   113d4:	ac051263          	bnez	a0,10698 <_vfprintf_r+0x310>
   113d8:	0c013783          	ld	a5,192(sp)
   113dc:	0b812703          	lw	a4,184(sp)
   113e0:	000b0893          	mv	a7,s6
   113e4:	02013803          	ld	a6,32(sp)
   113e8:	00013683          	ld	a3,0(sp)
   113ec:	fa9ff06f          	j	11394 <_vfprintf_r+0x100c>
   113f0:	0b010613          	addi	a2,sp,176
   113f4:	000a0593          	mv	a1,s4
   113f8:	000b8513          	mv	a0,s7
   113fc:	1b0050ef          	jal	165ac <__sprint_r>
   11400:	a8051c63          	bnez	a0,10698 <_vfprintf_r+0x310>
   11404:	08f14603          	lbu	a2,143(sp)
   11408:	0c013783          	ld	a5,192(sp)
   1140c:	000b0893          	mv	a7,s6
   11410:	f18ff06f          	j	10b28 <_vfprintf_r+0x7a0>
   11414:	07012683          	lw	a3,112(sp)
   11418:	fff6841b          	addiw	s0,a3,-1
   1141c:	c0805ae3          	blez	s0,11030 <_vfprintf_r+0xca8>
   11420:	01000693          	li	a3,16
   11424:	e286dee3          	ble	s0,a3,11260 <_vfprintf_r+0xed8>
   11428:	01000913          	li	s2,16
   1142c:	00913823          	sd	s1,16(sp)
   11430:	00700d13          	li	s10,7
   11434:	00090693          	mv	a3,s2
   11438:	00c0006f          	j	11444 <_vfprintf_r+0x10bc>
   1143c:	ff04041b          	addiw	s0,s0,-16
   11440:	e286d2e3          	ble	s0,a3,11264 <_vfprintf_r+0xedc>
   11444:	01078793          	addi	a5,a5,16
   11448:	0017071b          	addiw	a4,a4,1
   1144c:	0098b023          	sd	s1,0(a7)
   11450:	0128b423          	sd	s2,8(a7)
   11454:	0cf13023          	sd	a5,192(sp)
   11458:	0ae12c23          	sw	a4,184(sp)
   1145c:	01088893          	addi	a7,a7,16
   11460:	fced5ee3          	ble	a4,s10,1143c <_vfprintf_r+0x10b4>
   11464:	0b010613          	addi	a2,sp,176
   11468:	000a0593          	mv	a1,s4
   1146c:	000b8513          	mv	a0,s7
   11470:	00d13023          	sd	a3,0(sp)
   11474:	138050ef          	jal	165ac <__sprint_r>
   11478:	a2051063          	bnez	a0,10698 <_vfprintf_r+0x310>
   1147c:	0c013783          	ld	a5,192(sp)
   11480:	0b812703          	lw	a4,184(sp)
   11484:	000b0893          	mv	a7,s6
   11488:	00013683          	ld	a3,0(sp)
   1148c:	fb1ff06f          	j	1143c <_vfprintf_r+0x10b4>
   11490:	0b812703          	lw	a4,184(sp)
   11494:	00913823          	sd	s1,16(sp)
   11498:	01013683          	ld	a3,16(sp)
   1149c:	008787b3          	add	a5,a5,s0
   114a0:	0088b423          	sd	s0,8(a7)
   114a4:	00d8b023          	sd	a3,0(a7)
   114a8:	0017071b          	addiw	a4,a4,1
   114ac:	0cf13023          	sd	a5,192(sp)
   114b0:	0ae12c23          	sw	a4,184(sp)
   114b4:	00700693          	li	a3,7
   114b8:	fee6d063          	ble	a4,a3,10c98 <_vfprintf_r+0x910>
   114bc:	b9dff06f          	j	11058 <_vfprintf_r+0xcd0>
   114c0:	00000793          	li	a5,0
   114c4:	0307879b          	addiw	a5,a5,48
   114c8:	0ef107a3          	sb	a5,239(sp)
   114cc:	07813783          	ld	a5,120(sp)
   114d0:	0ef10913          	addi	s2,sp,239
   114d4:	02f12023          	sw	a5,32(sp)
   114d8:	aacff06f          	j	10784 <_vfprintf_r+0x3fc>
   114dc:	0b812703          	lw	a4,184(sp)
   114e0:	00913823          	sd	s1,16(sp)
   114e4:	01013683          	ld	a3,16(sp)
   114e8:	008787b3          	add	a5,a5,s0
   114ec:	0017071b          	addiw	a4,a4,1
   114f0:	00d8b023          	sd	a3,0(a7)
   114f4:	0088b423          	sd	s0,8(a7)
   114f8:	0cf13023          	sd	a5,192(sp)
   114fc:	0ae12c23          	sw	a4,184(sp)
   11500:	00700693          	li	a3,7
   11504:	01088893          	addi	a7,a7,16
   11508:	02e6d063          	ble	a4,a3,11528 <_vfprintf_r+0x11a0>
   1150c:	0b010613          	addi	a2,sp,176
   11510:	000a0593          	mv	a1,s4
   11514:	000b8513          	mv	a0,s7
   11518:	094050ef          	jal	165ac <__sprint_r>
   1151c:	96051e63          	bnez	a0,10698 <_vfprintf_r+0x310>
   11520:	0c013783          	ld	a5,192(sp)
   11524:	000b0893          	mv	a7,s6
   11528:	04c12d03          	lw	s10,76(sp)
   1152c:	09812703          	lw	a4,152(sp)
   11530:	07012683          	lw	a3,112(sp)
   11534:	01a90d33          	add	s10,s2,s10
   11538:	0cd74a63          	blt	a4,a3,1160c <_vfprintf_r+0x1284>
   1153c:	001c7693          	andi	a3,s8,1
   11540:	0c069663          	bnez	a3,1160c <_vfprintf_r+0x1284>
   11544:	07012683          	lw	a3,112(sp)
   11548:	00d90433          	add	s0,s2,a3
   1154c:	41a40433          	sub	s0,s0,s10
   11550:	40e6873b          	subw	a4,a3,a4
   11554:	0004041b          	sext.w	s0,s0
   11558:	00875463          	ble	s0,a4,11560 <_vfprintf_r+0x11d8>
   1155c:	00070413          	mv	s0,a4
   11560:	02805663          	blez	s0,1158c <_vfprintf_r+0x1204>
   11564:	0b812683          	lw	a3,184(sp)
   11568:	008787b3          	add	a5,a5,s0
   1156c:	01a8b023          	sd	s10,0(a7)
   11570:	0016869b          	addiw	a3,a3,1
   11574:	0088b423          	sd	s0,8(a7)
   11578:	0cf13023          	sd	a5,192(sp)
   1157c:	0ad12c23          	sw	a3,184(sp)
   11580:	00700613          	li	a2,7
   11584:	01088893          	addi	a7,a7,16
   11588:	4cd64263          	blt	a2,a3,11a4c <_vfprintf_r+0x16c4>
   1158c:	60044863          	bltz	s0,11b9c <_vfprintf_r+0x1814>
   11590:	4087043b          	subw	s0,a4,s0
   11594:	f0805463          	blez	s0,10c9c <_vfprintf_r+0x914>
   11598:	01000713          	li	a4,16
   1159c:	ee875ae3          	ble	s0,a4,11490 <_vfprintf_r+0x1108>
   115a0:	01000913          	li	s2,16
   115a4:	0b812703          	lw	a4,184(sp)
   115a8:	00913823          	sd	s1,16(sp)
   115ac:	00700d13          	li	s10,7
   115b0:	00090693          	mv	a3,s2
   115b4:	00c0006f          	j	115c0 <_vfprintf_r+0x1238>
   115b8:	ff04041b          	addiw	s0,s0,-16
   115bc:	ec86dee3          	ble	s0,a3,11498 <_vfprintf_r+0x1110>
   115c0:	01078793          	addi	a5,a5,16
   115c4:	0017071b          	addiw	a4,a4,1
   115c8:	0098b023          	sd	s1,0(a7)
   115cc:	0128b423          	sd	s2,8(a7)
   115d0:	0cf13023          	sd	a5,192(sp)
   115d4:	0ae12c23          	sw	a4,184(sp)
   115d8:	01088893          	addi	a7,a7,16
   115dc:	fced5ee3          	ble	a4,s10,115b8 <_vfprintf_r+0x1230>
   115e0:	0b010613          	addi	a2,sp,176
   115e4:	000a0593          	mv	a1,s4
   115e8:	000b8513          	mv	a0,s7
   115ec:	00d13023          	sd	a3,0(sp)
   115f0:	7bd040ef          	jal	165ac <__sprint_r>
   115f4:	8a051263          	bnez	a0,10698 <_vfprintf_r+0x310>
   115f8:	0c013783          	ld	a5,192(sp)
   115fc:	0b812703          	lw	a4,184(sp)
   11600:	000b0893          	mv	a7,s6
   11604:	00013683          	ld	a3,0(sp)
   11608:	fb1ff06f          	j	115b8 <_vfprintf_r+0x1230>
   1160c:	06013683          	ld	a3,96(sp)
   11610:	06813603          	ld	a2,104(sp)
   11614:	01088893          	addi	a7,a7,16
   11618:	fed8b823          	sd	a3,-16(a7)
   1161c:	0b812683          	lw	a3,184(sp)
   11620:	00c787b3          	add	a5,a5,a2
   11624:	fec8bc23          	sd	a2,-8(a7)
   11628:	0016869b          	addiw	a3,a3,1
   1162c:	0cf13023          	sd	a5,192(sp)
   11630:	0ad12c23          	sw	a3,184(sp)
   11634:	00700613          	li	a2,7
   11638:	f0d656e3          	ble	a3,a2,11544 <_vfprintf_r+0x11bc>
   1163c:	0b010613          	addi	a2,sp,176
   11640:	000a0593          	mv	a1,s4
   11644:	000b8513          	mv	a0,s7
   11648:	765040ef          	jal	165ac <__sprint_r>
   1164c:	00050463          	beqz	a0,11654 <_vfprintf_r+0x12cc>
   11650:	848ff06f          	j	10698 <_vfprintf_r+0x310>
   11654:	09812703          	lw	a4,152(sp)
   11658:	0c013783          	ld	a5,192(sp)
   1165c:	000b0893          	mv	a7,s6
   11660:	ee5ff06f          	j	11544 <_vfprintf_r+0x11bc>
   11664:	00ec7733          	and	a4,s8,a4
   11668:	92071ae3          	bnez	a4,10f9c <_vfprintf_r+0xc14>
   1166c:	0b812703          	lw	a4,184(sp)
   11670:	0128b023          	sd	s2,0(a7)
   11674:	00100693          	li	a3,1
   11678:	0017071b          	addiw	a4,a4,1
   1167c:	99dff06f          	j	11018 <_vfprintf_r+0xc90>
   11680:	02813783          	ld	a5,40(sp)
   11684:	00878713          	addi	a4,a5,8
   11688:	0007e783          	lwu	a5,0(a5)
   1168c:	a0045e63          	bgez	s0,108a8 <_vfprintf_r+0x520>
   11690:	b04ff06f          	j	10994 <_vfprintf_r+0x60c>
   11694:	0b010613          	addi	a2,sp,176
   11698:	000a0593          	mv	a1,s4
   1169c:	000b8513          	mv	a0,s7
   116a0:	70d040ef          	jal	165ac <__sprint_r>
   116a4:	00050463          	beqz	a0,116ac <_vfprintf_r+0x1324>
   116a8:	ff1fe06f          	j	10698 <_vfprintf_r+0x310>
   116ac:	0c013783          	ld	a5,192(sp)
   116b0:	0b812703          	lw	a4,184(sp)
   116b4:	000b0893          	mv	a7,s6
   116b8:	90dff06f          	j	10fc4 <_vfprintf_r+0xc3c>
   116bc:	02813783          	ld	a5,40(sp)
   116c0:	00878713          	addi	a4,a5,8
   116c4:	0007e783          	lwu	a5,0(a5)
   116c8:	86045063          	bgez	s0,10728 <_vfprintf_r+0x3a0>
   116cc:	a84ff06f          	j	10950 <_vfprintf_r+0x5c8>
   116d0:	0b010613          	addi	a2,sp,176
   116d4:	000a0593          	mv	a1,s4
   116d8:	000b8513          	mv	a0,s7
   116dc:	6d1040ef          	jal	165ac <__sprint_r>
   116e0:	00050463          	beqz	a0,116e8 <_vfprintf_r+0x1360>
   116e4:	fb5fe06f          	j	10698 <_vfprintf_r+0x310>
   116e8:	0c013783          	ld	a5,192(sp)
   116ec:	0b812703          	lw	a4,184(sp)
   116f0:	000b0893          	mv	a7,s6
   116f4:	8fdff06f          	j	10ff0 <_vfprintf_r+0xc68>
   116f8:	02d00713          	li	a4,45
   116fc:	08e107a3          	sb	a4,143(sp)
   11700:	40f007b3          	neg	a5,a5
   11704:	4a044063          	bltz	s0,11ba4 <_vfprintf_r+0x181c>
   11708:	f7fc7c13          	andi	s8,s8,-129
   1170c:	02d00613          	li	a2,45
   11710:	9a8ff06f          	j	108b8 <_vfprintf_r+0x530>
   11714:	05813507          	fld	fa0,88(sp)
   11718:	01113023          	sd	a7,0(sp)
   1171c:	1e1040ef          	jal	160fc <__fpclassifyd>
   11720:	00013883          	ld	a7,0(sp)
   11724:	2a050463          	beqz	a0,119cc <_vfprintf_r+0x1644>
   11728:	fff00793          	li	a5,-1
   1172c:	fdfd7d93          	andi	s11,s10,-33
   11730:	62f40c63          	beq	s0,a5,11d68 <_vfprintf_r+0x19e0>
   11734:	04700793          	li	a5,71
   11738:	62fd8263          	beq	s11,a5,11d5c <_vfprintf_r+0x19d4>
   1173c:	05813703          	ld	a4,88(sp)
   11740:	100c6693          	ori	a3,s8,256
   11744:	00d12023          	sw	a3,0(sp)
   11748:	42075793          	srai	a5,a4,0x20
   1174c:	f2070453          	fmv.d.x	fs0,a4
   11750:	00000c93          	li	s9,0
   11754:	6607c663          	bltz	a5,11dc0 <_vfprintf_r+0x1a38>
   11758:	06600793          	li	a5,102
   1175c:	60fd0a63          	beq	s10,a5,11d70 <_vfprintf_r+0x19e8>
   11760:	04600793          	li	a5,70
   11764:	72fd0863          	beq	s10,a5,11e94 <_vfprintf_r+0x1b0c>
   11768:	fbbd859b          	addiw	a1,s11,-69
   1176c:	0015b593          	seqz	a1,a1
   11770:	228405d3          	fmv.d	fa1,fs0
   11774:	00b405bb          	addw	a1,s0,a1
   11778:	09c10793          	addi	a5,sp,156
   1177c:	00058693          	mv	a3,a1
   11780:	0a810813          	addi	a6,sp,168
   11784:	09810713          	addi	a4,sp,152
   11788:	00200613          	li	a2,2
   1178c:	000b8513          	mv	a0,s7
   11790:	01113823          	sd	a7,16(sp)
   11794:	00b13423          	sd	a1,8(sp)
   11798:	745000ef          	jal	126dc <_dtoa_r>
   1179c:	06700793          	li	a5,103
   117a0:	00050913          	mv	s2,a0
   117a4:	00813583          	ld	a1,8(sp)
   117a8:	01013883          	ld	a7,16(sp)
   117ac:	46fd0863          	beq	s10,a5,11c1c <_vfprintf_r+0x1894>
   117b0:	04700793          	li	a5,71
   117b4:	00b50733          	add	a4,a0,a1
   117b8:	48fd0a63          	beq	s10,a5,11c4c <_vfprintf_r+0x18c4>
   117bc:	f20007d3          	fmv.d.x	fa5,zero
   117c0:	00070793          	mv	a5,a4
   117c4:	a2f426d3          	feq.d	a3,fs0,fa5
   117c8:	02069263          	bnez	a3,117ec <_vfprintf_r+0x1464>
   117cc:	0a813783          	ld	a5,168(sp)
   117d0:	00e7fe63          	bleu	a4,a5,117ec <_vfprintf_r+0x1464>
   117d4:	03000613          	li	a2,48
   117d8:	00178693          	addi	a3,a5,1
   117dc:	0ad13423          	sd	a3,168(sp)
   117e0:	00c78023          	sb	a2,0(a5)
   117e4:	0a813783          	ld	a5,168(sp)
   117e8:	fee7e8e3          	bltu	a5,a4,117d8 <_vfprintf_r+0x1450>
   117ec:	412787b3          	sub	a5,a5,s2
   117f0:	06f12823          	sw	a5,112(sp)
   117f4:	04700793          	li	a5,71
   117f8:	46fd8663          	beq	s11,a5,11c64 <_vfprintf_r+0x18dc>
   117fc:	06500793          	li	a5,101
   11800:	7ba7dc63          	ble	s10,a5,11fb8 <_vfprintf_r+0x1c30>
   11804:	06600793          	li	a5,102
   11808:	60fd0263          	beq	s10,a5,11e0c <_vfprintf_r+0x1a84>
   1180c:	09812783          	lw	a5,152(sp)
   11810:	04f12623          	sw	a5,76(sp)
   11814:	04c12703          	lw	a4,76(sp)
   11818:	07012683          	lw	a3,112(sp)
   1181c:	00070793          	mv	a5,a4
   11820:	5ad74663          	blt	a4,a3,11dcc <_vfprintf_r+0x1a44>
   11824:	001c7c13          	andi	s8,s8,1
   11828:	5c0c1463          	bnez	s8,11df0 <_vfprintf_r+0x1a68>
   1182c:	76074863          	bltz	a4,11f9c <_vfprintf_r+0x1c14>
   11830:	04c12703          	lw	a4,76(sp)
   11834:	06700d13          	li	s10,103
   11838:	02e12023          	sw	a4,32(sp)
   1183c:	440c9063          	bnez	s9,11c7c <_vfprintf_r+0x18f4>
   11840:	08f14603          	lbu	a2,143(sp)
   11844:	00f12423          	sw	a5,8(sp)
   11848:	00012c03          	lw	s8,0(sp)
   1184c:	00000413          	li	s0,0
   11850:	f4dfe06f          	j	1079c <_vfprintf_r+0x414>
   11854:	00076783          	lwu	a5,0(a4)
   11858:	00870713          	addi	a4,a4,8
   1185c:	02e13423          	sd	a4,40(sp)
   11860:	974ff06f          	j	109d4 <_vfprintf_r+0x64c>
   11864:	02813703          	ld	a4,40(sp)
   11868:	040c7c13          	andi	s8,s8,64
   1186c:	00073783          	ld	a5,0(a4)
   11870:	00870713          	addi	a4,a4,8
   11874:	02e13423          	sd	a4,40(sp)
   11878:	180c0263          	beqz	s8,119fc <_vfprintf_r+0x1674>
   1187c:	01c15703          	lhu	a4,28(sp)
   11880:	00e79023          	sh	a4,0(a5)
   11884:	c25fe06f          	j	104a8 <_vfprintf_r+0x120>
   11888:	00072783          	lw	a5,0(a4)
   1188c:	00870713          	addi	a4,a4,8
   11890:	02e13423          	sd	a4,40(sp)
   11894:	d24ff06f          	j	10db8 <_vfprintf_r+0xa30>
   11898:	080107a3          	sb	zero,143(sp)
   1189c:	ec044463          	bltz	s0,10f64 <_vfprintf_r+0xbdc>
   118a0:	f7fc7c13          	andi	s8,s8,-129
   118a4:	d41fe06f          	j	105e4 <_vfprintf_r+0x25c>
   118a8:	0b812703          	lw	a4,184(sp)
   118ac:	00913823          	sd	s1,16(sp)
   118b0:	b74ff06f          	j	10c24 <_vfprintf_r+0x89c>
   118b4:	0b010613          	addi	a2,sp,176
   118b8:	000a0593          	mv	a1,s4
   118bc:	000b8513          	mv	a0,s7
   118c0:	4ed040ef          	jal	165ac <__sprint_r>
   118c4:	00050463          	beqz	a0,118cc <_vfprintf_r+0x1544>
   118c8:	dd1fe06f          	j	10698 <_vfprintf_r+0x310>
   118cc:	0c013783          	ld	a5,192(sp)
   118d0:	000b0893          	mv	a7,s6
   118d4:	ff0ff06f          	j	110c4 <_vfprintf_r+0xd3c>
   118d8:	0b812703          	lw	a4,184(sp)
   118dc:	000196b7          	lui	a3,0x19
   118e0:	28068693          	addi	a3,a3,640 # 19280 <zeroes.4137+0x70>
   118e4:	00d8b023          	sd	a3,0(a7)
   118e8:	00178793          	addi	a5,a5,1
   118ec:	00100693          	li	a3,1
   118f0:	0017071b          	addiw	a4,a4,1
   118f4:	00d8b423          	sd	a3,8(a7)
   118f8:	0cf13023          	sd	a5,192(sp)
   118fc:	0ae12c23          	sw	a4,184(sp)
   11900:	00700693          	li	a3,7
   11904:	01088893          	addi	a7,a7,16
   11908:	16e6ca63          	blt	a3,a4,11a7c <_vfprintf_r+0x16f4>
   1190c:	12040663          	beqz	s0,11a38 <_vfprintf_r+0x16b0>
   11910:	06013703          	ld	a4,96(sp)
   11914:	06813683          	ld	a3,104(sp)
   11918:	01088893          	addi	a7,a7,16
   1191c:	fee8b823          	sd	a4,-16(a7)
   11920:	0b812703          	lw	a4,184(sp)
   11924:	00f687b3          	add	a5,a3,a5
   11928:	fed8bc23          	sd	a3,-8(a7)
   1192c:	0017071b          	addiw	a4,a4,1
   11930:	0cf13023          	sd	a5,192(sp)
   11934:	0ae12c23          	sw	a4,184(sp)
   11938:	00700693          	li	a3,7
   1193c:	3ee6ca63          	blt	a3,a4,11d30 <_vfprintf_r+0x19a8>
   11940:	4080043b          	negw	s0,s0
   11944:	20805263          	blez	s0,11b48 <_vfprintf_r+0x17c0>
   11948:	01000693          	li	a3,16
   1194c:	1a86d663          	ble	s0,a3,11af8 <_vfprintf_r+0x1770>
   11950:	01000d13          	li	s10,16
   11954:	00913823          	sd	s1,16(sp)
   11958:	00700813          	li	a6,7
   1195c:	000d0693          	mv	a3,s10
   11960:	00c0006f          	j	1196c <_vfprintf_r+0x15e4>
   11964:	ff04041b          	addiw	s0,s0,-16
   11968:	1886da63          	ble	s0,a3,11afc <_vfprintf_r+0x1774>
   1196c:	01078793          	addi	a5,a5,16
   11970:	0017071b          	addiw	a4,a4,1
   11974:	0098b023          	sd	s1,0(a7)
   11978:	01a8b423          	sd	s10,8(a7)
   1197c:	0cf13023          	sd	a5,192(sp)
   11980:	0ae12c23          	sw	a4,184(sp)
   11984:	01088893          	addi	a7,a7,16
   11988:	fce85ee3          	ble	a4,a6,11964 <_vfprintf_r+0x15dc>
   1198c:	0b010613          	addi	a2,sp,176
   11990:	000a0593          	mv	a1,s4
   11994:	000b8513          	mv	a0,s7
   11998:	02d13023          	sd	a3,32(sp)
   1199c:	01013023          	sd	a6,0(sp)
   119a0:	40d040ef          	jal	165ac <__sprint_r>
   119a4:	00050463          	beqz	a0,119ac <_vfprintf_r+0x1624>
   119a8:	cf1fe06f          	j	10698 <_vfprintf_r+0x310>
   119ac:	0c013783          	ld	a5,192(sp)
   119b0:	0b812703          	lw	a4,184(sp)
   119b4:	000b0893          	mv	a7,s6
   119b8:	02013683          	ld	a3,32(sp)
   119bc:	00013803          	ld	a6,0(sp)
   119c0:	fa5ff06f          	j	11964 <_vfprintf_r+0x15dc>
   119c4:	fff00513          	li	a0,-1
   119c8:	ce5fe06f          	j	106ac <_vfprintf_r+0x324>
   119cc:	04700793          	li	a5,71
   119d0:	27a7c863          	blt	a5,s10,11c40 <_vfprintf_r+0x18b8>
   119d4:	00019937          	lui	s2,0x19
   119d8:	23890913          	addi	s2,s2,568 # 19238 <zeroes.4137+0x28>
   119dc:	00300793          	li	a5,3
   119e0:	00f12423          	sw	a5,8(sp)
   119e4:	f7fc7c13          	andi	s8,s8,-129
   119e8:	08f14603          	lbu	a2,143(sp)
   119ec:	02f12023          	sw	a5,32(sp)
   119f0:	00000413          	li	s0,0
   119f4:	04012623          	sw	zero,76(sp)
   119f8:	da5fe06f          	j	1079c <_vfprintf_r+0x414>
   119fc:	01c12703          	lw	a4,28(sp)
   11a00:	00e7a023          	sw	a4,0(a5)
   11a04:	aa5fe06f          	j	104a8 <_vfprintf_r+0x120>
   11a08:	00019937          	lui	s2,0x19
   11a0c:	22890913          	addi	s2,s2,552 # 19228 <zeroes.4137+0x18>
   11a10:	c34ff06f          	j	10e44 <_vfprintf_r+0xabc>
   11a14:	0b010613          	addi	a2,sp,176
   11a18:	000a0593          	mv	a1,s4
   11a1c:	000b8513          	mv	a0,s7
   11a20:	38d040ef          	jal	165ac <__sprint_r>
   11a24:	00050463          	beqz	a0,11a2c <_vfprintf_r+0x16a4>
   11a28:	c71fe06f          	j	10698 <_vfprintf_r+0x310>
   11a2c:	0c013783          	ld	a5,192(sp)
   11a30:	000b0893          	mv	a7,s6
   11a34:	931ff06f          	j	11364 <_vfprintf_r+0xfdc>
   11a38:	07012703          	lw	a4,112(sp)
   11a3c:	ec071ae3          	bnez	a4,11910 <_vfprintf_r+0x1588>
   11a40:	001c7713          	andi	a4,s8,1
   11a44:	a4070c63          	beqz	a4,10c9c <_vfprintf_r+0x914>
   11a48:	ec9ff06f          	j	11910 <_vfprintf_r+0x1588>
   11a4c:	0b010613          	addi	a2,sp,176
   11a50:	000a0593          	mv	a1,s4
   11a54:	000b8513          	mv	a0,s7
   11a58:	355040ef          	jal	165ac <__sprint_r>
   11a5c:	00050463          	beqz	a0,11a64 <_vfprintf_r+0x16dc>
   11a60:	c39fe06f          	j	10698 <_vfprintf_r+0x310>
   11a64:	09812703          	lw	a4,152(sp)
   11a68:	07012683          	lw	a3,112(sp)
   11a6c:	0c013783          	ld	a5,192(sp)
   11a70:	000b0893          	mv	a7,s6
   11a74:	40e6873b          	subw	a4,a3,a4
   11a78:	b15ff06f          	j	1158c <_vfprintf_r+0x1204>
   11a7c:	0b010613          	addi	a2,sp,176
   11a80:	000a0593          	mv	a1,s4
   11a84:	000b8513          	mv	a0,s7
   11a88:	325040ef          	jal	165ac <__sprint_r>
   11a8c:	00050463          	beqz	a0,11a94 <_vfprintf_r+0x170c>
   11a90:	c09fe06f          	j	10698 <_vfprintf_r+0x310>
   11a94:	09812403          	lw	s0,152(sp)
   11a98:	0c013783          	ld	a5,192(sp)
   11a9c:	000b0893          	mv	a7,s6
   11aa0:	e60418e3          	bnez	s0,11910 <_vfprintf_r+0x1588>
   11aa4:	f95ff06f          	j	11a38 <_vfprintf_r+0x16b0>
   11aa8:	001c7793          	andi	a5,s8,1
   11aac:	00078e63          	beqz	a5,11ac8 <_vfprintf_r+0x1740>
   11ab0:	03000793          	li	a5,48
   11ab4:	0ef107a3          	sb	a5,239(sp)
   11ab8:	07813783          	ld	a5,120(sp)
   11abc:	0ef10913          	addi	s2,sp,239
   11ac0:	02f12023          	sw	a5,32(sp)
   11ac4:	cc1fe06f          	j	10784 <_vfprintf_r+0x3fc>
   11ac8:	02012023          	sw	zero,32(sp)
   11acc:	000b0913          	mv	s2,s6
   11ad0:	cb5fe06f          	j	10784 <_vfprintf_r+0x3fc>
   11ad4:	0b010613          	addi	a2,sp,176
   11ad8:	000a0593          	mv	a1,s4
   11adc:	000b8513          	mv	a0,s7
   11ae0:	2cd040ef          	jal	165ac <__sprint_r>
   11ae4:	00050463          	beqz	a0,11aec <_vfprintf_r+0x1764>
   11ae8:	bb1fe06f          	j	10698 <_vfprintf_r+0x310>
   11aec:	0c013783          	ld	a5,192(sp)
   11af0:	000b0893          	mv	a7,s6
   11af4:	e14ff06f          	j	11108 <_vfprintf_r+0xd80>
   11af8:	00913823          	sd	s1,16(sp)
   11afc:	01013683          	ld	a3,16(sp)
   11b00:	008787b3          	add	a5,a5,s0
   11b04:	0017071b          	addiw	a4,a4,1
   11b08:	00d8b023          	sd	a3,0(a7)
   11b0c:	0088b423          	sd	s0,8(a7)
   11b10:	0cf13023          	sd	a5,192(sp)
   11b14:	0ae12c23          	sw	a4,184(sp)
   11b18:	00700693          	li	a3,7
   11b1c:	01088893          	addi	a7,a7,16
   11b20:	02e6d463          	ble	a4,a3,11b48 <_vfprintf_r+0x17c0>
   11b24:	0b010613          	addi	a2,sp,176
   11b28:	000a0593          	mv	a1,s4
   11b2c:	000b8513          	mv	a0,s7
   11b30:	27d040ef          	jal	165ac <__sprint_r>
   11b34:	00050463          	beqz	a0,11b3c <_vfprintf_r+0x17b4>
   11b38:	b61fe06f          	j	10698 <_vfprintf_r+0x310>
   11b3c:	0c013783          	ld	a5,192(sp)
   11b40:	0b812703          	lw	a4,184(sp)
   11b44:	000b0893          	mv	a7,s6
   11b48:	07012683          	lw	a3,112(sp)
   11b4c:	0017071b          	addiw	a4,a4,1
   11b50:	0128b023          	sd	s2,0(a7)
   11b54:	00f687b3          	add	a5,a3,a5
   11b58:	cecff06f          	j	11044 <_vfprintf_r+0xcbc>
   11b5c:	00090513          	mv	a0,s2
   11b60:	091040ef          	jal	163f0 <strlen>
   11b64:	0005079b          	sext.w	a5,a0
   11b68:	02f12023          	sw	a5,32(sp)
   11b6c:	00078d93          	mv	s11,a5
   11b70:	00013883          	ld	a7,0(sp)
   11b74:	0007c463          	bltz	a5,11b7c <_vfprintf_r+0x17f4>
   11b78:	cf5fe06f          	j	1086c <_vfprintf_r+0x4e4>
   11b7c:	00000d93          	li	s11,0
   11b80:	cedfe06f          	j	1086c <_vfprintf_r+0x4e4>
   11b84:	0c013783          	ld	a5,192(sp)
   11b88:	0b812703          	lw	a4,184(sp)
   11b8c:	05513823          	sd	s5,80(sp)
   11b90:	f6dfe06f          	j	10afc <_vfprintf_r+0x774>
   11b94:	00000413          	li	s0,0
   11b98:	fd0ff06f          	j	11368 <_vfprintf_r+0xfe0>
   11b9c:	00000413          	li	s0,0
   11ba0:	9f1ff06f          	j	11590 <_vfprintf_r+0x1208>
   11ba4:	02d00613          	li	a2,45
   11ba8:	00100713          	li	a4,1
   11bac:	00100693          	li	a3,1
   11bb0:	00d71463          	bne	a4,a3,11bb8 <_vfprintf_r+0x1830>
   11bb4:	d05fe06f          	j	108b8 <_vfprintf_r+0x530>
   11bb8:	00200693          	li	a3,2
   11bbc:	00d71463          	bne	a4,a3,11bc4 <_vfprintf_r+0x183c>
   11bc0:	a31fe06f          	j	105f0 <_vfprintf_r+0x268>
   11bc4:	b81fe06f          	j	10744 <_vfprintf_r+0x3bc>
   11bc8:	00600713          	li	a4,6
   11bcc:	00877463          	bleu	s0,a4,11bd4 <_vfprintf_r+0x184c>
   11bd0:	00070413          	mv	s0,a4
   11bd4:	02812023          	sw	s0,32(sp)
   11bd8:	00040d93          	mv	s11,s0
   11bdc:	32044a63          	bltz	s0,11f10 <_vfprintf_r+0x1b88>
   11be0:	00019937          	lui	s2,0x19
   11be4:	01b12423          	sw	s11,8(sp)
   11be8:	03913423          	sd	s9,40(sp)
   11bec:	00000613          	li	a2,0
   11bf0:	00000413          	li	s0,0
   11bf4:	04012623          	sw	zero,76(sp)
   11bf8:	27890913          	addi	s2,s2,632 # 19278 <zeroes.4137+0x68>
   11bfc:	e45fe06f          	j	10a40 <_vfprintf_r+0x6b8>
   11c00:	0b812703          	lw	a4,184(sp)
   11c04:	05513823          	sd	s5,80(sp)
   11c08:	91cff06f          	j	10d24 <_vfprintf_r+0x99c>
   11c0c:	00070c13          	mv	s8,a4
   11c10:	00000613          	li	a2,0
   11c14:	00200713          	li	a4,2
   11c18:	f95ff06f          	j	11bac <_vfprintf_r+0x1824>
   11c1c:	001c7793          	andi	a5,s8,1
   11c20:	00b50733          	add	a4,a0,a1
   11c24:	b8079ce3          	bnez	a5,117bc <_vfprintf_r+0x1434>
   11c28:	0a813783          	ld	a5,168(sp)
   11c2c:	bc1ff06f          	j	117ec <_vfprintf_r+0x1464>
   11c30:	02d00793          	li	a5,45
   11c34:	08f107a3          	sb	a5,143(sp)
   11c38:	02d00613          	li	a2,45
   11c3c:	9f8ff06f          	j	10e34 <_vfprintf_r+0xaac>
   11c40:	00019937          	lui	s2,0x19
   11c44:	24090913          	addi	s2,s2,576 # 19240 <zeroes.4137+0x30>
   11c48:	d95ff06f          	j	119dc <_vfprintf_r+0x1654>
   11c4c:	001c7793          	andi	a5,s8,1
   11c50:	26079a63          	bnez	a5,11ec4 <_vfprintf_r+0x1b3c>
   11c54:	0a813783          	ld	a5,168(sp)
   11c58:	412787b3          	sub	a5,a5,s2
   11c5c:	06f12823          	sw	a5,112(sp)
   11c60:	35ad9c63          	bne	s11,s10,11fb8 <_vfprintf_r+0x1c30>
   11c64:	09812783          	lw	a5,152(sp)
   11c68:	ffd00713          	li	a4,-3
   11c6c:	02e7cc63          	blt	a5,a4,11ca4 <_vfprintf_r+0x191c>
   11c70:	02f44a63          	blt	s0,a5,11ca4 <_vfprintf_r+0x191c>
   11c74:	04f12623          	sw	a5,76(sp)
   11c78:	b9dff06f          	j	11814 <_vfprintf_r+0x148c>
   11c7c:	02d00713          	li	a4,45
   11c80:	08e107a3          	sb	a4,143(sp)
   11c84:	00f12423          	sw	a5,8(sp)
   11c88:	00012c03          	lw	s8,0(sp)
   11c8c:	02d00613          	li	a2,45
   11c90:	00000413          	li	s0,0
   11c94:	b0dfe06f          	j	107a0 <_vfprintf_r+0x418>
   11c98:	0b812703          	lw	a4,184(sp)
   11c9c:	00913823          	sd	s1,16(sp)
   11ca0:	d78ff06f          	j	11218 <_vfprintf_r+0xe90>
   11ca4:	ffed0d1b          	addiw	s10,s10,-2
   11ca8:	fff7879b          	addiw	a5,a5,-1
   11cac:	08f12c23          	sw	a5,152(sp)
   11cb0:	0ba10023          	sb	s10,160(sp)
   11cb4:	2c07c863          	bltz	a5,11f84 <_vfprintf_r+0x1bfc>
   11cb8:	02b00713          	li	a4,43
   11cbc:	0ae100a3          	sb	a4,161(sp)
   11cc0:	00900613          	li	a2,9
   11cc4:	16f64463          	blt	a2,a5,11e2c <_vfprintf_r+0x1aa4>
   11cc8:	0307879b          	addiw	a5,a5,48
   11ccc:	03000713          	li	a4,48
   11cd0:	0af101a3          	sb	a5,163(sp)
   11cd4:	0ae10123          	sb	a4,162(sp)
   11cd8:	0a410793          	addi	a5,sp,164
   11cdc:	0a010713          	addi	a4,sp,160
   11ce0:	40e787bb          	subw	a5,a5,a4
   11ce4:	07012703          	lw	a4,112(sp)
   11ce8:	06f12a23          	sw	a5,116(sp)
   11cec:	00e787bb          	addw	a5,a5,a4
   11cf0:	02f12023          	sw	a5,32(sp)
   11cf4:	00100793          	li	a5,1
   11cf8:	26e7d263          	ble	a4,a5,11f5c <_vfprintf_r+0x1bd4>
   11cfc:	02012783          	lw	a5,32(sp)
   11d00:	0017879b          	addiw	a5,a5,1
   11d04:	02f12023          	sw	a5,32(sp)
   11d08:	2607c463          	bltz	a5,11f70 <_vfprintf_r+0x1be8>
   11d0c:	04012623          	sw	zero,76(sp)
   11d10:	b2dff06f          	j	1183c <_vfprintf_r+0x14b4>
   11d14:	00812423          	sw	s0,8(sp)
   11d18:	02812023          	sw	s0,32(sp)
   11d1c:	08f14603          	lbu	a2,143(sp)
   11d20:	03913423          	sd	s9,40(sp)
   11d24:	00000413          	li	s0,0
   11d28:	04012623          	sw	zero,76(sp)
   11d2c:	a71fe06f          	j	1079c <_vfprintf_r+0x414>
   11d30:	0b010613          	addi	a2,sp,176
   11d34:	000a0593          	mv	a1,s4
   11d38:	000b8513          	mv	a0,s7
   11d3c:	071040ef          	jal	165ac <__sprint_r>
   11d40:	00050463          	beqz	a0,11d48 <_vfprintf_r+0x19c0>
   11d44:	955fe06f          	j	10698 <_vfprintf_r+0x310>
   11d48:	09812403          	lw	s0,152(sp)
   11d4c:	0c013783          	ld	a5,192(sp)
   11d50:	0b812703          	lw	a4,184(sp)
   11d54:	000b0893          	mv	a7,s6
   11d58:	be9ff06f          	j	11940 <_vfprintf_r+0x15b8>
   11d5c:	9e0410e3          	bnez	s0,1173c <_vfprintf_r+0x13b4>
   11d60:	00090413          	mv	s0,s2
   11d64:	9d9ff06f          	j	1173c <_vfprintf_r+0x13b4>
   11d68:	00600413          	li	s0,6
   11d6c:	9d1ff06f          	j	1173c <_vfprintf_r+0x13b4>
   11d70:	228405d3          	fmv.d	fa1,fs0
   11d74:	09810713          	addi	a4,sp,152
   11d78:	0a810813          	addi	a6,sp,168
   11d7c:	09c10793          	addi	a5,sp,156
   11d80:	00040693          	mv	a3,s0
   11d84:	00300613          	li	a2,3
   11d88:	000b8513          	mv	a0,s7
   11d8c:	01113423          	sd	a7,8(sp)
   11d90:	14d000ef          	jal	126dc <_dtoa_r>
   11d94:	00813883          	ld	a7,8(sp)
   11d98:	00040713          	mv	a4,s0
   11d9c:	00050913          	mv	s2,a0
   11da0:	00e50733          	add	a4,a0,a4
   11da4:	00040593          	mv	a1,s0
   11da8:	00094683          	lbu	a3,0(s2)
   11dac:	03000793          	li	a5,48
   11db0:	14f68063          	beq	a3,a5,11ef0 <_vfprintf_r+0x1b68>
   11db4:	09812583          	lw	a1,152(sp)
   11db8:	00b70733          	add	a4,a4,a1
   11dbc:	a01ff06f          	j	117bc <_vfprintf_r+0x1434>
   11dc0:	22841453          	fneg.d	fs0,fs0
   11dc4:	02d00c93          	li	s9,45
   11dc8:	991ff06f          	j	11758 <_vfprintf_r+0x13d0>
   11dcc:	04c12703          	lw	a4,76(sp)
   11dd0:	00100793          	li	a5,1
   11dd4:	1ae05263          	blez	a4,11f78 <_vfprintf_r+0x1bf0>
   11dd8:	07012703          	lw	a4,112(sp)
   11ddc:	00e787bb          	addw	a5,a5,a4
   11de0:	02f12023          	sw	a5,32(sp)
   11de4:	0007ce63          	bltz	a5,11e00 <_vfprintf_r+0x1a78>
   11de8:	06700d13          	li	s10,103
   11dec:	a51ff06f          	j	1183c <_vfprintf_r+0x14b4>
   11df0:	04c12783          	lw	a5,76(sp)
   11df4:	0017879b          	addiw	a5,a5,1
   11df8:	02f12023          	sw	a5,32(sp)
   11dfc:	fe07d6e3          	bgez	a5,11de8 <_vfprintf_r+0x1a60>
   11e00:	00000793          	li	a5,0
   11e04:	06700d13          	li	s10,103
   11e08:	a35ff06f          	j	1183c <_vfprintf_r+0x14b4>
   11e0c:	09812783          	lw	a5,152(sp)
   11e10:	04f12623          	sw	a5,76(sp)
   11e14:	12f05263          	blez	a5,11f38 <_vfprintf_r+0x1bb0>
   11e18:	0a041e63          	bnez	s0,11ed4 <_vfprintf_r+0x1b4c>
   11e1c:	001c7c13          	andi	s8,s8,1
   11e20:	0a0c1a63          	bnez	s8,11ed4 <_vfprintf_r+0x1b4c>
   11e24:	02f12023          	sw	a5,32(sp)
   11e28:	a15ff06f          	j	1183c <_vfprintf_r+0x14b4>
   11e2c:	0af10593          	addi	a1,sp,175
   11e30:	00058713          	mv	a4,a1
   11e34:	00a00513          	li	a0,10
   11e38:	02a7e6bb          	remw	a3,a5,a0
   11e3c:	fff70713          	addi	a4,a4,-1
   11e40:	02a7c7bb          	divw	a5,a5,a0
   11e44:	0306869b          	addiw	a3,a3,48
   11e48:	00d70023          	sb	a3,0(a4)
   11e4c:	fef646e3          	blt	a2,a5,11e38 <_vfprintf_r+0x1ab0>
   11e50:	0307879b          	addiw	a5,a5,48
   11e54:	0ff7f793          	andi	a5,a5,255
   11e58:	fff70693          	addi	a3,a4,-1
   11e5c:	fef70fa3          	sb	a5,-1(a4)
   11e60:	16b6f863          	bleu	a1,a3,11fd0 <_vfprintf_r+0x1c48>
   11e64:	0a210613          	addi	a2,sp,162
   11e68:	0080006f          	j	11e70 <_vfprintf_r+0x1ae8>
   11e6c:	0006c783          	lbu	a5,0(a3)
   11e70:	00160613          	addi	a2,a2,1
   11e74:	00168693          	addi	a3,a3,1
   11e78:	fef60fa3          	sb	a5,-1(a2)
   11e7c:	feb698e3          	bne	a3,a1,11e6c <_vfprintf_r+0x1ae4>
   11e80:	0b010793          	addi	a5,sp,176
   11e84:	40e787b3          	sub	a5,a5,a4
   11e88:	0a210713          	addi	a4,sp,162
   11e8c:	00f707b3          	add	a5,a4,a5
   11e90:	e4dff06f          	j	11cdc <_vfprintf_r+0x1954>
   11e94:	228405d3          	fmv.d	fa1,fs0
   11e98:	0a810813          	addi	a6,sp,168
   11e9c:	09c10793          	addi	a5,sp,156
   11ea0:	09810713          	addi	a4,sp,152
   11ea4:	00040693          	mv	a3,s0
   11ea8:	00300613          	li	a2,3
   11eac:	000b8513          	mv	a0,s7
   11eb0:	01113423          	sd	a7,8(sp)
   11eb4:	029000ef          	jal	126dc <_dtoa_r>
   11eb8:	00813883          	ld	a7,8(sp)
   11ebc:	00050913          	mv	s2,a0
   11ec0:	00040593          	mv	a1,s0
   11ec4:	04600793          	li	a5,70
   11ec8:	00b90733          	add	a4,s2,a1
   11ecc:	ecfd0ee3          	beq	s10,a5,11da8 <_vfprintf_r+0x1a20>
   11ed0:	8edff06f          	j	117bc <_vfprintf_r+0x1434>
   11ed4:	04c12783          	lw	a5,76(sp)
   11ed8:	0014041b          	addiw	s0,s0,1
   11edc:	008787bb          	addw	a5,a5,s0
   11ee0:	02f12023          	sw	a5,32(sp)
   11ee4:	9407dce3          	bgez	a5,1183c <_vfprintf_r+0x14b4>
   11ee8:	00000793          	li	a5,0
   11eec:	951ff06f          	j	1183c <_vfprintf_r+0x14b4>
   11ef0:	f20007d3          	fmv.d.x	fa5,zero
   11ef4:	a2f427d3          	feq.d	a5,fs0,fa5
   11ef8:	ea079ee3          	bnez	a5,11db4 <_vfprintf_r+0x1a2c>
   11efc:	00100793          	li	a5,1
   11f00:	40b785bb          	subw	a1,a5,a1
   11f04:	08b12c23          	sw	a1,152(sp)
   11f08:	00b70733          	add	a4,a4,a1
   11f0c:	8b1ff06f          	j	117bc <_vfprintf_r+0x1434>
   11f10:	00000d93          	li	s11,0
   11f14:	ccdff06f          	j	11be0 <_vfprintf_r+0x1858>
   11f18:	02813783          	ld	a5,40(sp)
   11f1c:	0007a403          	lw	s0,0(a5)
   11f20:	00878793          	addi	a5,a5,8
   11f24:	02f13423          	sd	a5,40(sp)
   11f28:	00044463          	bltz	s0,11f30 <_vfprintf_r+0x1ba8>
   11f2c:	e18fe06f          	j	10544 <_vfprintf_r+0x1bc>
   11f30:	fff00413          	li	s0,-1
   11f34:	e10fe06f          	j	10544 <_vfprintf_r+0x1bc>
   11f38:	00041a63          	bnez	s0,11f4c <_vfprintf_r+0x1bc4>
   11f3c:	00100793          	li	a5,1
   11f40:	00fc7c33          	and	s8,s8,a5
   11f44:	02f12023          	sw	a5,32(sp)
   11f48:	8e0c0ae3          	beqz	s8,1183c <_vfprintf_r+0x14b4>
   11f4c:	0024079b          	addiw	a5,s0,2
   11f50:	02f12023          	sw	a5,32(sp)
   11f54:	8e07d4e3          	bgez	a5,1183c <_vfprintf_r+0x14b4>
   11f58:	f91ff06f          	j	11ee8 <_vfprintf_r+0x1b60>
   11f5c:	00fc7c33          	and	s8,s8,a5
   11f60:	d80c1ee3          	bnez	s8,11cfc <_vfprintf_r+0x1974>
   11f64:	02012703          	lw	a4,32(sp)
   11f68:	00070793          	mv	a5,a4
   11f6c:	da0750e3          	bgez	a4,11d0c <_vfprintf_r+0x1984>
   11f70:	00000793          	li	a5,0
   11f74:	d99ff06f          	j	11d0c <_vfprintf_r+0x1984>
   11f78:	00200793          	li	a5,2
   11f7c:	40e787bb          	subw	a5,a5,a4
   11f80:	e59ff06f          	j	11dd8 <_vfprintf_r+0x1a50>
   11f84:	02d00713          	li	a4,45
   11f88:	40f007bb          	negw	a5,a5
   11f8c:	0ae100a3          	sb	a4,161(sp)
   11f90:	d31ff06f          	j	11cc0 <_vfprintf_r+0x1938>
   11f94:	08b107a3          	sb	a1,143(sp)
   11f98:	ed9fe06f          	j	10e70 <_vfprintf_r+0xae8>
   11f9c:	00000793          	li	a5,0
   11fa0:	891ff06f          	j	11830 <_vfprintf_r+0x14a8>
   11fa4:	08b107a3          	sb	a1,143(sp)
   11fa8:	010c6c13          	ori	s8,s8,16
   11fac:	f2dfe06f          	j	10ed8 <_vfprintf_r+0xb50>
   11fb0:	08b107a3          	sb	a1,143(sp)
   11fb4:	ef5fe06f          	j	10ea8 <_vfprintf_r+0xb20>
   11fb8:	09812783          	lw	a5,152(sp)
   11fbc:	cedff06f          	j	11ca8 <_vfprintf_r+0x1920>
   11fc0:	08b107a3          	sb	a1,143(sp)
   11fc4:	e2dfe06f          	j	10df0 <_vfprintf_r+0xa68>
   11fc8:	08b107a3          	sb	a1,143(sp)
   11fcc:	dd5fe06f          	j	10da0 <_vfprintf_r+0xa18>
   11fd0:	0a210793          	addi	a5,sp,162
   11fd4:	d09ff06f          	j	11cdc <_vfprintf_r+0x1954>
   11fd8:	08b107a3          	sb	a1,143(sp)
   11fdc:	f41fe06f          	j	10f1c <_vfprintf_r+0xb94>
   11fe0:	08b107a3          	sb	a1,143(sp)
   11fe4:	f28fe06f          	j	1070c <_vfprintf_r+0x384>
   11fe8:	08b107a3          	sb	a1,143(sp)
   11fec:	9c5fe06f          	j	109b0 <_vfprintf_r+0x628>
   11ff0:	08b107a3          	sb	a1,143(sp)
   11ff4:	010c6c13          	ori	s8,s8,16
   11ff8:	979fe06f          	j	10970 <_vfprintf_r+0x5e8>
   11ffc:	08b107a3          	sb	a1,143(sp)
   12000:	010c6c13          	ori	s8,s8,16
   12004:	929fe06f          	j	1092c <_vfprintf_r+0x5a4>
   12008:	08b107a3          	sb	a1,143(sp)
   1200c:	881fe06f          	j	1088c <_vfprintf_r+0x504>

0000000000012010 <vfprintf>:
   12010:	00060693          	mv	a3,a2
   12014:	00058613          	mv	a2,a1
   12018:	00050593          	mv	a1,a0
   1201c:	8101b503          	ld	a0,-2032(gp) # 1b320 <_impure_ptr>
   12020:	b68fe06f          	j	10388 <_vfprintf_r>

0000000000012024 <__sbprintf>:
   12024:	0105d783          	lhu	a5,16(a1)
   12028:	0ac5ae03          	lw	t3,172(a1)
   1202c:	0125d303          	lhu	t1,18(a1)
   12030:	0305b883          	ld	a7,48(a1)
   12034:	0405b803          	ld	a6,64(a1)
   12038:	b3010113          	addi	sp,sp,-1232
   1203c:	ffd7f793          	andi	a5,a5,-3
   12040:	40000713          	li	a4,1024
   12044:	4c813023          	sd	s0,1216(sp)
   12048:	00f11823          	sh	a5,16(sp)
   1204c:	00058413          	mv	s0,a1
   12050:	0b010793          	addi	a5,sp,176
   12054:	00010593          	mv	a1,sp
   12058:	4a913c23          	sd	s1,1208(sp)
   1205c:	4b213823          	sd	s2,1200(sp)
   12060:	4c113423          	sd	ra,1224(sp)
   12064:	00050913          	mv	s2,a0
   12068:	0bc12623          	sw	t3,172(sp)
   1206c:	00611923          	sh	t1,18(sp)
   12070:	03113823          	sd	a7,48(sp)
   12074:	05013023          	sd	a6,64(sp)
   12078:	00f13023          	sd	a5,0(sp)
   1207c:	00f13c23          	sd	a5,24(sp)
   12080:	00e12623          	sw	a4,12(sp)
   12084:	02e12023          	sw	a4,32(sp)
   12088:	02012423          	sw	zero,40(sp)
   1208c:	afcfe0ef          	jal	10388 <_vfprintf_r>
   12090:	00050493          	mv	s1,a0
   12094:	00054a63          	bltz	a0,120a8 <__sbprintf+0x84>
   12098:	00010593          	mv	a1,sp
   1209c:	00090513          	mv	a0,s2
   120a0:	1a5010ef          	jal	13a44 <_fflush_r>
   120a4:	02051c63          	bnez	a0,120dc <__sbprintf+0xb8>
   120a8:	01015783          	lhu	a5,16(sp)
   120ac:	0407f793          	andi	a5,a5,64
   120b0:	00078863          	beqz	a5,120c0 <__sbprintf+0x9c>
   120b4:	01045783          	lhu	a5,16(s0)
   120b8:	0407e793          	ori	a5,a5,64
   120bc:	00f41823          	sh	a5,16(s0)
   120c0:	4c813083          	ld	ra,1224(sp)
   120c4:	00048513          	mv	a0,s1
   120c8:	4c013403          	ld	s0,1216(sp)
   120cc:	4b813483          	ld	s1,1208(sp)
   120d0:	4b013903          	ld	s2,1200(sp)
   120d4:	4d010113          	addi	sp,sp,1232
   120d8:	00008067          	ret
   120dc:	fff00493          	li	s1,-1
   120e0:	fc9ff06f          	j	120a8 <__sbprintf+0x84>

00000000000120e4 <__swsetup_r>:
   120e4:	8101b783          	ld	a5,-2032(gp) # 1b320 <_impure_ptr>
   120e8:	fe010113          	addi	sp,sp,-32
   120ec:	00813823          	sd	s0,16(sp)
   120f0:	00913423          	sd	s1,8(sp)
   120f4:	00113c23          	sd	ra,24(sp)
   120f8:	00050493          	mv	s1,a0
   120fc:	00058413          	mv	s0,a1
   12100:	00078663          	beqz	a5,1210c <__swsetup_r+0x28>
   12104:	0507a703          	lw	a4,80(a5)
   12108:	0e070063          	beqz	a4,121e8 <__swsetup_r+0x104>
   1210c:	01041703          	lh	a4,16(s0)
   12110:	03071793          	slli	a5,a4,0x30
   12114:	0307d793          	srli	a5,a5,0x30
   12118:	0087f693          	andi	a3,a5,8
   1211c:	04068263          	beqz	a3,12160 <__swsetup_r+0x7c>
   12120:	01843683          	ld	a3,24(s0)
   12124:	06068663          	beqz	a3,12190 <__swsetup_r+0xac>
   12128:	0017f713          	andi	a4,a5,1
   1212c:	08071463          	bnez	a4,121b4 <__swsetup_r+0xd0>
   12130:	0027f793          	andi	a5,a5,2
   12134:	00000713          	li	a4,0
   12138:	00079463          	bnez	a5,12140 <__swsetup_r+0x5c>
   1213c:	02042703          	lw	a4,32(s0)
   12140:	00e42623          	sw	a4,12(s0)
   12144:	00000513          	li	a0,0
   12148:	08068263          	beqz	a3,121cc <__swsetup_r+0xe8>
   1214c:	01813083          	ld	ra,24(sp)
   12150:	01013403          	ld	s0,16(sp)
   12154:	00813483          	ld	s1,8(sp)
   12158:	02010113          	addi	sp,sp,32
   1215c:	00008067          	ret
   12160:	0107f693          	andi	a3,a5,16
   12164:	0c068663          	beqz	a3,12230 <__swsetup_r+0x14c>
   12168:	0047f793          	andi	a5,a5,4
   1216c:	08079463          	bnez	a5,121f4 <__swsetup_r+0x110>
   12170:	01843683          	ld	a3,24(s0)
   12174:	00876793          	ori	a5,a4,8
   12178:	0107979b          	slliw	a5,a5,0x10
   1217c:	4107d79b          	sraiw	a5,a5,0x10
   12180:	00f41823          	sh	a5,16(s0)
   12184:	03079793          	slli	a5,a5,0x30
   12188:	0307d793          	srli	a5,a5,0x30
   1218c:	f8069ee3          	bnez	a3,12128 <__swsetup_r+0x44>
   12190:	2807f713          	andi	a4,a5,640
   12194:	20000613          	li	a2,512
   12198:	f8c708e3          	beq	a4,a2,12128 <__swsetup_r+0x44>
   1219c:	00040593          	mv	a1,s0
   121a0:	00048513          	mv	a0,s1
   121a4:	2ec020ef          	jal	14490 <__smakebuf_r>
   121a8:	01045783          	lhu	a5,16(s0)
   121ac:	01843683          	ld	a3,24(s0)
   121b0:	f79ff06f          	j	12128 <__swsetup_r+0x44>
   121b4:	02042783          	lw	a5,32(s0)
   121b8:	00042623          	sw	zero,12(s0)
   121bc:	00000513          	li	a0,0
   121c0:	40f007bb          	negw	a5,a5
   121c4:	02f42423          	sw	a5,40(s0)
   121c8:	f80692e3          	bnez	a3,1214c <__swsetup_r+0x68>
   121cc:	01041783          	lh	a5,16(s0)
   121d0:	0807f713          	andi	a4,a5,128
   121d4:	f6070ce3          	beqz	a4,1214c <__swsetup_r+0x68>
   121d8:	0407e793          	ori	a5,a5,64
   121dc:	00f41823          	sh	a5,16(s0)
   121e0:	fff00513          	li	a0,-1
   121e4:	f69ff06f          	j	1214c <__swsetup_r+0x68>
   121e8:	00078513          	mv	a0,a5
   121ec:	405010ef          	jal	13df0 <__sinit>
   121f0:	f1dff06f          	j	1210c <__swsetup_r+0x28>
   121f4:	05843583          	ld	a1,88(s0)
   121f8:	00058e63          	beqz	a1,12214 <__swsetup_r+0x130>
   121fc:	07440793          	addi	a5,s0,116
   12200:	00f58863          	beq	a1,a5,12210 <__swsetup_r+0x12c>
   12204:	00048513          	mv	a0,s1
   12208:	541010ef          	jal	13f48 <_free_r>
   1220c:	01041703          	lh	a4,16(s0)
   12210:	04043c23          	sd	zero,88(s0)
   12214:	01843683          	ld	a3,24(s0)
   12218:	fdb77713          	andi	a4,a4,-37
   1221c:	0107171b          	slliw	a4,a4,0x10
   12220:	4107571b          	sraiw	a4,a4,0x10
   12224:	00042423          	sw	zero,8(s0)
   12228:	00d43023          	sd	a3,0(s0)
   1222c:	f49ff06f          	j	12174 <__swsetup_r+0x90>
   12230:	00900793          	li	a5,9
   12234:	00f4a023          	sw	a5,0(s1)
   12238:	04076713          	ori	a4,a4,64
   1223c:	00e41823          	sh	a4,16(s0)
   12240:	fff00513          	li	a0,-1
   12244:	f09ff06f          	j	1214c <__swsetup_r+0x68>

0000000000012248 <__register_exitproc>:
   12248:	fd010113          	addi	sp,sp,-48
   1224c:	02813023          	sd	s0,32(sp)
   12250:	8081b403          	ld	s0,-2040(gp) # 1b318 <_global_impure_ptr>
   12254:	00913c23          	sd	s1,24(sp)
   12258:	00050493          	mv	s1,a0
   1225c:	1f843503          	ld	a0,504(s0)
   12260:	01213823          	sd	s2,16(sp)
   12264:	01313423          	sd	s3,8(sp)
   12268:	01413023          	sd	s4,0(sp)
   1226c:	02113423          	sd	ra,40(sp)
   12270:	00058913          	mv	s2,a1
   12274:	00060a13          	mv	s4,a2
   12278:	00068993          	mv	s3,a3
   1227c:	0c050663          	beqz	a0,12348 <__register_exitproc+0x100>
   12280:	00852703          	lw	a4,8(a0)
   12284:	01f00793          	li	a5,31
   12288:	0017059b          	addiw	a1,a4,1
   1228c:	04e7d063          	ble	a4,a5,122cc <__register_exitproc+0x84>
   12290:	000007b7          	lui	a5,0x0
   12294:	00078793          	mv	a5,a5
   12298:	0a078e63          	beqz	a5,12354 <__register_exitproc+0x10c>
   1229c:	31800513          	li	a0,792
   122a0:	fffee317          	auipc	t1,0xfffee
   122a4:	d60300e7          	jalr	t1,-672 # 0 <_ftext-0x10000>
   122a8:	0a050663          	beqz	a0,12354 <__register_exitproc+0x10c>
   122ac:	1f843783          	ld	a5,504(s0)
   122b0:	00052423          	sw	zero,8(a0)
   122b4:	00100593          	li	a1,1
   122b8:	00f53023          	sd	a5,0(a0)
   122bc:	1ea43c23          	sd	a0,504(s0)
   122c0:	30052823          	sw	zero,784(a0)
   122c4:	30052a23          	sw	zero,788(a0)
   122c8:	00000713          	li	a4,0
   122cc:	00070793          	mv	a5,a4
   122d0:	02049e63          	bnez	s1,1230c <__register_exitproc+0xc4>
   122d4:	00278793          	addi	a5,a5,2 # 2 <_ftext-0xfffe>
   122d8:	00379793          	slli	a5,a5,0x3
   122dc:	00b52423          	sw	a1,8(a0)
   122e0:	00f50533          	add	a0,a0,a5
   122e4:	01253023          	sd	s2,0(a0)
   122e8:	00000513          	li	a0,0
   122ec:	02813083          	ld	ra,40(sp)
   122f0:	02013403          	ld	s0,32(sp)
   122f4:	01813483          	ld	s1,24(sp)
   122f8:	01013903          	ld	s2,16(sp)
   122fc:	00813983          	ld	s3,8(sp)
   12300:	00013a03          	ld	s4,0(sp)
   12304:	03010113          	addi	sp,sp,48
   12308:	00008067          	ret
   1230c:	00371813          	slli	a6,a4,0x3
   12310:	01050833          	add	a6,a0,a6
   12314:	11483823          	sd	s4,272(a6)
   12318:	31052883          	lw	a7,784(a0)
   1231c:	00100613          	li	a2,1
   12320:	00e6173b          	sllw	a4,a2,a4
   12324:	00e8e633          	or	a2,a7,a4
   12328:	30c52823          	sw	a2,784(a0)
   1232c:	21383823          	sd	s3,528(a6)
   12330:	00200693          	li	a3,2
   12334:	fad490e3          	bne	s1,a3,122d4 <__register_exitproc+0x8c>
   12338:	31452683          	lw	a3,788(a0)
   1233c:	00e6e733          	or	a4,a3,a4
   12340:	30e52a23          	sw	a4,788(a0)
   12344:	f91ff06f          	j	122d4 <__register_exitproc+0x8c>
   12348:	20040513          	addi	a0,s0,512
   1234c:	1ea43c23          	sd	a0,504(s0)
   12350:	f31ff06f          	j	12280 <__register_exitproc+0x38>
   12354:	fff00513          	li	a0,-1
   12358:	f95ff06f          	j	122ec <__register_exitproc+0xa4>

000000000001235c <__call_exitprocs>:
   1235c:	fa010113          	addi	sp,sp,-96
   12360:	03413823          	sd	s4,48(sp)
   12364:	8081ba03          	ld	s4,-2040(gp) # 1b318 <_global_impure_ptr>
   12368:	03313c23          	sd	s3,56(sp)
   1236c:	000009b7          	lui	s3,0x0
   12370:	04913423          	sd	s1,72(sp)
   12374:	05213023          	sd	s2,64(sp)
   12378:	03513423          	sd	s5,40(sp)
   1237c:	01713c23          	sd	s7,24(sp)
   12380:	01813823          	sd	s8,16(sp)
   12384:	04113c23          	sd	ra,88(sp)
   12388:	04813823          	sd	s0,80(sp)
   1238c:	03613023          	sd	s6,32(sp)
   12390:	01913423          	sd	s9,8(sp)
   12394:	01a13023          	sd	s10,0(sp)
   12398:	00050913          	mv	s2,a0
   1239c:	00058b93          	mv	s7,a1
   123a0:	1f8a0a93          	addi	s5,s4,504
   123a4:	00100493          	li	s1,1
   123a8:	fff00c13          	li	s8,-1
   123ac:	00098993          	mv	s3,s3
   123b0:	1f8a3b03          	ld	s6,504(s4)
   123b4:	0c0b0663          	beqz	s6,12480 <__call_exitprocs+0x124>
   123b8:	000a8d13          	mv	s10,s5
   123bc:	008b2403          	lw	s0,8(s6)
   123c0:	fff4041b          	addiw	s0,s0,-1
   123c4:	02045263          	bgez	s0,123e8 <__call_exitprocs+0x8c>
   123c8:	08c0006f          	j	12454 <__call_exitprocs+0xf8>
   123cc:	02040793          	addi	a5,s0,32
   123d0:	00379793          	slli	a5,a5,0x3
   123d4:	00fb07b3          	add	a5,s6,a5
   123d8:	1107b783          	ld	a5,272(a5)
   123dc:	00fb8a63          	beq	s7,a5,123f0 <__call_exitprocs+0x94>
   123e0:	fff4041b          	addiw	s0,s0,-1
   123e4:	07840863          	beq	s0,s8,12454 <__call_exitprocs+0xf8>
   123e8:	00040713          	mv	a4,s0
   123ec:	fe0b90e3          	bnez	s7,123cc <__call_exitprocs+0x70>
   123f0:	008b2783          	lw	a5,8(s6)
   123f4:	00371713          	slli	a4,a4,0x3
   123f8:	00eb0733          	add	a4,s6,a4
   123fc:	fff7879b          	addiw	a5,a5,-1
   12400:	01073683          	ld	a3,16(a4)
   12404:	0a878e63          	beq	a5,s0,124c0 <__call_exitprocs+0x164>
   12408:	00073823          	sd	zero,16(a4)
   1240c:	fc068ae3          	beqz	a3,123e0 <__call_exitprocs+0x84>
   12410:	310b2783          	lw	a5,784(s6)
   12414:	0084963b          	sllw	a2,s1,s0
   12418:	008b2c83          	lw	s9,8(s6)
   1241c:	00f677b3          	and	a5,a2,a5
   12420:	08078c63          	beqz	a5,124b8 <__call_exitprocs+0x15c>
   12424:	314b2783          	lw	a5,788(s6)
   12428:	00f67633          	and	a2,a2,a5
   1242c:	08061e63          	bnez	a2,124c8 <__call_exitprocs+0x16c>
   12430:	11073583          	ld	a1,272(a4)
   12434:	00090513          	mv	a0,s2
   12438:	000680e7          	jalr	a3
   1243c:	008b2783          	lw	a5,8(s6)
   12440:	f79798e3          	bne	a5,s9,123b0 <__call_exitprocs+0x54>
   12444:	000d3783          	ld	a5,0(s10)
   12448:	f76794e3          	bne	a5,s6,123b0 <__call_exitprocs+0x54>
   1244c:	fff4041b          	addiw	s0,s0,-1
   12450:	f9841ce3          	bne	s0,s8,123e8 <__call_exitprocs+0x8c>
   12454:	02098663          	beqz	s3,12480 <__call_exitprocs+0x124>
   12458:	008b2783          	lw	a5,8(s6)
   1245c:	06079c63          	bnez	a5,124d4 <__call_exitprocs+0x178>
   12460:	000b3783          	ld	a5,0(s6)
   12464:	08078263          	beqz	a5,124e8 <__call_exitprocs+0x18c>
   12468:	000b0513          	mv	a0,s6
   1246c:	00fd3023          	sd	a5,0(s10)
   12470:	fffee317          	auipc	t1,0xfffee
   12474:	b90300e7          	jalr	t1,-1136 # 0 <_ftext-0x10000>
   12478:	000d3b03          	ld	s6,0(s10)
   1247c:	f40b10e3          	bnez	s6,123bc <__call_exitprocs+0x60>
   12480:	05813083          	ld	ra,88(sp)
   12484:	05013403          	ld	s0,80(sp)
   12488:	04813483          	ld	s1,72(sp)
   1248c:	04013903          	ld	s2,64(sp)
   12490:	03813983          	ld	s3,56(sp)
   12494:	03013a03          	ld	s4,48(sp)
   12498:	02813a83          	ld	s5,40(sp)
   1249c:	02013b03          	ld	s6,32(sp)
   124a0:	01813b83          	ld	s7,24(sp)
   124a4:	01013c03          	ld	s8,16(sp)
   124a8:	00813c83          	ld	s9,8(sp)
   124ac:	00013d03          	ld	s10,0(sp)
   124b0:	06010113          	addi	sp,sp,96
   124b4:	00008067          	ret
   124b8:	000680e7          	jalr	a3
   124bc:	f81ff06f          	j	1243c <__call_exitprocs+0xe0>
   124c0:	008b2423          	sw	s0,8(s6)
   124c4:	f49ff06f          	j	1240c <__call_exitprocs+0xb0>
   124c8:	11073503          	ld	a0,272(a4)
   124cc:	000680e7          	jalr	a3
   124d0:	f6dff06f          	j	1243c <__call_exitprocs+0xe0>
   124d4:	000b3783          	ld	a5,0(s6)
   124d8:	000b0d13          	mv	s10,s6
   124dc:	00078b13          	mv	s6,a5
   124e0:	ec0b1ee3          	bnez	s6,123bc <__call_exitprocs+0x60>
   124e4:	f9dff06f          	j	12480 <__call_exitprocs+0x124>
   124e8:	00000793          	li	a5,0
   124ec:	fedff06f          	j	124d8 <__call_exitprocs+0x17c>

00000000000124f0 <quorem>:
   124f0:	fc010113          	addi	sp,sp,-64
   124f4:	03213023          	sd	s2,32(sp)
   124f8:	01452783          	lw	a5,20(a0)
   124fc:	0145a903          	lw	s2,20(a1)
   12500:	02113c23          	sd	ra,56(sp)
   12504:	02813823          	sd	s0,48(sp)
   12508:	02913423          	sd	s1,40(sp)
   1250c:	01313c23          	sd	s3,24(sp)
   12510:	01413823          	sd	s4,16(sp)
   12514:	01513423          	sd	s5,8(sp)
   12518:	1b27ce63          	blt	a5,s2,126d4 <quorem+0x1e4>
   1251c:	fff9091b          	addiw	s2,s2,-1
   12520:	00090f13          	mv	t5,s2
   12524:	002f1f13          	slli	t5,t5,0x2
   12528:	01858413          	addi	s0,a1,24
   1252c:	01e409b3          	add	s3,s0,t5
   12530:	01850a13          	addi	s4,a0,24
   12534:	01ea0f33          	add	t5,s4,t5
   12538:	0009a783          	lw	a5,0(s3) # 0 <_ftext-0x10000>
   1253c:	000f2483          	lw	s1,0(t5)
   12540:	0017879b          	addiw	a5,a5,1
   12544:	02f4d4bb          	divuw	s1,s1,a5
   12548:	0a048e63          	beqz	s1,12604 <quorem+0x114>
   1254c:	00010337          	lui	t1,0x10
   12550:	00040e93          	mv	t4,s0
   12554:	000a0e13          	mv	t3,s4
   12558:	00000613          	li	a2,0
   1255c:	00000713          	li	a4,0
   12560:	fff3031b          	addiw	t1,t1,-1
   12564:	004e8e93          	addi	t4,t4,4
   12568:	ffcea803          	lw	a6,-4(t4)
   1256c:	000e2683          	lw	a3,0(t3)
   12570:	004e0e13          	addi	t3,t3,4
   12574:	006878b3          	and	a7,a6,t1
   12578:	029888bb          	mulw	a7,a7,s1
   1257c:	0108581b          	srliw	a6,a6,0x10
   12580:	0066f7b3          	and	a5,a3,t1
   12584:	0106d69b          	srliw	a3,a3,0x10
   12588:	0298083b          	mulw	a6,a6,s1
   1258c:	00c888bb          	addw	a7,a7,a2
   12590:	0108d61b          	srliw	a2,a7,0x10
   12594:	0068f8b3          	and	a7,a7,t1
   12598:	4117073b          	subw	a4,a4,a7
   1259c:	00f707bb          	addw	a5,a4,a5
   125a0:	4107d71b          	sraiw	a4,a5,0x10
   125a4:	0067f7b3          	and	a5,a5,t1
   125a8:	00c8063b          	addw	a2,a6,a2
   125ac:	00667833          	and	a6,a2,t1
   125b0:	410686bb          	subw	a3,a3,a6
   125b4:	00e6873b          	addw	a4,a3,a4
   125b8:	0107169b          	slliw	a3,a4,0x10
   125bc:	00f6e6b3          	or	a3,a3,a5
   125c0:	fede2e23          	sw	a3,-4(t3)
   125c4:	0106561b          	srliw	a2,a2,0x10
   125c8:	4107571b          	sraiw	a4,a4,0x10
   125cc:	f9d9fce3          	bleu	t4,s3,12564 <quorem+0x74>
   125d0:	000f2783          	lw	a5,0(t5)
   125d4:	02079863          	bnez	a5,12604 <quorem+0x114>
   125d8:	ffcf0793          	addi	a5,t5,-4
   125dc:	02fa7263          	bleu	a5,s4,12600 <quorem+0x110>
   125e0:	ffcf2703          	lw	a4,-4(t5)
   125e4:	00070863          	beqz	a4,125f4 <quorem+0x104>
   125e8:	0180006f          	j	12600 <quorem+0x110>
   125ec:	0007a703          	lw	a4,0(a5)
   125f0:	00071863          	bnez	a4,12600 <quorem+0x110>
   125f4:	ffc78793          	addi	a5,a5,-4
   125f8:	fff9091b          	addiw	s2,s2,-1
   125fc:	fefa68e3          	bltu	s4,a5,125ec <quorem+0xfc>
   12600:	01252a23          	sw	s2,20(a0)
   12604:	00050a93          	mv	s5,a0
   12608:	388030ef          	jal	15990 <__mcmp>
   1260c:	0a054063          	bltz	a0,126ac <quorem+0x1bc>
   12610:	000105b7          	lui	a1,0x10
   12614:	0014849b          	addiw	s1,s1,1
   12618:	000a0613          	mv	a2,s4
   1261c:	00000793          	li	a5,0
   12620:	fff5859b          	addiw	a1,a1,-1
   12624:	00440413          	addi	s0,s0,4
   12628:	ffc42683          	lw	a3,-4(s0)
   1262c:	00062703          	lw	a4,0(a2)
   12630:	00460613          	addi	a2,a2,4
   12634:	00b6f833          	and	a6,a3,a1
   12638:	410787bb          	subw	a5,a5,a6
   1263c:	00b77833          	and	a6,a4,a1
   12640:	010787bb          	addw	a5,a5,a6
   12644:	0106d69b          	srliw	a3,a3,0x10
   12648:	0107571b          	srliw	a4,a4,0x10
   1264c:	40d7073b          	subw	a4,a4,a3
   12650:	4107d69b          	sraiw	a3,a5,0x10
   12654:	00d706bb          	addw	a3,a4,a3
   12658:	0106981b          	slliw	a6,a3,0x10
   1265c:	00b7f733          	and	a4,a5,a1
   12660:	00e86733          	or	a4,a6,a4
   12664:	fee62e23          	sw	a4,-4(a2)
   12668:	4106d79b          	sraiw	a5,a3,0x10
   1266c:	fa89fce3          	bleu	s0,s3,12624 <quorem+0x134>
   12670:	00291713          	slli	a4,s2,0x2
   12674:	00ea0733          	add	a4,s4,a4
   12678:	00072783          	lw	a5,0(a4)
   1267c:	02079863          	bnez	a5,126ac <quorem+0x1bc>
   12680:	ffc70793          	addi	a5,a4,-4
   12684:	02fa7263          	bleu	a5,s4,126a8 <quorem+0x1b8>
   12688:	ffc72703          	lw	a4,-4(a4)
   1268c:	00070863          	beqz	a4,1269c <quorem+0x1ac>
   12690:	0180006f          	j	126a8 <quorem+0x1b8>
   12694:	0007a703          	lw	a4,0(a5)
   12698:	00071863          	bnez	a4,126a8 <quorem+0x1b8>
   1269c:	ffc78793          	addi	a5,a5,-4
   126a0:	fff9091b          	addiw	s2,s2,-1
   126a4:	fefa68e3          	bltu	s4,a5,12694 <quorem+0x1a4>
   126a8:	012aaa23          	sw	s2,20(s5)
   126ac:	00048513          	mv	a0,s1
   126b0:	03813083          	ld	ra,56(sp)
   126b4:	03013403          	ld	s0,48(sp)
   126b8:	02813483          	ld	s1,40(sp)
   126bc:	02013903          	ld	s2,32(sp)
   126c0:	01813983          	ld	s3,24(sp)
   126c4:	01013a03          	ld	s4,16(sp)
   126c8:	00813a83          	ld	s5,8(sp)
   126cc:	04010113          	addi	sp,sp,64
   126d0:	00008067          	ret
   126d4:	00000513          	li	a0,0
   126d8:	fd9ff06f          	j	126b0 <quorem+0x1c0>

00000000000126dc <_dtoa_r>:
   126dc:	e20585d3          	fmv.x.d	a1,fa1
   126e0:	06053883          	ld	a7,96(a0)
   126e4:	f3010113          	addi	sp,sp,-208
   126e8:	0c813023          	sd	s0,192(sp)
   126ec:	0a913c23          	sd	s1,184(sp)
   126f0:	0b313423          	sd	s3,168(sp)
   126f4:	09613823          	sd	s6,144(sp)
   126f8:	07913c23          	sd	s9,120(sp)
   126fc:	07a13823          	sd	s10,112(sp)
   12700:	0c113423          	sd	ra,200(sp)
   12704:	0b213823          	sd	s2,176(sp)
   12708:	0b413023          	sd	s4,160(sp)
   1270c:	09513c23          	sd	s5,152(sp)
   12710:	09713423          	sd	s7,136(sp)
   12714:	09813023          	sd	s8,128(sp)
   12718:	07b13423          	sd	s11,104(sp)
   1271c:	00e13023          	sd	a4,0(sp)
   12720:	00050413          	mv	s0,a0
   12724:	00060993          	mv	s3,a2
   12728:	00068c93          	mv	s9,a3
   1272c:	00078493          	mv	s1,a5
   12730:	00080b13          	mv	s6,a6
   12734:	00058d13          	mv	s10,a1
   12738:	02088263          	beqz	a7,1275c <_dtoa_r+0x80>
   1273c:	06852603          	lw	a2,104(a0)
   12740:	00100693          	li	a3,1
   12744:	00088593          	mv	a1,a7
   12748:	00c696bb          	sllw	a3,a3,a2
   1274c:	00c8a423          	sw	a2,8(a7)
   12750:	00d8a623          	sw	a3,12(a7)
   12754:	1f1020ef          	jal	15144 <_Bfree>
   12758:	06043023          	sd	zero,96(s0)
   1275c:	420d5913          	srai	s2,s10,0x20
   12760:	0c094063          	bltz	s2,12820 <_dtoa_r+0x144>
   12764:	0004a023          	sw	zero,0(s1)
   12768:	7ff007b7          	lui	a5,0x7ff00
   1276c:	00f976b3          	and	a3,s2,a5
   12770:	06f68a63          	beq	a3,a5,127e4 <_dtoa_r+0x108>
   12774:	f20007d3          	fmv.d.x	fa5,zero
   12778:	f20d0753          	fmv.d.x	fa4,s10
   1277c:	a2f727d3          	feq.d	a5,fa4,fa5
   12780:	0c078463          	beqz	a5,12848 <_dtoa_r+0x16c>
   12784:	00013703          	ld	a4,0(sp)
   12788:	00100793          	li	a5,1
   1278c:	00f72023          	sw	a5,0(a4)
   12790:	480b0a63          	beqz	s6,12c24 <_dtoa_r+0x548>
   12794:	000197b7          	lui	a5,0x19
   12798:	28178793          	addi	a5,a5,641 # 19281 <zeroes.4137+0x71>
   1279c:	00019537          	lui	a0,0x19
   127a0:	00fb3023          	sd	a5,0(s6)
   127a4:	28050513          	addi	a0,a0,640 # 19280 <zeroes.4137+0x70>
   127a8:	0c813083          	ld	ra,200(sp)
   127ac:	0c013403          	ld	s0,192(sp)
   127b0:	0b813483          	ld	s1,184(sp)
   127b4:	0b013903          	ld	s2,176(sp)
   127b8:	0a813983          	ld	s3,168(sp)
   127bc:	0a013a03          	ld	s4,160(sp)
   127c0:	09813a83          	ld	s5,152(sp)
   127c4:	09013b03          	ld	s6,144(sp)
   127c8:	08813b83          	ld	s7,136(sp)
   127cc:	08013c03          	ld	s8,128(sp)
   127d0:	07813c83          	ld	s9,120(sp)
   127d4:	07013d03          	ld	s10,112(sp)
   127d8:	06813d83          	ld	s11,104(sp)
   127dc:	0d010113          	addi	sp,sp,208
   127e0:	00008067          	ret
   127e4:	00013703          	ld	a4,0(sp)
   127e8:	000027b7          	lui	a5,0x2
   127ec:	70f7879b          	addiw	a5,a5,1807
   127f0:	00f72023          	sw	a5,0(a4)
   127f4:	00cd1793          	slli	a5,s10,0xc
   127f8:	3e079863          	bnez	a5,12be8 <_dtoa_r+0x50c>
   127fc:	00019537          	lui	a0,0x19
   12800:	28850513          	addi	a0,a0,648 # 19288 <zeroes.4137+0x78>
   12804:	fa0b02e3          	beqz	s6,127a8 <_dtoa_r+0xcc>
   12808:	00354703          	lbu	a4,3(a0)
   1280c:	00350793          	addi	a5,a0,3
   12810:	00070463          	beqz	a4,12818 <_dtoa_r+0x13c>
   12814:	00850793          	addi	a5,a0,8
   12818:	00fb3023          	sd	a5,0(s6)
   1281c:	f8dff06f          	j	127a8 <_dtoa_r+0xcc>
   12820:	800007b7          	lui	a5,0x80000
   12824:	fff7c793          	not	a5,a5
   12828:	020d1713          	slli	a4,s10,0x20
   1282c:	00f97933          	and	s2,s2,a5
   12830:	02091793          	slli	a5,s2,0x20
   12834:	02075713          	srli	a4,a4,0x20
   12838:	00100693          	li	a3,1
   1283c:	00d4a023          	sw	a3,0(s1)
   12840:	00f76d33          	or	s10,a4,a5
   12844:	f25ff06f          	j	12768 <_dtoa_r+0x8c>
   12848:	f20d05d3          	fmv.d.x	fa1,s10
   1284c:	05810693          	addi	a3,sp,88
   12850:	05c10613          	addi	a2,sp,92
   12854:	00040513          	mv	a0,s0
   12858:	578030ef          	jal	15dd0 <__d2b>
   1285c:	02a13023          	sd	a0,32(sp)
   12860:	0149581b          	srliw	a6,s2,0x14
   12864:	38081863          	bnez	a6,12bf4 <_dtoa_r+0x518>
   12868:	05812603          	lw	a2,88(sp)
   1286c:	05c12803          	lw	a6,92(sp)
   12870:	02000793          	li	a5,32
   12874:	0106083b          	addw	a6,a2,a6
   12878:	4328069b          	addiw	a3,a6,1074
   1287c:	6ad7de63          	ble	a3,a5,12f38 <_dtoa_r+0x85c>
   12880:	04000593          	li	a1,64
   12884:	4128049b          	addiw	s1,a6,1042
   12888:	000d079b          	sext.w	a5,s10
   1288c:	40d585bb          	subw	a1,a1,a3
   12890:	0097d7bb          	srlw	a5,a5,s1
   12894:	00b914bb          	sllw	s1,s2,a1
   12898:	0097e4b3          	or	s1,a5,s1
   1289c:	d21487d3          	fcvt.d.wu	fa5,s1
   128a0:	fe1006b7          	lui	a3,0xfe100
   128a4:	fff8081b          	addiw	a6,a6,-1
   128a8:	e20784d3          	fmv.x.d	s1,fa5
   128ac:	00100913          	li	s2,1
   128b0:	4204d793          	srai	a5,s1,0x20
   128b4:	00d787bb          	addw	a5,a5,a3
   128b8:	02049493          	slli	s1,s1,0x20
   128bc:	02079793          	slli	a5,a5,0x20
   128c0:	0204d493          	srli	s1,s1,0x20
   128c4:	00f4e4b3          	or	s1,s1,a5
   128c8:	0001b7b7          	lui	a5,0x1b
   128cc:	3487b787          	fld	fa5,840(a5) # 1b348 <__wctomb+0x8>
   128d0:	f2048753          	fmv.d.x	fa4,s1
   128d4:	0001b7b7          	lui	a5,0x1b
   128d8:	0af77653          	fsub.d	fa2,fa4,fa5
   128dc:	3587b787          	fld	fa5,856(a5) # 1b358 <__wctomb+0x18>
   128e0:	0001b7b7          	lui	a5,0x1b
   128e4:	3507b687          	fld	fa3,848(a5) # 1b350 <__wctomb+0x10>
   128e8:	0001b7b7          	lui	a5,0x1b
   128ec:	d2080753          	fcvt.d.w	fa4,a6
   128f0:	7ad677c3          	fmadd.d	fa5,fa2,fa3,fa5
   128f4:	3607b687          	fld	fa3,864(a5) # 1b360 <__wctomb+0x20>
   128f8:	7ad777c3          	fmadd.d	fa5,fa4,fa3,fa5
   128fc:	f2000753          	fmv.d.x	fa4,zero
   12900:	a2e797d3          	flt.d	a5,fa5,fa4
   12904:	c2079bd3          	fcvt.w.d	s7,fa5,rtz
   12908:	5e079e63          	bnez	a5,12f04 <_dtoa_r+0x828>
   1290c:	00100793          	li	a5,1
   12910:	02f12823          	sw	a5,48(sp)
   12914:	01600793          	li	a5,22
   12918:	0377e663          	bltu	a5,s7,12944 <_dtoa_r+0x268>
   1291c:	000197b7          	lui	a5,0x19
   12920:	003b9693          	slli	a3,s7,0x3
   12924:	f8078793          	addi	a5,a5,-128 # 18f80 <__mprec_tens>
   12928:	00f687b3          	add	a5,a3,a5
   1292c:	0007b787          	fld	fa5,0(a5)
   12930:	f20d0753          	fmv.d.x	fa4,s10
   12934:	a2f717d3          	flt.d	a5,fa4,fa5
   12938:	60078863          	beqz	a5,12f48 <_dtoa_r+0x86c>
   1293c:	fffb8b9b          	addiw	s7,s7,-1
   12940:	02012823          	sw	zero,48(sp)
   12944:	4106083b          	subw	a6,a2,a6
   12948:	fff80d9b          	addiw	s11,a6,-1
   1294c:	00000813          	li	a6,0
   12950:	2e0dc063          	bltz	s11,12c30 <_dtoa_r+0x554>
   12954:	5c0bc263          	bltz	s7,12f18 <_dtoa_r+0x83c>
   12958:	017d8dbb          	addw	s11,s11,s7
   1295c:	03712423          	sw	s7,40(sp)
   12960:	00000c13          	li	s8,0
   12964:	00900793          	li	a5,9
   12968:	2d37ea63          	bltu	a5,s3,12c3c <_dtoa_r+0x560>
   1296c:	00500793          	li	a5,5
   12970:	00100a13          	li	s4,1
   12974:	0137d663          	ble	s3,a5,12980 <_dtoa_r+0x2a4>
   12978:	ffc9899b          	addiw	s3,s3,-4
   1297c:	00000a13          	li	s4,0
   12980:	00300793          	li	a5,3
   12984:	2af982e3          	beq	s3,a5,13428 <_dtoa_r+0xd4c>
   12988:	1f37dce3          	ble	s3,a5,13380 <_dtoa_r+0xca4>
   1298c:	00400793          	li	a5,4
   12990:	0cf98ae3          	beq	s3,a5,13264 <_dtoa_r+0xb88>
   12994:	00100793          	li	a5,1
   12998:	00f12823          	sw	a5,16(sp)
   1299c:	00500793          	li	a5,5
   129a0:	1ef996e3          	bne	s3,a5,1338c <_dtoa_r+0xcb0>
   129a4:	019b87bb          	addw	a5,s7,s9
   129a8:	00178a9b          	addiw	s5,a5,1
   129ac:	02f12a23          	sw	a5,52(sp)
   129b0:	000a8513          	mv	a0,s5
   129b4:	000a8493          	mv	s1,s5
   129b8:	1b505ee3          	blez	s5,13374 <_dtoa_r+0xc98>
   129bc:	06042423          	sw	zero,104(s0)
   129c0:	01f00793          	li	a5,31
   129c4:	00000593          	li	a1,0
   129c8:	02a7f463          	bleu	a0,a5,129f0 <_dtoa_r+0x314>
   129cc:	00100613          	li	a2,1
   129d0:	00400693          	li	a3,4
   129d4:	0016969b          	slliw	a3,a3,0x1
   129d8:	00068793          	mv	a5,a3
   129dc:	01c78793          	addi	a5,a5,28
   129e0:	00060593          	mv	a1,a2
   129e4:	0016061b          	addiw	a2,a2,1
   129e8:	fef576e3          	bleu	a5,a0,129d4 <_dtoa_r+0x2f8>
   129ec:	06b42423          	sw	a1,104(s0)
   129f0:	00040513          	mv	a0,s0
   129f4:	03013c23          	sd	a6,56(sp)
   129f8:	6a0020ef          	jal	15098 <_Balloc>
   129fc:	00a13423          	sd	a0,8(sp)
   12a00:	06a43023          	sd	a0,96(s0)
   12a04:	00e00793          	li	a5,14
   12a08:	03813803          	ld	a6,56(sp)
   12a0c:	2697e463          	bltu	a5,s1,12c74 <_dtoa_r+0x598>
   12a10:	260a0263          	beqz	s4,12c74 <_dtoa_r+0x598>
   12a14:	03a13c23          	sd	s10,56(sp)
   12a18:	317054e3          	blez	s7,13520 <_dtoa_r+0xe44>
   12a1c:	00fbf713          	andi	a4,s7,15
   12a20:	00371693          	slli	a3,a4,0x3
   12a24:	00019737          	lui	a4,0x19
   12a28:	404bd79b          	sraiw	a5,s7,0x4
   12a2c:	f8070713          	addi	a4,a4,-128 # 18f80 <__mprec_tens>
   12a30:	00e68733          	add	a4,a3,a4
   12a34:	0107f693          	andi	a3,a5,16
   12a38:	00073687          	fld	fa3,0(a4)
   12a3c:	f20d07d3          	fmv.d.x	fa5,s10
   12a40:	00200713          	li	a4,2
   12a44:	00068c63          	beqz	a3,12a5c <_dtoa_r+0x380>
   12a48:	00019737          	lui	a4,0x19
   12a4c:	09073707          	fld	fa4,144(a4) # 19090 <__mprec_bigtens+0x20>
   12a50:	00f7f793          	andi	a5,a5,15
   12a54:	00300713          	li	a4,3
   12a58:	1ae7f7d3          	fdiv.d	fa5,fa5,fa4
   12a5c:	02078663          	beqz	a5,12a88 <_dtoa_r+0x3ac>
   12a60:	000196b7          	lui	a3,0x19
   12a64:	07068693          	addi	a3,a3,112 # 19070 <__mprec_bigtens>
   12a68:	0017f613          	andi	a2,a5,1
   12a6c:	4017d79b          	sraiw	a5,a5,0x1
   12a70:	00060863          	beqz	a2,12a80 <_dtoa_r+0x3a4>
   12a74:	0006b707          	fld	fa4,0(a3)
   12a78:	0017071b          	addiw	a4,a4,1
   12a7c:	12e6f6d3          	fmul.d	fa3,fa3,fa4
   12a80:	00868693          	addi	a3,a3,8
   12a84:	fe0792e3          	bnez	a5,12a68 <_dtoa_r+0x38c>
   12a88:	1ad7f7d3          	fdiv.d	fa5,fa5,fa3
   12a8c:	03012783          	lw	a5,48(sp)
   12a90:	00078a63          	beqz	a5,12aa4 <_dtoa_r+0x3c8>
   12a94:	0001b7b7          	lui	a5,0x1b
   12a98:	3687b707          	fld	fa4,872(a5) # 1b368 <__wctomb+0x28>
   12a9c:	a2e797d3          	flt.d	a5,fa5,fa4
   12aa0:	440790e3          	bnez	a5,136e0 <_dtoa_r+0x1004>
   12aa4:	0001b7b7          	lui	a5,0x1b
   12aa8:	d20706d3          	fcvt.d.w	fa3,a4
   12aac:	3787b707          	fld	fa4,888(a5) # 1b378 <__wctomb+0x38>
   12ab0:	fcc006b7          	lui	a3,0xfcc00
   12ab4:	72f6f743          	fmadd.d	fa4,fa3,fa5,fa4
   12ab8:	e2070753          	fmv.x.d	a4,fa4
   12abc:	42075793          	srai	a5,a4,0x20
   12ac0:	00d787bb          	addw	a5,a5,a3
   12ac4:	02071713          	slli	a4,a4,0x20
   12ac8:	02079793          	slli	a5,a5,0x20
   12acc:	02075713          	srli	a4,a4,0x20
   12ad0:	00f76733          	or	a4,a4,a5
   12ad4:	180a86e3          	beqz	s5,13460 <_dtoa_r+0xd84>
   12ad8:	000b8693          	mv	a3,s7
   12adc:	000a8613          	mv	a2,s5
   12ae0:	01012783          	lw	a5,16(sp)
   12ae4:	300782e3          	beqz	a5,135e8 <_dtoa_r+0xf0c>
   12ae8:	fff6079b          	addiw	a5,a2,-1
   12aec:	000195b7          	lui	a1,0x19
   12af0:	f8058593          	addi	a1,a1,-128 # 18f80 <__mprec_tens>
   12af4:	00379793          	slli	a5,a5,0x3
   12af8:	00b787b3          	add	a5,a5,a1
   12afc:	0001b5b7          	lui	a1,0x1b
   12b00:	0007b687          	fld	fa3,0(a5)
   12b04:	3885b707          	fld	fa4,904(a1) # 1b388 <__wctomb+0x48>
   12b08:	c20797d3          	fcvt.w.d	a5,fa5,rtz
   12b0c:	00813503          	ld	a0,8(sp)
   12b10:	1ad77753          	fdiv.d	fa4,fa4,fa3
   12b14:	d20786d3          	fcvt.d.w	fa3,a5
   12b18:	0307879b          	addiw	a5,a5,48
   12b1c:	0ff7f793          	andi	a5,a5,255
   12b20:	0ad7f7d3          	fsub.d	fa5,fa5,fa3
   12b24:	f20706d3          	fmv.d.x	fa3,a4
   12b28:	00f50023          	sb	a5,0(a0)
   12b2c:	00150493          	addi	s1,a0,1
   12b30:	0ad77753          	fsub.d	fa4,fa4,fa3
   12b34:	a2e79753          	flt.d	a4,fa5,fa4
   12b38:	08071063          	bnez	a4,12bb8 <_dtoa_r+0x4dc>
   12b3c:	0001b737          	lui	a4,0x1b
   12b40:	36873587          	fld	fa1,872(a4) # 1b368 <__wctomb+0x28>
   12b44:	0af5f6d3          	fsub.d	fa3,fa1,fa5
   12b48:	a2e69753          	flt.d	a4,fa3,fa4
   12b4c:	40071ae3          	bnez	a4,13760 <_dtoa_r+0x1084>
   12b50:	00100793          	li	a5,1
   12b54:	1ac7d4e3          	ble	a2,a5,134fc <_dtoa_r+0xe20>
   12b58:	0001b7b7          	lui	a5,0x1b
   12b5c:	ffe6061b          	addiw	a2,a2,-2
   12b60:	02061613          	slli	a2,a2,0x20
   12b64:	3707b607          	fld	fa2,880(a5) # 1b370 <__wctomb+0x30>
   12b68:	00813783          	ld	a5,8(sp)
   12b6c:	02065613          	srli	a2,a2,0x20
   12b70:	00260613          	addi	a2,a2,2
   12b74:	00c78633          	add	a2,a5,a2
   12b78:	0140006f          	j	12b8c <_dtoa_r+0x4b0>
   12b7c:	0af5f6d3          	fsub.d	fa3,fa1,fa5
   12b80:	a2e69753          	flt.d	a4,fa3,fa4
   12b84:	3c071ee3          	bnez	a4,13760 <_dtoa_r+0x1084>
   12b88:	16960ae3          	beq	a2,s1,134fc <_dtoa_r+0xe20>
   12b8c:	12c7f7d3          	fmul.d	fa5,fa5,fa2
   12b90:	12c77753          	fmul.d	fa4,fa4,fa2
   12b94:	00148493          	addi	s1,s1,1
   12b98:	c20797d3          	fcvt.w.d	a5,fa5,rtz
   12b9c:	d20786d3          	fcvt.d.w	fa3,a5
   12ba0:	0307879b          	addiw	a5,a5,48
   12ba4:	0ff7f793          	andi	a5,a5,255
   12ba8:	0ad7f7d3          	fsub.d	fa5,fa5,fa3
   12bac:	fef48fa3          	sb	a5,-1(s1)
   12bb0:	a2e79753          	flt.d	a4,fa5,fa4
   12bb4:	fc0704e3          	beqz	a4,12b7c <_dtoa_r+0x4a0>
   12bb8:	00068b93          	mv	s7,a3
   12bbc:	02013583          	ld	a1,32(sp)
   12bc0:	00040513          	mv	a0,s0
   12bc4:	001b8b9b          	addiw	s7,s7,1
   12bc8:	57c020ef          	jal	15144 <_Bfree>
   12bcc:	00013783          	ld	a5,0(sp)
   12bd0:	00048023          	sb	zero,0(s1)
   12bd4:	0177a023          	sw	s7,0(a5)
   12bd8:	0c0b0ce3          	beqz	s6,134b0 <_dtoa_r+0xdd4>
   12bdc:	009b3023          	sd	s1,0(s6)
   12be0:	00813503          	ld	a0,8(sp)
   12be4:	bc5ff06f          	j	127a8 <_dtoa_r+0xcc>
   12be8:	00019537          	lui	a0,0x19
   12bec:	29850513          	addi	a0,a0,664 # 19298 <zeroes.4137+0x88>
   12bf0:	c15ff06f          	j	12804 <_dtoa_r+0x128>
   12bf4:	00cd1793          	slli	a5,s10,0xc
   12bf8:	02c7d693          	srli	a3,a5,0x2c
   12bfc:	3ff007b7          	lui	a5,0x3ff00
   12c00:	00f6e7b3          	or	a5,a3,a5
   12c04:	020d1493          	slli	s1,s10,0x20
   12c08:	02079793          	slli	a5,a5,0x20
   12c0c:	0204d493          	srli	s1,s1,0x20
   12c10:	00f4e4b3          	or	s1,s1,a5
   12c14:	c018081b          	addiw	a6,a6,-1023
   12c18:	05812603          	lw	a2,88(sp)
   12c1c:	00000913          	li	s2,0
   12c20:	ca9ff06f          	j	128c8 <_dtoa_r+0x1ec>
   12c24:	00019537          	lui	a0,0x19
   12c28:	28050513          	addi	a0,a0,640 # 19280 <zeroes.4137+0x70>
   12c2c:	b7dff06f          	j	127a8 <_dtoa_r+0xcc>
   12c30:	41b0083b          	negw	a6,s11
   12c34:	00000d93          	li	s11,0
   12c38:	d1dff06f          	j	12954 <_dtoa_r+0x278>
   12c3c:	06042423          	sw	zero,104(s0)
   12c40:	00000593          	li	a1,0
   12c44:	00040513          	mv	a0,s0
   12c48:	03013c23          	sd	a6,56(sp)
   12c4c:	44c020ef          	jal	15098 <_Balloc>
   12c50:	03813803          	ld	a6,56(sp)
   12c54:	fff00a93          	li	s5,-1
   12c58:	00100793          	li	a5,1
   12c5c:	00a13423          	sd	a0,8(sp)
   12c60:	06a43023          	sd	a0,96(s0)
   12c64:	03512a23          	sw	s5,52(sp)
   12c68:	00000993          	li	s3,0
   12c6c:	00000c93          	li	s9,0
   12c70:	00f12823          	sw	a5,16(sp)
   12c74:	05c12783          	lw	a5,92(sp)
   12c78:	0e07ca63          	bltz	a5,12d6c <_dtoa_r+0x690>
   12c7c:	00e00693          	li	a3,14
   12c80:	0f76c663          	blt	a3,s7,12d6c <_dtoa_r+0x690>
   12c84:	000197b7          	lui	a5,0x19
   12c88:	003b9693          	slli	a3,s7,0x3
   12c8c:	f8078793          	addi	a5,a5,-128 # 18f80 <__mprec_tens>
   12c90:	00f687b3          	add	a5,a3,a5
   12c94:	0007b687          	fld	fa3,0(a5)
   12c98:	5e0cc663          	bltz	s9,13284 <_dtoa_r+0xba8>
   12c9c:	f20d0653          	fmv.d.x	fa2,s10
   12ca0:	00813703          	ld	a4,8(sp)
   12ca4:	22d69553          	fneg.d	fa0,fa3
   12ca8:	1ad67753          	fdiv.d	fa4,fa2,fa3
   12cac:	00170493          	addi	s1,a4,1
   12cb0:	c20717d3          	fcvt.w.d	a5,fa4,rtz
   12cb4:	d20787d3          	fcvt.d.w	fa5,a5
   12cb8:	0307869b          	addiw	a3,a5,48
   12cbc:	00d70023          	sb	a3,0(a4)
   12cc0:	00100713          	li	a4,1
   12cc4:	62f577c3          	fmadd.d	fa5,fa0,fa5,fa2
   12cc8:	2aea88e3          	beq	s5,a4,13778 <_dtoa_r+0x109c>
   12ccc:	0001b7b7          	lui	a5,0x1b
   12cd0:	3707b587          	fld	fa1,880(a5) # 1b370 <__wctomb+0x30>
   12cd4:	f2000653          	fmv.d.x	fa2,zero
   12cd8:	12b7f7d3          	fmul.d	fa5,fa5,fa1
   12cdc:	a2c7a7d3          	feq.d	a5,fa5,fa2
   12ce0:	ec079ee3          	bnez	a5,12bbc <_dtoa_r+0x4e0>
   12ce4:	ffea869b          	addiw	a3,s5,-2
   12ce8:	02069693          	slli	a3,a3,0x20
   12cec:	00813783          	ld	a5,8(sp)
   12cf0:	0206d693          	srli	a3,a3,0x20
   12cf4:	00268693          	addi	a3,a3,2 # fffffffffcc00002 <_gp+0xfffffffffcbe44f2>
   12cf8:	00d786b3          	add	a3,a5,a3
   12cfc:	0100006f          	j	12d0c <_dtoa_r+0x630>
   12d00:	12b7f7d3          	fmul.d	fa5,fa5,fa1
   12d04:	a2c7a7d3          	feq.d	a5,fa5,fa2
   12d08:	ea079ae3          	bnez	a5,12bbc <_dtoa_r+0x4e0>
   12d0c:	1ad7f753          	fdiv.d	fa4,fa5,fa3
   12d10:	00148493          	addi	s1,s1,1
   12d14:	c20717d3          	fcvt.w.d	a5,fa4,rtz
   12d18:	d2078753          	fcvt.d.w	fa4,a5
   12d1c:	0307871b          	addiw	a4,a5,48
   12d20:	fee48fa3          	sb	a4,-1(s1)
   12d24:	7ae577c3          	fmadd.d	fa5,fa0,fa4,fa5
   12d28:	fcd49ce3          	bne	s1,a3,12d00 <_dtoa_r+0x624>
   12d2c:	02f7f7d3          	fadd.d	fa5,fa5,fa5
   12d30:	a2f69753          	flt.d	a4,fa3,fa5
   12d34:	7c070863          	beqz	a4,13504 <_dtoa_r+0xe28>
   12d38:	fff6c783          	lbu	a5,-1(a3)
   12d3c:	00068493          	mv	s1,a3
   12d40:	03900693          	li	a3,57
   12d44:	0140006f          	j	12d58 <_dtoa_r+0x67c>
   12d48:	00813783          	ld	a5,8(sp)
   12d4c:	02f70ce3          	beq	a4,a5,13584 <_dtoa_r+0xea8>
   12d50:	fff74783          	lbu	a5,-1(a4)
   12d54:	00070493          	mv	s1,a4
   12d58:	fff48713          	addi	a4,s1,-1
   12d5c:	fed786e3          	beq	a5,a3,12d48 <_dtoa_r+0x66c>
   12d60:	0017879b          	addiw	a5,a5,1
   12d64:	00f70023          	sb	a5,0(a4)
   12d68:	e55ff06f          	j	12bbc <_dtoa_r+0x4e0>
   12d6c:	01012703          	lw	a4,16(sp)
   12d70:	1a070c63          	beqz	a4,12f28 <_dtoa_r+0x84c>
   12d74:	00100693          	li	a3,1
   12d78:	5536d863          	ble	s3,a3,132c8 <_dtoa_r+0xbec>
   12d7c:	fffa869b          	addiw	a3,s5,-1
   12d80:	72dc4c63          	blt	s8,a3,134b8 <_dtoa_r+0xddc>
   12d84:	40dc06bb          	subw	a3,s8,a3
   12d88:	00080493          	mv	s1,a6
   12d8c:	000a8793          	mv	a5,s5
   12d90:	120ac2e3          	bltz	s5,136b4 <_dtoa_r+0xfd8>
   12d94:	00f8083b          	addw	a6,a6,a5
   12d98:	00100593          	li	a1,1
   12d9c:	00040513          	mv	a0,s0
   12da0:	04d13423          	sd	a3,72(sp)
   12da4:	05013023          	sd	a6,64(sp)
   12da8:	03013c23          	sd	a6,56(sp)
   12dac:	00fd8dbb          	addw	s11,s11,a5
   12db0:	720020ef          	jal	154d0 <__i2b>
   12db4:	04013803          	ld	a6,64(sp)
   12db8:	04813683          	ld	a3,72(sp)
   12dbc:	00050a13          	mv	s4,a0
   12dc0:	00048e63          	beqz	s1,12ddc <_dtoa_r+0x700>
   12dc4:	01b05c63          	blez	s11,12ddc <_dtoa_r+0x700>
   12dc8:	00048793          	mv	a5,s1
   12dcc:	489dc463          	blt	s11,s1,13254 <_dtoa_r+0xb78>
   12dd0:	40f8083b          	subw	a6,a6,a5
   12dd4:	40f484bb          	subw	s1,s1,a5
   12dd8:	40fd8dbb          	subw	s11,s11,a5
   12ddc:	02013903          	ld	s2,32(sp)
   12de0:	07805e63          	blez	s8,12e5c <_dtoa_r+0x780>
   12de4:	01012783          	lw	a5,16(sp)
   12de8:	6a078463          	beqz	a5,13490 <_dtoa_r+0xdb4>
   12dec:	04068a63          	beqz	a3,12e40 <_dtoa_r+0x764>
   12df0:	00068613          	mv	a2,a3
   12df4:	000a0593          	mv	a1,s4
   12df8:	00040513          	mv	a0,s0
   12dfc:	05013023          	sd	a6,64(sp)
   12e00:	02d13c23          	sd	a3,56(sp)
   12e04:	0f5020ef          	jal	156f8 <__pow5mult>
   12e08:	02013603          	ld	a2,32(sp)
   12e0c:	00050593          	mv	a1,a0
   12e10:	00050a13          	mv	s4,a0
   12e14:	00040513          	mv	a0,s0
   12e18:	6ec020ef          	jal	15504 <__multiply>
   12e1c:	03813683          	ld	a3,56(sp)
   12e20:	02013583          	ld	a1,32(sp)
   12e24:	00050913          	mv	s2,a0
   12e28:	00040513          	mv	a0,s0
   12e2c:	40dc0c3b          	subw	s8,s8,a3
   12e30:	314020ef          	jal	15144 <_Bfree>
   12e34:	04013803          	ld	a6,64(sp)
   12e38:	020c0263          	beqz	s8,12e5c <_dtoa_r+0x780>
   12e3c:	03213023          	sd	s2,32(sp)
   12e40:	02013583          	ld	a1,32(sp)
   12e44:	000c0613          	mv	a2,s8
   12e48:	00040513          	mv	a0,s0
   12e4c:	03013c23          	sd	a6,56(sp)
   12e50:	0a9020ef          	jal	156f8 <__pow5mult>
   12e54:	03813803          	ld	a6,56(sp)
   12e58:	00050913          	mv	s2,a0
   12e5c:	00100593          	li	a1,1
   12e60:	00040513          	mv	a0,s0
   12e64:	03013023          	sd	a6,32(sp)
   12e68:	668020ef          	jal	154d0 <__i2b>
   12e6c:	02812783          	lw	a5,40(sp)
   12e70:	00050c13          	mv	s8,a0
   12e74:	02013803          	ld	a6,32(sp)
   12e78:	0c078c63          	beqz	a5,12f50 <_dtoa_r+0x874>
   12e7c:	00078613          	mv	a2,a5
   12e80:	00050593          	mv	a1,a0
   12e84:	00040513          	mv	a0,s0
   12e88:	071020ef          	jal	156f8 <__pow5mult>
   12e8c:	00100793          	li	a5,1
   12e90:	00050c13          	mv	s8,a0
   12e94:	02013803          	ld	a6,32(sp)
   12e98:	3d37c263          	blt	a5,s3,1325c <_dtoa_r+0xb80>
   12e9c:	00cd1793          	slli	a5,s10,0xc
   12ea0:	3a079e63          	bnez	a5,1325c <_dtoa_r+0xb80>
   12ea4:	420d5693          	srai	a3,s10,0x20
   12ea8:	7ff007b7          	lui	a5,0x7ff00
   12eac:	00f6f7b3          	and	a5,a3,a5
   12eb0:	02012023          	sw	zero,32(sp)
   12eb4:	00078a63          	beqz	a5,12ec8 <_dtoa_r+0x7ec>
   12eb8:	00100793          	li	a5,1
   12ebc:	0018081b          	addiw	a6,a6,1
   12ec0:	001d8d9b          	addiw	s11,s11,1
   12ec4:	02f12023          	sw	a5,32(sp)
   12ec8:	02812783          	lw	a5,40(sp)
   12ecc:	00100513          	li	a0,1
   12ed0:	08078863          	beqz	a5,12f60 <_dtoa_r+0x884>
   12ed4:	014c2783          	lw	a5,20(s8)
   12ed8:	03013423          	sd	a6,40(sp)
   12edc:	fff7879b          	addiw	a5,a5,-1
   12ee0:	00478793          	addi	a5,a5,4 # 7ff00004 <_gp+0x7fee44f4>
   12ee4:	00279793          	slli	a5,a5,0x2
   12ee8:	00fc07b3          	add	a5,s8,a5
   12eec:	0087a503          	lw	a0,8(a5)
   12ef0:	4b4020ef          	jal	153a4 <__hi0bits>
   12ef4:	02000793          	li	a5,32
   12ef8:	40a7853b          	subw	a0,a5,a0
   12efc:	02813803          	ld	a6,40(sp)
   12f00:	0600006f          	j	12f60 <_dtoa_r+0x884>
   12f04:	d20b8753          	fcvt.d.w	fa4,s7
   12f08:	a2e7a7d3          	feq.d	a5,fa5,fa4
   12f0c:	0017b793          	seqz	a5,a5
   12f10:	40fb8bbb          	subw	s7,s7,a5
   12f14:	9f9ff06f          	j	1290c <_dtoa_r+0x230>
   12f18:	4178083b          	subw	a6,a6,s7
   12f1c:	41700c3b          	negw	s8,s7
   12f20:	02012423          	sw	zero,40(sp)
   12f24:	a41ff06f          	j	12964 <_dtoa_r+0x288>
   12f28:	000c0693          	mv	a3,s8
   12f2c:	00080493          	mv	s1,a6
   12f30:	00000a13          	li	s4,0
   12f34:	e8dff06f          	j	12dc0 <_dtoa_r+0x6e4>
   12f38:	000d049b          	sext.w	s1,s10
   12f3c:	40d787bb          	subw	a5,a5,a3
   12f40:	00f494bb          	sllw	s1,s1,a5
   12f44:	959ff06f          	j	1289c <_dtoa_r+0x1c0>
   12f48:	02012823          	sw	zero,48(sp)
   12f4c:	9f9ff06f          	j	12944 <_dtoa_r+0x268>
   12f50:	00100793          	li	a5,1
   12f54:	0737d4e3          	ble	s3,a5,137bc <_dtoa_r+0x10e0>
   12f58:	02012023          	sw	zero,32(sp)
   12f5c:	00078513          	mv	a0,a5
   12f60:	01b507bb          	addw	a5,a0,s11
   12f64:	01f7f793          	andi	a5,a5,31
   12f68:	1a078663          	beqz	a5,13114 <_dtoa_r+0xa38>
   12f6c:	02000693          	li	a3,32
   12f70:	40f686bb          	subw	a3,a3,a5
   12f74:	00400613          	li	a2,4
   12f78:	04d658e3          	ble	a3,a2,137c8 <_dtoa_r+0x10ec>
   12f7c:	01c00693          	li	a3,28
   12f80:	40f687bb          	subw	a5,a3,a5
   12f84:	00f8083b          	addw	a6,a6,a5
   12f88:	00f484bb          	addw	s1,s1,a5
   12f8c:	00fd8dbb          	addw	s11,s11,a5
   12f90:	01005c63          	blez	a6,12fa8 <_dtoa_r+0x8cc>
   12f94:	00090593          	mv	a1,s2
   12f98:	00080613          	mv	a2,a6
   12f9c:	00040513          	mv	a0,s0
   12fa0:	091020ef          	jal	15830 <__lshift>
   12fa4:	00050913          	mv	s2,a0
   12fa8:	01b05c63          	blez	s11,12fc0 <_dtoa_r+0x8e4>
   12fac:	000c0593          	mv	a1,s8
   12fb0:	000d8613          	mv	a2,s11
   12fb4:	00040513          	mv	a0,s0
   12fb8:	079020ef          	jal	15830 <__lshift>
   12fbc:	00050c13          	mv	s8,a0
   12fc0:	03012783          	lw	a5,48(sp)
   12fc4:	22079663          	bnez	a5,131f0 <_dtoa_r+0xb14>
   12fc8:	3f505e63          	blez	s5,133c4 <_dtoa_r+0xce8>
   12fcc:	01012783          	lw	a5,16(sp)
   12fd0:	14078c63          	beqz	a5,13128 <_dtoa_r+0xa4c>
   12fd4:	00905c63          	blez	s1,12fec <_dtoa_r+0x910>
   12fd8:	000a0593          	mv	a1,s4
   12fdc:	00048613          	mv	a2,s1
   12fe0:	00040513          	mv	a0,s0
   12fe4:	04d020ef          	jal	15830 <__lshift>
   12fe8:	00050a13          	mv	s4,a0
   12fec:	02012783          	lw	a5,32(sp)
   12ff0:	000a0d93          	mv	s11,s4
   12ff4:	5a079463          	bnez	a5,1359c <_dtoa_r+0xec0>
   12ff8:	fffa849b          	addiw	s1,s5,-1
   12ffc:	00813783          	ld	a5,8(sp)
   13000:	02049493          	slli	s1,s1,0x20
   13004:	0204d493          	srli	s1,s1,0x20
   13008:	00148493          	addi	s1,s1,1
   1300c:	009784b3          	add	s1,a5,s1
   13010:	00078c93          	mv	s9,a5
   13014:	001d7793          	andi	a5,s10,1
   13018:	00f13823          	sd	a5,16(sp)
   1301c:	000c0593          	mv	a1,s8
   13020:	00090513          	mv	a0,s2
   13024:	cccff0ef          	jal	124f0 <quorem>
   13028:	00050d13          	mv	s10,a0
   1302c:	02a12823          	sw	a0,48(sp)
   13030:	000a0593          	mv	a1,s4
   13034:	00090513          	mv	a0,s2
   13038:	159020ef          	jal	15990 <__mcmp>
   1303c:	00050a93          	mv	s5,a0
   13040:	000d8613          	mv	a2,s11
   13044:	000c0593          	mv	a1,s8
   13048:	00040513          	mv	a0,s0
   1304c:	1a5020ef          	jal	159f0 <__mdiff>
   13050:	01052683          	lw	a3,16(a0)
   13054:	00050793          	mv	a5,a0
   13058:	030d0d1b          	addiw	s10,s10,48
   1305c:	00100713          	li	a4,1
   13060:	00069e63          	bnez	a3,1307c <_dtoa_r+0x9a0>
   13064:	00050593          	mv	a1,a0
   13068:	02a13023          	sd	a0,32(sp)
   1306c:	00090513          	mv	a0,s2
   13070:	121020ef          	jal	15990 <__mcmp>
   13074:	02013783          	ld	a5,32(sp)
   13078:	00050713          	mv	a4,a0
   1307c:	00078593          	mv	a1,a5
   13080:	00040513          	mv	a0,s0
   13084:	02e13023          	sd	a4,32(sp)
   13088:	0bc020ef          	jal	15144 <_Bfree>
   1308c:	02013703          	ld	a4,32(sp)
   13090:	013767b3          	or	a5,a4,s3
   13094:	00079663          	bnez	a5,130a0 <_dtoa_r+0x9c4>
   13098:	01012783          	lw	a5,16(sp)
   1309c:	24078063          	beqz	a5,132dc <_dtoa_r+0xc00>
   130a0:	260ac463          	bltz	s5,13308 <_dtoa_r+0xc2c>
   130a4:	013aeab3          	or	s5,s5,s3
   130a8:	000a9663          	bnez	s5,130b4 <_dtoa_r+0x9d8>
   130ac:	01012783          	lw	a5,16(sp)
   130b0:	24078c63          	beqz	a5,13308 <_dtoa_r+0xc2c>
   130b4:	5ee04263          	bgtz	a4,13698 <_dtoa_r+0xfbc>
   130b8:	001c8c93          	addi	s9,s9,1
   130bc:	ffac8fa3          	sb	s10,-1(s9)
   130c0:	5f948463          	beq	s1,s9,136a8 <_dtoa_r+0xfcc>
   130c4:	00090593          	mv	a1,s2
   130c8:	00000693          	li	a3,0
   130cc:	00a00613          	li	a2,10
   130d0:	00040513          	mv	a0,s0
   130d4:	094020ef          	jal	15168 <__multadd>
   130d8:	00050913          	mv	s2,a0
   130dc:	00000693          	li	a3,0
   130e0:	00a00613          	li	a2,10
   130e4:	000a0593          	mv	a1,s4
   130e8:	00040513          	mv	a0,s0
   130ec:	27ba0463          	beq	s4,s11,13354 <_dtoa_r+0xc78>
   130f0:	078020ef          	jal	15168 <__multadd>
   130f4:	000d8593          	mv	a1,s11
   130f8:	00050a13          	mv	s4,a0
   130fc:	00000693          	li	a3,0
   13100:	00a00613          	li	a2,10
   13104:	00040513          	mv	a0,s0
   13108:	060020ef          	jal	15168 <__multadd>
   1310c:	00050d93          	mv	s11,a0
   13110:	f0dff06f          	j	1301c <_dtoa_r+0x940>
   13114:	01c00793          	li	a5,28
   13118:	00f8083b          	addw	a6,a6,a5
   1311c:	00f484bb          	addw	s1,s1,a5
   13120:	00fd8dbb          	addw	s11,s11,a5
   13124:	e6dff06f          	j	12f90 <_dtoa_r+0x8b4>
   13128:	00813483          	ld	s1,8(sp)
   1312c:	00100993          	li	s3,1
   13130:	0100006f          	j	13140 <_dtoa_r+0xa64>
   13134:	034020ef          	jal	15168 <__multadd>
   13138:	00050913          	mv	s2,a0
   1313c:	0019899b          	addiw	s3,s3,1
   13140:	000c0593          	mv	a1,s8
   13144:	00090513          	mv	a0,s2
   13148:	ba8ff0ef          	jal	124f0 <quorem>
   1314c:	03050d1b          	addiw	s10,a0,48
   13150:	00148493          	addi	s1,s1,1
   13154:	ffa48fa3          	sb	s10,-1(s1)
   13158:	00000693          	li	a3,0
   1315c:	00a00613          	li	a2,10
   13160:	00090593          	mv	a1,s2
   13164:	00040513          	mv	a0,s0
   13168:	fd59c6e3          	blt	s3,s5,13134 <_dtoa_r+0xa58>
   1316c:	00000993          	li	s3,0
   13170:	00090593          	mv	a1,s2
   13174:	00100613          	li	a2,1
   13178:	00040513          	mv	a0,s0
   1317c:	6b4020ef          	jal	15830 <__lshift>
   13180:	000c0593          	mv	a1,s8
   13184:	02a13023          	sd	a0,32(sp)
   13188:	009020ef          	jal	15990 <__mcmp>
   1318c:	34a05463          	blez	a0,134d4 <_dtoa_r+0xdf8>
   13190:	fff4c703          	lbu	a4,-1(s1)
   13194:	03900693          	li	a3,57
   13198:	0140006f          	j	131ac <_dtoa_r+0xad0>
   1319c:	00813703          	ld	a4,8(sp)
   131a0:	26e78a63          	beq	a5,a4,13414 <_dtoa_r+0xd38>
   131a4:	fff7c703          	lbu	a4,-1(a5)
   131a8:	00078493          	mv	s1,a5
   131ac:	fff48793          	addi	a5,s1,-1
   131b0:	fed706e3          	beq	a4,a3,1319c <_dtoa_r+0xac0>
   131b4:	0017071b          	addiw	a4,a4,1
   131b8:	00e78023          	sb	a4,0(a5)
   131bc:	000c0593          	mv	a1,s8
   131c0:	00040513          	mv	a0,s0
   131c4:	781010ef          	jal	15144 <_Bfree>
   131c8:	9e0a0ae3          	beqz	s4,12bbc <_dtoa_r+0x4e0>
   131cc:	00098a63          	beqz	s3,131e0 <_dtoa_r+0xb04>
   131d0:	01498863          	beq	s3,s4,131e0 <_dtoa_r+0xb04>
   131d4:	00098593          	mv	a1,s3
   131d8:	00040513          	mv	a0,s0
   131dc:	769010ef          	jal	15144 <_Bfree>
   131e0:	000a0593          	mv	a1,s4
   131e4:	00040513          	mv	a0,s0
   131e8:	75d010ef          	jal	15144 <_Bfree>
   131ec:	9d1ff06f          	j	12bbc <_dtoa_r+0x4e0>
   131f0:	000c0593          	mv	a1,s8
   131f4:	00090513          	mv	a0,s2
   131f8:	798020ef          	jal	15990 <__mcmp>
   131fc:	dc0556e3          	bgez	a0,12fc8 <_dtoa_r+0x8ec>
   13200:	00090593          	mv	a1,s2
   13204:	00000693          	li	a3,0
   13208:	00a00613          	li	a2,10
   1320c:	00040513          	mv	a0,s0
   13210:	759010ef          	jal	15168 <__multadd>
   13214:	01012783          	lw	a5,16(sp)
   13218:	00050913          	mv	s2,a0
   1321c:	fffb8b9b          	addiw	s7,s7,-1
   13220:	56079063          	bnez	a5,13780 <_dtoa_r+0x10a4>
   13224:	03412783          	lw	a5,52(sp)
   13228:	00078a93          	mv	s5,a5
   1322c:	eef04ee3          	bgtz	a5,13128 <_dtoa_r+0xa4c>
   13230:	00200793          	li	a5,2
   13234:	5937c063          	blt	a5,s3,137b4 <_dtoa_r+0x10d8>
   13238:	000c0593          	mv	a1,s8
   1323c:	ab4ff0ef          	jal	124f0 <quorem>
   13240:	00813783          	ld	a5,8(sp)
   13244:	03050d1b          	addiw	s10,a0,48
   13248:	00178493          	addi	s1,a5,1
   1324c:	ffa48fa3          	sb	s10,-1(s1)
   13250:	f1dff06f          	j	1316c <_dtoa_r+0xa90>
   13254:	000d8793          	mv	a5,s11
   13258:	b79ff06f          	j	12dd0 <_dtoa_r+0x6f4>
   1325c:	02012023          	sw	zero,32(sp)
   13260:	c75ff06f          	j	12ed4 <_dtoa_r+0x7f8>
   13264:	00100793          	li	a5,1
   13268:	00f12823          	sw	a5,16(sp)
   1326c:	0f905c63          	blez	s9,13364 <_dtoa_r+0xc88>
   13270:	000c8513          	mv	a0,s9
   13274:	000c8493          	mv	s1,s9
   13278:	03912a23          	sw	s9,52(sp)
   1327c:	000c8a93          	mv	s5,s9
   13280:	f3cff06f          	j	129bc <_dtoa_r+0x2e0>
   13284:	a1504ce3          	bgtz	s5,12c9c <_dtoa_r+0x5c0>
   13288:	1e0a9e63          	bnez	s5,13484 <_dtoa_r+0xda8>
   1328c:	0001b7b7          	lui	a5,0x1b
   13290:	3807b787          	fld	fa5,896(a5) # 1b380 <__wctomb+0x40>
   13294:	00000c13          	li	s8,0
   13298:	00000a13          	li	s4,0
   1329c:	12f6f6d3          	fmul.d	fa3,fa3,fa5
   132a0:	f20d07d3          	fmv.d.x	fa5,s10
   132a4:	a2d78753          	fle.d	a4,fa5,fa3
   132a8:	14070a63          	beqz	a4,133fc <_dtoa_r+0xd20>
   132ac:	00813483          	ld	s1,8(sp)
   132b0:	fffccb93          	not	s7,s9
   132b4:	000c0593          	mv	a1,s8
   132b8:	00040513          	mv	a0,s0
   132bc:	689010ef          	jal	15144 <_Bfree>
   132c0:	8e0a0ee3          	beqz	s4,12bbc <_dtoa_r+0x4e0>
   132c4:	f1dff06f          	j	131e0 <_dtoa_r+0xb04>
   132c8:	3e090c63          	beqz	s2,136c0 <_dtoa_r+0xfe4>
   132cc:	4337879b          	addiw	a5,a5,1075
   132d0:	000c0693          	mv	a3,s8
   132d4:	00080493          	mv	s1,a6
   132d8:	abdff06f          	j	12d94 <_dtoa_r+0x6b8>
   132dc:	03900793          	li	a5,57
   132e0:	04fd0a63          	beq	s10,a5,13334 <_dtoa_r+0xc58>
   132e4:	01505663          	blez	s5,132f0 <_dtoa_r+0xc14>
   132e8:	03012783          	lw	a5,48(sp)
   132ec:	03178d1b          	addiw	s10,a5,49
   132f0:	000a0993          	mv	s3,s4
   132f4:	001c8493          	addi	s1,s9,1
   132f8:	01ac8023          	sb	s10,0(s9)
   132fc:	000d8a13          	mv	s4,s11
   13300:	03213023          	sd	s2,32(sp)
   13304:	eb9ff06f          	j	131bc <_dtoa_r+0xae0>
   13308:	fee054e3          	blez	a4,132f0 <_dtoa_r+0xc14>
   1330c:	00090593          	mv	a1,s2
   13310:	00100613          	li	a2,1
   13314:	00040513          	mv	a0,s0
   13318:	518020ef          	jal	15830 <__lshift>
   1331c:	000c0593          	mv	a1,s8
   13320:	00050913          	mv	s2,a0
   13324:	66c020ef          	jal	15990 <__mcmp>
   13328:	44a05063          	blez	a0,13768 <_dtoa_r+0x108c>
   1332c:	03900793          	li	a5,57
   13330:	fafd1ce3          	bne	s10,a5,132e8 <_dtoa_r+0xc0c>
   13334:	03900793          	li	a5,57
   13338:	000a0993          	mv	s3,s4
   1333c:	001c8493          	addi	s1,s9,1
   13340:	00fc8023          	sb	a5,0(s9)
   13344:	000d8a13          	mv	s4,s11
   13348:	03213023          	sd	s2,32(sp)
   1334c:	03900713          	li	a4,57
   13350:	e45ff06f          	j	13194 <_dtoa_r+0xab8>
   13354:	615010ef          	jal	15168 <__multadd>
   13358:	00050a13          	mv	s4,a0
   1335c:	00050d93          	mv	s11,a0
   13360:	cbdff06f          	j	1301c <_dtoa_r+0x940>
   13364:	00100493          	li	s1,1
   13368:	02912a23          	sw	s1,52(sp)
   1336c:	00048a93          	mv	s5,s1
   13370:	00048c93          	mv	s9,s1
   13374:	06042423          	sw	zero,104(s0)
   13378:	00000593          	li	a1,0
   1337c:	e74ff06f          	j	129f0 <_dtoa_r+0x314>
   13380:	00012823          	sw	zero,16(sp)
   13384:	00200793          	li	a5,2
   13388:	eef982e3          	beq	s3,a5,1326c <_dtoa_r+0xb90>
   1338c:	06042423          	sw	zero,104(s0)
   13390:	00000593          	li	a1,0
   13394:	00040513          	mv	a0,s0
   13398:	03013c23          	sd	a6,56(sp)
   1339c:	4fd010ef          	jal	15098 <_Balloc>
   133a0:	fff00a93          	li	s5,-1
   133a4:	00100793          	li	a5,1
   133a8:	00a13423          	sd	a0,8(sp)
   133ac:	06a43023          	sd	a0,96(s0)
   133b0:	03512a23          	sw	s5,52(sp)
   133b4:	00000c93          	li	s9,0
   133b8:	00f12823          	sw	a5,16(sp)
   133bc:	03813803          	ld	a6,56(sp)
   133c0:	8b5ff06f          	j	12c74 <_dtoa_r+0x598>
   133c4:	00200793          	li	a5,2
   133c8:	c137d2e3          	ble	s3,a5,12fcc <_dtoa_r+0x8f0>
   133cc:	300a9663          	bnez	s5,136d8 <_dtoa_r+0xffc>
   133d0:	000c0593          	mv	a1,s8
   133d4:	00000693          	li	a3,0
   133d8:	00500613          	li	a2,5
   133dc:	00040513          	mv	a0,s0
   133e0:	589010ef          	jal	15168 <__multadd>
   133e4:	00050593          	mv	a1,a0
   133e8:	00050c13          	mv	s8,a0
   133ec:	00090513          	mv	a0,s2
   133f0:	5a0020ef          	jal	15990 <__mcmp>
   133f4:	03213023          	sd	s2,32(sp)
   133f8:	eaa05ae3          	blez	a0,132ac <_dtoa_r+0xbd0>
   133fc:	00813703          	ld	a4,8(sp)
   13400:	03100793          	li	a5,49
   13404:	001b8b9b          	addiw	s7,s7,1
   13408:	00170493          	addi	s1,a4,1
   1340c:	00f70023          	sb	a5,0(a4)
   13410:	ea5ff06f          	j	132b4 <_dtoa_r+0xbd8>
   13414:	00813703          	ld	a4,8(sp)
   13418:	03100793          	li	a5,49
   1341c:	001b8b9b          	addiw	s7,s7,1
   13420:	00f70023          	sb	a5,0(a4)
   13424:	d99ff06f          	j	131bc <_dtoa_r+0xae0>
   13428:	00012823          	sw	zero,16(sp)
   1342c:	d78ff06f          	j	129a4 <_dtoa_r+0x2c8>
   13430:	0001b7b7          	lui	a5,0x1b
   13434:	d20706d3          	fcvt.d.w	fa3,a4
   13438:	3787b707          	fld	fa4,888(a5) # 1b378 <__wctomb+0x38>
   1343c:	fcc006b7          	lui	a3,0xfcc00
   13440:	72d7f743          	fmadd.d	fa4,fa5,fa3,fa4
   13444:	e2070753          	fmv.x.d	a4,fa4
   13448:	42075793          	srai	a5,a4,0x20
   1344c:	00d787bb          	addw	a5,a5,a3
   13450:	02071713          	slli	a4,a4,0x20
   13454:	02079793          	slli	a5,a5,0x20
   13458:	02075713          	srli	a4,a4,0x20
   1345c:	00f76733          	or	a4,a4,a5
   13460:	0001b7b7          	lui	a5,0x1b
   13464:	3807b707          	fld	fa4,896(a5) # 1b380 <__wctomb+0x40>
   13468:	f20706d3          	fmv.d.x	fa3,a4
   1346c:	0ae7f7d3          	fsub.d	fa5,fa5,fa4
   13470:	a2f697d3          	flt.d	a5,fa3,fa5
   13474:	16079463          	bnez	a5,135dc <_dtoa_r+0xf00>
   13478:	22d69753          	fneg.d	fa4,fa3
   1347c:	a2e797d3          	flt.d	a5,fa5,fa4
   13480:	06078e63          	beqz	a5,134fc <_dtoa_r+0xe20>
   13484:	00000c13          	li	s8,0
   13488:	00000a13          	li	s4,0
   1348c:	e21ff06f          	j	132ac <_dtoa_r+0xbd0>
   13490:	00090593          	mv	a1,s2
   13494:	000c0613          	mv	a2,s8
   13498:	00040513          	mv	a0,s0
   1349c:	03013023          	sd	a6,32(sp)
   134a0:	258020ef          	jal	156f8 <__pow5mult>
   134a4:	00050913          	mv	s2,a0
   134a8:	02013803          	ld	a6,32(sp)
   134ac:	9b1ff06f          	j	12e5c <_dtoa_r+0x780>
   134b0:	00813503          	ld	a0,8(sp)
   134b4:	af4ff06f          	j	127a8 <_dtoa_r+0xcc>
   134b8:	02812783          	lw	a5,40(sp)
   134bc:	41868c3b          	subw	s8,a3,s8
   134c0:	018787bb          	addw	a5,a5,s8
   134c4:	02f12423          	sw	a5,40(sp)
   134c8:	00068c13          	mv	s8,a3
   134cc:	00000693          	li	a3,0
   134d0:	8b9ff06f          	j	12d88 <_dtoa_r+0x6ac>
   134d4:	00051663          	bnez	a0,134e0 <_dtoa_r+0xe04>
   134d8:	001d7d13          	andi	s10,s10,1
   134dc:	ca0d1ae3          	bnez	s10,13190 <_dtoa_r+0xab4>
   134e0:	03000693          	li	a3,48
   134e4:	0080006f          	j	134ec <_dtoa_r+0xe10>
   134e8:	00070493          	mv	s1,a4
   134ec:	fff4c783          	lbu	a5,-1(s1)
   134f0:	fff48713          	addi	a4,s1,-1
   134f4:	fed78ae3          	beq	a5,a3,134e8 <_dtoa_r+0xe0c>
   134f8:	cc5ff06f          	j	131bc <_dtoa_r+0xae0>
   134fc:	03813d03          	ld	s10,56(sp)
   13500:	f74ff06f          	j	12c74 <_dtoa_r+0x598>
   13504:	a2f6a753          	feq.d	a4,fa3,fa5
   13508:	00068493          	mv	s1,a3
   1350c:	ea070863          	beqz	a4,12bbc <_dtoa_r+0x4e0>
   13510:	0017f793          	andi	a5,a5,1
   13514:	ea078463          	beqz	a5,12bbc <_dtoa_r+0x4e0>
   13518:	fff6c783          	lbu	a5,-1(a3) # fffffffffcbfffff <_gp+0xfffffffffcbe44ef>
   1351c:	825ff06f          	j	12d40 <_dtoa_r+0x664>
   13520:	417007bb          	negw	a5,s7
   13524:	03813787          	fld	fa5,56(sp)
   13528:	00200713          	li	a4,2
   1352c:	d6078063          	beqz	a5,12a8c <_dtoa_r+0x3b0>
   13530:	00f7f693          	andi	a3,a5,15
   13534:	00019637          	lui	a2,0x19
   13538:	00369693          	slli	a3,a3,0x3
   1353c:	f8060613          	addi	a2,a2,-128 # 18f80 <__mprec_tens>
   13540:	00c686b3          	add	a3,a3,a2
   13544:	0006b787          	fld	fa5,0(a3)
   13548:	03813707          	fld	fa4,56(sp)
   1354c:	4047d79b          	sraiw	a5,a5,0x4
   13550:	12f777d3          	fmul.d	fa5,fa4,fa5
   13554:	d2078c63          	beqz	a5,12a8c <_dtoa_r+0x3b0>
   13558:	000196b7          	lui	a3,0x19
   1355c:	07068693          	addi	a3,a3,112 # 19070 <__mprec_bigtens>
   13560:	0017f613          	andi	a2,a5,1
   13564:	4017d79b          	sraiw	a5,a5,0x1
   13568:	00060863          	beqz	a2,13578 <_dtoa_r+0xe9c>
   1356c:	0006b707          	fld	fa4,0(a3)
   13570:	0017071b          	addiw	a4,a4,1
   13574:	12e7f7d3          	fmul.d	fa5,fa5,fa4
   13578:	00868693          	addi	a3,a3,8
   1357c:	fe0792e3          	bnez	a5,13560 <_dtoa_r+0xe84>
   13580:	d0cff06f          	j	12a8c <_dtoa_r+0x3b0>
   13584:	00813683          	ld	a3,8(sp)
   13588:	03000793          	li	a5,48
   1358c:	001b8b9b          	addiw	s7,s7,1
   13590:	00f68023          	sb	a5,0(a3)
   13594:	fff4c783          	lbu	a5,-1(s1)
   13598:	fc8ff06f          	j	12d60 <_dtoa_r+0x684>
   1359c:	008a2583          	lw	a1,8(s4)
   135a0:	00040513          	mv	a0,s0
   135a4:	2f5010ef          	jal	15098 <_Balloc>
   135a8:	014a2603          	lw	a2,20(s4)
   135ac:	00050493          	mv	s1,a0
   135b0:	010a0593          	addi	a1,s4,16
   135b4:	00260613          	addi	a2,a2,2
   135b8:	00261613          	slli	a2,a2,0x2
   135bc:	01050513          	addi	a0,a0,16
   135c0:	0d5010ef          	jal	14e94 <memcpy>
   135c4:	00100613          	li	a2,1
   135c8:	00048593          	mv	a1,s1
   135cc:	00040513          	mv	a0,s0
   135d0:	260020ef          	jal	15830 <__lshift>
   135d4:	00050d93          	mv	s11,a0
   135d8:	a21ff06f          	j	12ff8 <_dtoa_r+0x91c>
   135dc:	00000c13          	li	s8,0
   135e0:	00000a13          	li	s4,0
   135e4:	e19ff06f          	j	133fc <_dtoa_r+0xd20>
   135e8:	fff6079b          	addiw	a5,a2,-1
   135ec:	00019537          	lui	a0,0x19
   135f0:	c20795d3          	fcvt.w.d	a1,fa5,rtz
   135f4:	00379793          	slli	a5,a5,0x3
   135f8:	f8050513          	addi	a0,a0,-128 # 18f80 <__mprec_tens>
   135fc:	00a787b3          	add	a5,a5,a0
   13600:	0007b707          	fld	fa4,0(a5)
   13604:	00813783          	ld	a5,8(sp)
   13608:	d20586d3          	fcvt.d.w	fa3,a1
   1360c:	f2070653          	fmv.d.x	fa2,a4
   13610:	0305859b          	addiw	a1,a1,48
   13614:	00b78023          	sb	a1,0(a5)
   13618:	00178493          	addi	s1,a5,1
   1361c:	00100793          	li	a5,1
   13620:	12c77653          	fmul.d	fa2,fa4,fa2
   13624:	0ad7f7d3          	fsub.d	fa5,fa5,fa3
   13628:	04f60863          	beq	a2,a5,13678 <_dtoa_r+0xf9c>
   1362c:	ffe6061b          	addiw	a2,a2,-2
   13630:	0001b7b7          	lui	a5,0x1b
   13634:	02061593          	slli	a1,a2,0x20
   13638:	3707b687          	fld	fa3,880(a5) # 1b370 <__wctomb+0x30>
   1363c:	00813783          	ld	a5,8(sp)
   13640:	0205d593          	srli	a1,a1,0x20
   13644:	00258513          	addi	a0,a1,2
   13648:	00a78533          	add	a0,a5,a0
   1364c:	00048613          	mv	a2,s1
   13650:	12d7f7d3          	fmul.d	fa5,fa5,fa3
   13654:	00160613          	addi	a2,a2,1
   13658:	c20797d3          	fcvt.w.d	a5,fa5,rtz
   1365c:	d2078753          	fcvt.d.w	fa4,a5
   13660:	0307879b          	addiw	a5,a5,48
   13664:	fef60fa3          	sb	a5,-1(a2)
   13668:	0ae7f7d3          	fsub.d	fa5,fa5,fa4
   1366c:	fea612e3          	bne	a2,a0,13650 <_dtoa_r+0xf74>
   13670:	00158593          	addi	a1,a1,1
   13674:	00b484b3          	add	s1,s1,a1
   13678:	0001b7b7          	lui	a5,0x1b
   1367c:	3887b707          	fld	fa4,904(a5) # 1b388 <__wctomb+0x48>
   13680:	02e676d3          	fadd.d	fa3,fa2,fa4
   13684:	a2f697d3          	flt.d	a5,fa3,fa5
   13688:	0a078663          	beqz	a5,13734 <_dtoa_r+0x1058>
   1368c:	fff4c783          	lbu	a5,-1(s1)
   13690:	00068b93          	mv	s7,a3
   13694:	eacff06f          	j	12d40 <_dtoa_r+0x664>
   13698:	03900793          	li	a5,57
   1369c:	c8fd0ce3          	beq	s10,a5,13334 <_dtoa_r+0xc58>
   136a0:	001d0d1b          	addiw	s10,s10,1
   136a4:	c4dff06f          	j	132f0 <_dtoa_r+0xc14>
   136a8:	000a0993          	mv	s3,s4
   136ac:	000d8a13          	mv	s4,s11
   136b0:	ac1ff06f          	j	13170 <_dtoa_r+0xa94>
   136b4:	415804bb          	subw	s1,a6,s5
   136b8:	00000793          	li	a5,0
   136bc:	ed8ff06f          	j	12d94 <_dtoa_r+0x6b8>
   136c0:	05812603          	lw	a2,88(sp)
   136c4:	03600793          	li	a5,54
   136c8:	000c0693          	mv	a3,s8
   136cc:	40c787bb          	subw	a5,a5,a2
   136d0:	00080493          	mv	s1,a6
   136d4:	ec0ff06f          	j	12d94 <_dtoa_r+0x6b8>
   136d8:	03213023          	sd	s2,32(sp)
   136dc:	bd1ff06f          	j	132ac <_dtoa_r+0xbd0>
   136e0:	d40a88e3          	beqz	s5,13430 <_dtoa_r+0xd54>
   136e4:	03412603          	lw	a2,52(sp)
   136e8:	e0c05ae3          	blez	a2,134fc <_dtoa_r+0xe20>
   136ec:	0001b7b7          	lui	a5,0x1b
   136f0:	3707b707          	fld	fa4,880(a5) # 1b370 <__wctomb+0x30>
   136f4:	0017071b          	addiw	a4,a4,1
   136f8:	0001b7b7          	lui	a5,0x1b
   136fc:	12e7f7d3          	fmul.d	fa5,fa5,fa4
   13700:	d20706d3          	fcvt.d.w	fa3,a4
   13704:	3787b707          	fld	fa4,888(a5) # 1b378 <__wctomb+0x38>
   13708:	fcc005b7          	lui	a1,0xfcc00
   1370c:	fffb869b          	addiw	a3,s7,-1
   13710:	72d7f743          	fmadd.d	fa4,fa5,fa3,fa4
   13714:	e2070753          	fmv.x.d	a4,fa4
   13718:	42075793          	srai	a5,a4,0x20
   1371c:	00b787bb          	addw	a5,a5,a1
   13720:	02071713          	slli	a4,a4,0x20
   13724:	02079793          	slli	a5,a5,0x20
   13728:	02075713          	srli	a4,a4,0x20
   1372c:	00f76733          	or	a4,a4,a5
   13730:	bb0ff06f          	j	12ae0 <_dtoa_r+0x404>
   13734:	0ac77753          	fsub.d	fa4,fa4,fa2
   13738:	03000613          	li	a2,48
   1373c:	a2e797d3          	flt.d	a5,fa5,fa4
   13740:	00079663          	bnez	a5,1374c <_dtoa_r+0x1070>
   13744:	db9ff06f          	j	134fc <_dtoa_r+0xe20>
   13748:	00070493          	mv	s1,a4
   1374c:	fff4c783          	lbu	a5,-1(s1)
   13750:	fff48713          	addi	a4,s1,-1
   13754:	fec78ae3          	beq	a5,a2,13748 <_dtoa_r+0x106c>
   13758:	00068b93          	mv	s7,a3
   1375c:	c60ff06f          	j	12bbc <_dtoa_r+0x4e0>
   13760:	00068b93          	mv	s7,a3
   13764:	ddcff06f          	j	12d40 <_dtoa_r+0x664>
   13768:	b80514e3          	bnez	a0,132f0 <_dtoa_r+0xc14>
   1376c:	001d7793          	andi	a5,s10,1
   13770:	b80780e3          	beqz	a5,132f0 <_dtoa_r+0xc14>
   13774:	bb9ff06f          	j	1332c <_dtoa_r+0xc50>
   13778:	00048693          	mv	a3,s1
   1377c:	db0ff06f          	j	12d2c <_dtoa_r+0x650>
   13780:	000a0593          	mv	a1,s4
   13784:	00000693          	li	a3,0
   13788:	00a00613          	li	a2,10
   1378c:	00040513          	mv	a0,s0
   13790:	1d9010ef          	jal	15168 <__multadd>
   13794:	03412783          	lw	a5,52(sp)
   13798:	00050a13          	mv	s4,a0
   1379c:	00078a93          	mv	s5,a5
   137a0:	82f04ae3          	bgtz	a5,12fd4 <_dtoa_r+0x8f8>
   137a4:	00200793          	li	a5,2
   137a8:	0137c663          	blt	a5,s3,137b4 <_dtoa_r+0x10d8>
   137ac:	03412a83          	lw	s5,52(sp)
   137b0:	825ff06f          	j	12fd4 <_dtoa_r+0x8f8>
   137b4:	03412a83          	lw	s5,52(sp)
   137b8:	c15ff06f          	j	133cc <_dtoa_r+0xcf0>
   137bc:	00cd1713          	slli	a4,s10,0xc
   137c0:	ee070263          	beqz	a4,12ea4 <_dtoa_r+0x7c8>
   137c4:	f94ff06f          	j	12f58 <_dtoa_r+0x87c>
   137c8:	fcc68463          	beq	a3,a2,12f90 <_dtoa_r+0x8b4>
   137cc:	03c00693          	li	a3,60
   137d0:	40f687bb          	subw	a5,a3,a5
   137d4:	945ff06f          	j	13118 <_dtoa_r+0xa3c>

00000000000137d8 <__sflush_r>:
   137d8:	01059683          	lh	a3,16(a1) # fffffffffcc00010 <_gp+0xfffffffffcbe4500>
   137dc:	fd010113          	addi	sp,sp,-48
   137e0:	00913c23          	sd	s1,24(sp)
   137e4:	03069713          	slli	a4,a3,0x30
   137e8:	03075713          	srli	a4,a4,0x30
   137ec:	01313423          	sd	s3,8(sp)
   137f0:	02113423          	sd	ra,40(sp)
   137f4:	02813023          	sd	s0,32(sp)
   137f8:	01213823          	sd	s2,16(sp)
   137fc:	00877793          	andi	a5,a4,8
   13800:	00058493          	mv	s1,a1
   13804:	00050993          	mv	s3,a0
   13808:	0e079863          	bnez	a5,138f8 <__sflush_r+0x120>
   1380c:	000017b7          	lui	a5,0x1
   13810:	8007879b          	addiw	a5,a5,-2048
   13814:	00f6e7b3          	or	a5,a3,a5
   13818:	0107979b          	slliw	a5,a5,0x10
   1381c:	0085a703          	lw	a4,8(a1)
   13820:	4107d79b          	sraiw	a5,a5,0x10
   13824:	00f59823          	sh	a5,16(a1)
   13828:	1ae05863          	blez	a4,139d8 <__sflush_r+0x200>
   1382c:	0484b703          	ld	a4,72(s1)
   13830:	0a070463          	beqz	a4,138d8 <__sflush_r+0x100>
   13834:	03079793          	slli	a5,a5,0x30
   13838:	0307d793          	srli	a5,a5,0x30
   1383c:	0009a403          	lw	s0,0(s3)
   13840:	03379693          	slli	a3,a5,0x33
   13844:	0009a023          	sw	zero,0(s3)
   13848:	1806de63          	bgez	a3,139e4 <__sflush_r+0x20c>
   1384c:	0904b603          	ld	a2,144(s1)
   13850:	0047f793          	andi	a5,a5,4
   13854:	00078e63          	beqz	a5,13870 <__sflush_r+0x98>
   13858:	0084a683          	lw	a3,8(s1)
   1385c:	0584b783          	ld	a5,88(s1)
   13860:	40d60633          	sub	a2,a2,a3
   13864:	00078663          	beqz	a5,13870 <__sflush_r+0x98>
   13868:	0704a783          	lw	a5,112(s1)
   1386c:	40f60633          	sub	a2,a2,a5
   13870:	0304b583          	ld	a1,48(s1)
   13874:	00000693          	li	a3,0
   13878:	00098513          	mv	a0,s3
   1387c:	000700e7          	jalr	a4
   13880:	fff00793          	li	a5,-1
   13884:	0ef50c63          	beq	a0,a5,1397c <__sflush_r+0x1a4>
   13888:	0104d683          	lhu	a3,16(s1)
   1388c:	fffff7b7          	lui	a5,0xfffff
   13890:	7ff7879b          	addiw	a5,a5,2047
   13894:	0184b703          	ld	a4,24(s1)
   13898:	00f6f7b3          	and	a5,a3,a5
   1389c:	0107979b          	slliw	a5,a5,0x10
   138a0:	4107d79b          	sraiw	a5,a5,0x10
   138a4:	00e4b023          	sd	a4,0(s1)
   138a8:	00f49823          	sh	a5,16(s1)
   138ac:	0004a423          	sw	zero,8(s1)
   138b0:	03379713          	slli	a4,a5,0x33
   138b4:	10074e63          	bltz	a4,139d0 <__sflush_r+0x1f8>
   138b8:	0584b583          	ld	a1,88(s1)
   138bc:	0089a023          	sw	s0,0(s3)
   138c0:	00058c63          	beqz	a1,138d8 <__sflush_r+0x100>
   138c4:	07448793          	addi	a5,s1,116
   138c8:	00f58663          	beq	a1,a5,138d4 <__sflush_r+0xfc>
   138cc:	00098513          	mv	a0,s3
   138d0:	678000ef          	jal	13f48 <_free_r>
   138d4:	0404bc23          	sd	zero,88(s1)
   138d8:	00000513          	li	a0,0
   138dc:	02813083          	ld	ra,40(sp)
   138e0:	02013403          	ld	s0,32(sp)
   138e4:	01813483          	ld	s1,24(sp)
   138e8:	01013903          	ld	s2,16(sp)
   138ec:	00813983          	ld	s3,8(sp)
   138f0:	03010113          	addi	sp,sp,48
   138f4:	00008067          	ret
   138f8:	0185b903          	ld	s2,24(a1)
   138fc:	fc090ee3          	beqz	s2,138d8 <__sflush_r+0x100>
   13900:	0005b403          	ld	s0,0(a1)
   13904:	00377713          	andi	a4,a4,3
   13908:	0125b023          	sd	s2,0(a1)
   1390c:	4124043b          	subw	s0,s0,s2
   13910:	00000793          	li	a5,0
   13914:	00071463          	bnez	a4,1391c <__sflush_r+0x144>
   13918:	0205a783          	lw	a5,32(a1)
   1391c:	00f4a623          	sw	a5,12(s1)
   13920:	00804863          	bgtz	s0,13930 <__sflush_r+0x158>
   13924:	fb5ff06f          	j	138d8 <__sflush_r+0x100>
   13928:	00a90933          	add	s2,s2,a0
   1392c:	fa8056e3          	blez	s0,138d8 <__sflush_r+0x100>
   13930:	0404b783          	ld	a5,64(s1)
   13934:	0304b583          	ld	a1,48(s1)
   13938:	00040693          	mv	a3,s0
   1393c:	00090613          	mv	a2,s2
   13940:	00098513          	mv	a0,s3
   13944:	000780e7          	jalr	a5
   13948:	40a4043b          	subw	s0,s0,a0
   1394c:	fca04ee3          	bgtz	a0,13928 <__sflush_r+0x150>
   13950:	0104d783          	lhu	a5,16(s1)
   13954:	02813083          	ld	ra,40(sp)
   13958:	fff00513          	li	a0,-1
   1395c:	0407e793          	ori	a5,a5,64
   13960:	00f49823          	sh	a5,16(s1)
   13964:	02013403          	ld	s0,32(sp)
   13968:	01813483          	ld	s1,24(sp)
   1396c:	01013903          	ld	s2,16(sp)
   13970:	00813983          	ld	s3,8(sp)
   13974:	03010113          	addi	sp,sp,48
   13978:	00008067          	ret
   1397c:	0009a703          	lw	a4,0(s3)
   13980:	01d00793          	li	a5,29
   13984:	fce7e6e3          	bltu	a5,a4,13950 <__sflush_r+0x178>
   13988:	204007b7          	lui	a5,0x20400
   1398c:	00178793          	addi	a5,a5,1 # 20400001 <_gp+0x203e44f1>
   13990:	00e7d7b3          	srl	a5,a5,a4
   13994:	0017f793          	andi	a5,a5,1
   13998:	fa078ce3          	beqz	a5,13950 <__sflush_r+0x178>
   1399c:	0104d603          	lhu	a2,16(s1)
   139a0:	fffff7b7          	lui	a5,0xfffff
   139a4:	7ff7879b          	addiw	a5,a5,2047
   139a8:	0184b683          	ld	a3,24(s1)
   139ac:	00f677b3          	and	a5,a2,a5
   139b0:	0107979b          	slliw	a5,a5,0x10
   139b4:	4107d79b          	sraiw	a5,a5,0x10
   139b8:	00d4b023          	sd	a3,0(s1)
   139bc:	00f49823          	sh	a5,16(s1)
   139c0:	0004a423          	sw	zero,8(s1)
   139c4:	03379693          	slli	a3,a5,0x33
   139c8:	ee06d8e3          	bgez	a3,138b8 <__sflush_r+0xe0>
   139cc:	ee0716e3          	bnez	a4,138b8 <__sflush_r+0xe0>
   139d0:	08a4b823          	sd	a0,144(s1)
   139d4:	ee5ff06f          	j	138b8 <__sflush_r+0xe0>
   139d8:	0705a703          	lw	a4,112(a1)
   139dc:	e4e048e3          	bgtz	a4,1382c <__sflush_r+0x54>
   139e0:	ef9ff06f          	j	138d8 <__sflush_r+0x100>
   139e4:	0304b583          	ld	a1,48(s1)
   139e8:	00000613          	li	a2,0
   139ec:	00100693          	li	a3,1
   139f0:	00098513          	mv	a0,s3
   139f4:	000700e7          	jalr	a4
   139f8:	fff00793          	li	a5,-1
   139fc:	00050613          	mv	a2,a0
   13a00:	00f50863          	beq	a0,a5,13a10 <__sflush_r+0x238>
   13a04:	0104d783          	lhu	a5,16(s1)
   13a08:	0484b703          	ld	a4,72(s1)
   13a0c:	e45ff06f          	j	13850 <__sflush_r+0x78>
   13a10:	0009a783          	lw	a5,0(s3)
   13a14:	fe0788e3          	beqz	a5,13a04 <__sflush_r+0x22c>
   13a18:	01d00713          	li	a4,29
   13a1c:	00e78663          	beq	a5,a4,13a28 <__sflush_r+0x250>
   13a20:	01600713          	li	a4,22
   13a24:	00e79863          	bne	a5,a4,13a34 <__sflush_r+0x25c>
   13a28:	0089a023          	sw	s0,0(s3)
   13a2c:	00000513          	li	a0,0
   13a30:	eadff06f          	j	138dc <__sflush_r+0x104>
   13a34:	0104d783          	lhu	a5,16(s1)
   13a38:	0407e793          	ori	a5,a5,64
   13a3c:	00f49823          	sh	a5,16(s1)
   13a40:	e9dff06f          	j	138dc <__sflush_r+0x104>

0000000000013a44 <_fflush_r>:
   13a44:	fe010113          	addi	sp,sp,-32
   13a48:	00813823          	sd	s0,16(sp)
   13a4c:	00113c23          	sd	ra,24(sp)
   13a50:	00050413          	mv	s0,a0
   13a54:	00050663          	beqz	a0,13a60 <_fflush_r+0x1c>
   13a58:	05052783          	lw	a5,80(a0)
   13a5c:	02078a63          	beqz	a5,13a90 <_fflush_r+0x4c>
   13a60:	01059783          	lh	a5,16(a1)
   13a64:	00079c63          	bnez	a5,13a7c <_fflush_r+0x38>
   13a68:	01813083          	ld	ra,24(sp)
   13a6c:	00000513          	li	a0,0
   13a70:	01013403          	ld	s0,16(sp)
   13a74:	02010113          	addi	sp,sp,32
   13a78:	00008067          	ret
   13a7c:	00040513          	mv	a0,s0
   13a80:	01813083          	ld	ra,24(sp)
   13a84:	01013403          	ld	s0,16(sp)
   13a88:	02010113          	addi	sp,sp,32
   13a8c:	d4dff06f          	j	137d8 <__sflush_r>
   13a90:	00b13423          	sd	a1,8(sp)
   13a94:	35c000ef          	jal	13df0 <__sinit>
   13a98:	00813583          	ld	a1,8(sp)
   13a9c:	fc5ff06f          	j	13a60 <_fflush_r+0x1c>

0000000000013aa0 <fflush>:
   13aa0:	00050593          	mv	a1,a0
   13aa4:	00050663          	beqz	a0,13ab0 <fflush+0x10>
   13aa8:	8101b503          	ld	a0,-2032(gp) # 1b320 <_impure_ptr>
   13aac:	f99ff06f          	j	13a44 <_fflush_r>
   13ab0:	8081b503          	ld	a0,-2040(gp) # 1b318 <_global_impure_ptr>
   13ab4:	000145b7          	lui	a1,0x14
   13ab8:	a4458593          	addi	a1,a1,-1468 # 13a44 <_fflush_r>
   13abc:	04d0006f          	j	14308 <_fwalk_reent>

0000000000013ac0 <__fp_unlock>:
   13ac0:	00000513          	li	a0,0
   13ac4:	00008067          	ret

0000000000013ac8 <_cleanup_r>:
   13ac8:	000175b7          	lui	a1,0x17
   13acc:	7e858593          	addi	a1,a1,2024 # 177e8 <_fclose_r>
   13ad0:	0390006f          	j	14308 <_fwalk_reent>

0000000000013ad4 <__sinit.part.1>:
   13ad4:	fc010113          	addi	sp,sp,-64
   13ad8:	000147b7          	lui	a5,0x14
   13adc:	02113c23          	sd	ra,56(sp)
   13ae0:	02813823          	sd	s0,48(sp)
   13ae4:	02913423          	sd	s1,40(sp)
   13ae8:	00853403          	ld	s0,8(a0)
   13aec:	03213023          	sd	s2,32(sp)
   13af0:	01313c23          	sd	s3,24(sp)
   13af4:	01413823          	sd	s4,16(sp)
   13af8:	01513423          	sd	s5,8(sp)
   13afc:	01613023          	sd	s6,0(sp)
   13b00:	ac878793          	addi	a5,a5,-1336 # 13ac8 <_cleanup_r>
   13b04:	04f53c23          	sd	a5,88(a0)
   13b08:	53850713          	addi	a4,a0,1336
   13b0c:	00300793          	li	a5,3
   13b10:	52e53823          	sd	a4,1328(a0)
   13b14:	52f52423          	sw	a5,1320(a0)
   13b18:	52053023          	sd	zero,1312(a0)
   13b1c:	00400793          	li	a5,4
   13b20:	00050913          	mv	s2,a0
   13b24:	00f41823          	sh	a5,16(s0)
   13b28:	00800613          	li	a2,8
   13b2c:	00000593          	li	a1,0
   13b30:	00043023          	sd	zero,0(s0)
   13b34:	00042423          	sw	zero,8(s0)
   13b38:	00042623          	sw	zero,12(s0)
   13b3c:	0a042623          	sw	zero,172(s0)
   13b40:	00041923          	sh	zero,18(s0)
   13b44:	00043c23          	sd	zero,24(s0)
   13b48:	02042023          	sw	zero,32(s0)
   13b4c:	02042423          	sw	zero,40(s0)
   13b50:	0a440513          	addi	a0,s0,164
   13b54:	460010ef          	jal	14fb4 <memset>
   13b58:	00016b37          	lui	s6,0x16
   13b5c:	01093483          	ld	s1,16(s2)
   13b60:	00016ab7          	lui	s5,0x16
   13b64:	00016a37          	lui	s4,0x16
   13b68:	000169b7          	lui	s3,0x16
   13b6c:	174b0b13          	addi	s6,s6,372 # 16174 <__sread>
   13b70:	1e0a8a93          	addi	s5,s5,480 # 161e0 <__swrite>
   13b74:	250a0a13          	addi	s4,s4,592 # 16250 <__sseek>
   13b78:	2bc98993          	addi	s3,s3,700 # 162bc <__sclose>
   13b7c:	03643c23          	sd	s6,56(s0)
   13b80:	05543023          	sd	s5,64(s0)
   13b84:	05443423          	sd	s4,72(s0)
   13b88:	05343823          	sd	s3,80(s0)
   13b8c:	02843823          	sd	s0,48(s0)
   13b90:	00900793          	li	a5,9
   13b94:	00f49823          	sh	a5,16(s1)
   13b98:	00100793          	li	a5,1
   13b9c:	00f49923          	sh	a5,18(s1)
   13ba0:	00800613          	li	a2,8
   13ba4:	00000593          	li	a1,0
   13ba8:	0004b023          	sd	zero,0(s1)
   13bac:	0004a423          	sw	zero,8(s1)
   13bb0:	0004a623          	sw	zero,12(s1)
   13bb4:	0a04a623          	sw	zero,172(s1)
   13bb8:	0004bc23          	sd	zero,24(s1)
   13bbc:	0204a023          	sw	zero,32(s1)
   13bc0:	0204a423          	sw	zero,40(s1)
   13bc4:	0a448513          	addi	a0,s1,164
   13bc8:	3ec010ef          	jal	14fb4 <memset>
   13bcc:	01893403          	ld	s0,24(s2)
   13bd0:	01200793          	li	a5,18
   13bd4:	0364bc23          	sd	s6,56(s1)
   13bd8:	0554b023          	sd	s5,64(s1)
   13bdc:	0544b423          	sd	s4,72(s1)
   13be0:	0534b823          	sd	s3,80(s1)
   13be4:	0294b823          	sd	s1,48(s1)
   13be8:	00f41823          	sh	a5,16(s0)
   13bec:	00200793          	li	a5,2
   13bf0:	00f41923          	sh	a5,18(s0)
   13bf4:	00043023          	sd	zero,0(s0)
   13bf8:	00042423          	sw	zero,8(s0)
   13bfc:	00042623          	sw	zero,12(s0)
   13c00:	0a042623          	sw	zero,172(s0)
   13c04:	00043c23          	sd	zero,24(s0)
   13c08:	02042023          	sw	zero,32(s0)
   13c0c:	02042423          	sw	zero,40(s0)
   13c10:	0a440513          	addi	a0,s0,164
   13c14:	00800613          	li	a2,8
   13c18:	00000593          	li	a1,0
   13c1c:	398010ef          	jal	14fb4 <memset>
   13c20:	03813083          	ld	ra,56(sp)
   13c24:	03643c23          	sd	s6,56(s0)
   13c28:	05543023          	sd	s5,64(s0)
   13c2c:	05443423          	sd	s4,72(s0)
   13c30:	05343823          	sd	s3,80(s0)
   13c34:	02843823          	sd	s0,48(s0)
   13c38:	00100793          	li	a5,1
   13c3c:	04f92823          	sw	a5,80(s2)
   13c40:	03013403          	ld	s0,48(sp)
   13c44:	02813483          	ld	s1,40(sp)
   13c48:	02013903          	ld	s2,32(sp)
   13c4c:	01813983          	ld	s3,24(sp)
   13c50:	01013a03          	ld	s4,16(sp)
   13c54:	00813a83          	ld	s5,8(sp)
   13c58:	00013b03          	ld	s6,0(sp)
   13c5c:	04010113          	addi	sp,sp,64
   13c60:	00008067          	ret

0000000000013c64 <__fp_lock>:
   13c64:	00000513          	li	a0,0
   13c68:	00008067          	ret

0000000000013c6c <__sfmoreglue>:
   13c6c:	fe010113          	addi	sp,sp,-32
   13c70:	fff5879b          	addiw	a5,a1,-1
   13c74:	00913423          	sd	s1,8(sp)
   13c78:	0b000493          	li	s1,176
   13c7c:	029784b3          	mul	s1,a5,s1
   13c80:	01213023          	sd	s2,0(sp)
   13c84:	00058913          	mv	s2,a1
   13c88:	00813823          	sd	s0,16(sp)
   13c8c:	00113c23          	sd	ra,24(sp)
   13c90:	0c848593          	addi	a1,s1,200
   13c94:	1a9000ef          	jal	1463c <_malloc_r>
   13c98:	00050413          	mv	s0,a0
   13c9c:	02050063          	beqz	a0,13cbc <__sfmoreglue+0x50>
   13ca0:	01850513          	addi	a0,a0,24
   13ca4:	00043023          	sd	zero,0(s0)
   13ca8:	01242423          	sw	s2,8(s0)
   13cac:	00a43823          	sd	a0,16(s0)
   13cb0:	0b048613          	addi	a2,s1,176
   13cb4:	00000593          	li	a1,0
   13cb8:	2fc010ef          	jal	14fb4 <memset>
   13cbc:	01813083          	ld	ra,24(sp)
   13cc0:	00040513          	mv	a0,s0
   13cc4:	00813483          	ld	s1,8(sp)
   13cc8:	01013403          	ld	s0,16(sp)
   13ccc:	00013903          	ld	s2,0(sp)
   13cd0:	02010113          	addi	sp,sp,32
   13cd4:	00008067          	ret

0000000000013cd8 <__sfp>:
   13cd8:	fd010113          	addi	sp,sp,-48
   13cdc:	01213823          	sd	s2,16(sp)
   13ce0:	8081b903          	ld	s2,-2040(gp) # 1b318 <_global_impure_ptr>
   13ce4:	01313423          	sd	s3,8(sp)
   13ce8:	02113423          	sd	ra,40(sp)
   13cec:	05092783          	lw	a5,80(s2)
   13cf0:	02813023          	sd	s0,32(sp)
   13cf4:	00913c23          	sd	s1,24(sp)
   13cf8:	00050993          	mv	s3,a0
   13cfc:	00079663          	bnez	a5,13d08 <__sfp+0x30>
   13d00:	00090513          	mv	a0,s2
   13d04:	dd1ff0ef          	jal	13ad4 <__sinit.part.1>
   13d08:	52090913          	addi	s2,s2,1312
   13d0c:	fff00493          	li	s1,-1
   13d10:	00892783          	lw	a5,8(s2)
   13d14:	01093403          	ld	s0,16(s2)
   13d18:	fff7879b          	addiw	a5,a5,-1
   13d1c:	0007da63          	bgez	a5,13d30 <__sfp+0x58>
   13d20:	0840006f          	j	13da4 <__sfp+0xcc>
   13d24:	fff7879b          	addiw	a5,a5,-1
   13d28:	0b040413          	addi	s0,s0,176
   13d2c:	06978c63          	beq	a5,s1,13da4 <__sfp+0xcc>
   13d30:	01041703          	lh	a4,16(s0)
   13d34:	fe0718e3          	bnez	a4,13d24 <__sfp+0x4c>
   13d38:	fff00793          	li	a5,-1
   13d3c:	00f41923          	sh	a5,18(s0)
   13d40:	00100793          	li	a5,1
   13d44:	00f41823          	sh	a5,16(s0)
   13d48:	0a042623          	sw	zero,172(s0)
   13d4c:	00043023          	sd	zero,0(s0)
   13d50:	00042623          	sw	zero,12(s0)
   13d54:	00042423          	sw	zero,8(s0)
   13d58:	00043c23          	sd	zero,24(s0)
   13d5c:	02042023          	sw	zero,32(s0)
   13d60:	02042423          	sw	zero,40(s0)
   13d64:	00800613          	li	a2,8
   13d68:	00000593          	li	a1,0
   13d6c:	0a440513          	addi	a0,s0,164
   13d70:	244010ef          	jal	14fb4 <memset>
   13d74:	00040513          	mv	a0,s0
   13d78:	04043c23          	sd	zero,88(s0)
   13d7c:	06042023          	sw	zero,96(s0)
   13d80:	06043c23          	sd	zero,120(s0)
   13d84:	08042023          	sw	zero,128(s0)
   13d88:	02813083          	ld	ra,40(sp)
   13d8c:	02013403          	ld	s0,32(sp)
   13d90:	01813483          	ld	s1,24(sp)
   13d94:	01013903          	ld	s2,16(sp)
   13d98:	00813983          	ld	s3,8(sp)
   13d9c:	03010113          	addi	sp,sp,48
   13da0:	00008067          	ret
   13da4:	00093783          	ld	a5,0(s2)
   13da8:	00078663          	beqz	a5,13db4 <__sfp+0xdc>
   13dac:	00078913          	mv	s2,a5
   13db0:	f61ff06f          	j	13d10 <__sfp+0x38>
   13db4:	00400593          	li	a1,4
   13db8:	00098513          	mv	a0,s3
   13dbc:	eb1ff0ef          	jal	13c6c <__sfmoreglue>
   13dc0:	00a93023          	sd	a0,0(s2)
   13dc4:	00050663          	beqz	a0,13dd0 <__sfp+0xf8>
   13dc8:	00050913          	mv	s2,a0
   13dcc:	f45ff06f          	j	13d10 <__sfp+0x38>
   13dd0:	00c00793          	li	a5,12
   13dd4:	00f9a023          	sw	a5,0(s3)
   13dd8:	00000513          	li	a0,0
   13ddc:	fadff06f          	j	13d88 <__sfp+0xb0>

0000000000013de0 <_cleanup>:
   13de0:	8081b503          	ld	a0,-2040(gp) # 1b318 <_global_impure_ptr>
   13de4:	000175b7          	lui	a1,0x17
   13de8:	7e858593          	addi	a1,a1,2024 # 177e8 <_fclose_r>
   13dec:	51c0006f          	j	14308 <_fwalk_reent>

0000000000013df0 <__sinit>:
   13df0:	05052783          	lw	a5,80(a0)
   13df4:	00078463          	beqz	a5,13dfc <__sinit+0xc>
   13df8:	00008067          	ret
   13dfc:	cd9ff06f          	j	13ad4 <__sinit.part.1>

0000000000013e00 <__sfp_lock_acquire>:
   13e00:	00008067          	ret

0000000000013e04 <__sfp_lock_release>:
   13e04:	00008067          	ret

0000000000013e08 <__sinit_lock_acquire>:
   13e08:	00008067          	ret

0000000000013e0c <__sinit_lock_release>:
   13e0c:	00008067          	ret

0000000000013e10 <__fp_lock_all>:
   13e10:	8101b503          	ld	a0,-2032(gp) # 1b320 <_impure_ptr>
   13e14:	000145b7          	lui	a1,0x14
   13e18:	c6458593          	addi	a1,a1,-924 # 13c64 <__fp_lock>
   13e1c:	43c0006f          	j	14258 <_fwalk>

0000000000013e20 <__fp_unlock_all>:
   13e20:	8101b503          	ld	a0,-2032(gp) # 1b320 <_impure_ptr>
   13e24:	000145b7          	lui	a1,0x14
   13e28:	ac058593          	addi	a1,a1,-1344 # 13ac0 <__fp_unlock>
   13e2c:	42c0006f          	j	14258 <_fwalk>

0000000000013e30 <_malloc_trim_r>:
   13e30:	fd010113          	addi	sp,sp,-48
   13e34:	01213823          	sd	s2,16(sp)
   13e38:	0001b937          	lui	s2,0x1b
   13e3c:	02813023          	sd	s0,32(sp)
   13e40:	00913c23          	sd	s1,24(sp)
   13e44:	00058413          	mv	s0,a1
   13e48:	01313423          	sd	s3,8(sp)
   13e4c:	02113423          	sd	ra,40(sp)
   13e50:	00050993          	mv	s3,a0
   13e54:	af890913          	addi	s2,s2,-1288 # 1aaf8 <__malloc_av_>
   13e58:	238010ef          	jal	15090 <__malloc_lock>
   13e5c:	01093703          	ld	a4,16(s2)
   13e60:	000017b7          	lui	a5,0x1
   13e64:	fdf78593          	addi	a1,a5,-33 # fdf <_ftext-0xf021>
   13e68:	00873483          	ld	s1,8(a4)
   13e6c:	ffc4f493          	andi	s1,s1,-4
   13e70:	40848433          	sub	s0,s1,s0
   13e74:	00b40433          	add	s0,s0,a1
   13e78:	00c45413          	srli	s0,s0,0xc
   13e7c:	fff40413          	addi	s0,s0,-1
   13e80:	00c41413          	slli	s0,s0,0xc
   13e84:	00f44c63          	blt	s0,a5,13e9c <_malloc_trim_r+0x6c>
   13e88:	00000513          	li	a0,0
   13e8c:	6c5040ef          	jal	18d50 <sbrk>
   13e90:	01093783          	ld	a5,16(s2)
   13e94:	009787b3          	add	a5,a5,s1
   13e98:	02f50663          	beq	a0,a5,13ec4 <_malloc_trim_r+0x94>
   13e9c:	00098513          	mv	a0,s3
   13ea0:	1f4010ef          	jal	15094 <__malloc_unlock>
   13ea4:	02813083          	ld	ra,40(sp)
   13ea8:	00000513          	li	a0,0
   13eac:	02013403          	ld	s0,32(sp)
   13eb0:	01813483          	ld	s1,24(sp)
   13eb4:	01013903          	ld	s2,16(sp)
   13eb8:	00813983          	ld	s3,8(sp)
   13ebc:	03010113          	addi	sp,sp,48
   13ec0:	00008067          	ret
   13ec4:	40800533          	neg	a0,s0
   13ec8:	689040ef          	jal	18d50 <sbrk>
   13ecc:	fff00793          	li	a5,-1
   13ed0:	04f50463          	beq	a0,a5,13f18 <_malloc_trim_r+0xe8>
   13ed4:	9001a783          	lw	a5,-1792(gp) # 1b410 <__malloc_current_mallinfo>
   13ed8:	01093683          	ld	a3,16(s2)
   13edc:	408484b3          	sub	s1,s1,s0
   13ee0:	0014e493          	ori	s1,s1,1
   13ee4:	4087843b          	subw	s0,a5,s0
   13ee8:	00098513          	mv	a0,s3
   13eec:	0096b423          	sd	s1,8(a3)
   13ef0:	9081a023          	sw	s0,-1792(gp) # 1b410 <__malloc_current_mallinfo>
   13ef4:	1a0010ef          	jal	15094 <__malloc_unlock>
   13ef8:	02813083          	ld	ra,40(sp)
   13efc:	00100513          	li	a0,1
   13f00:	02013403          	ld	s0,32(sp)
   13f04:	01813483          	ld	s1,24(sp)
   13f08:	01013903          	ld	s2,16(sp)
   13f0c:	00813983          	ld	s3,8(sp)
   13f10:	03010113          	addi	sp,sp,48
   13f14:	00008067          	ret
   13f18:	00000513          	li	a0,0
   13f1c:	635040ef          	jal	18d50 <sbrk>
   13f20:	01093703          	ld	a4,16(s2)
   13f24:	01f00693          	li	a3,31
   13f28:	40e507b3          	sub	a5,a0,a4
   13f2c:	f6f6d8e3          	ble	a5,a3,13e9c <_malloc_trim_r+0x6c>
   13f30:	8201b683          	ld	a3,-2016(gp) # 1b330 <__malloc_sbrk_base>
   13f34:	0017e793          	ori	a5,a5,1
   13f38:	00f73423          	sd	a5,8(a4)
   13f3c:	40d50533          	sub	a0,a0,a3
   13f40:	90a1a023          	sw	a0,-1792(gp) # 1b410 <__malloc_current_mallinfo>
   13f44:	f59ff06f          	j	13e9c <_malloc_trim_r+0x6c>

0000000000013f48 <_free_r>:
   13f48:	10058263          	beqz	a1,1404c <_free_r+0x104>
   13f4c:	fe010113          	addi	sp,sp,-32
   13f50:	00813823          	sd	s0,16(sp)
   13f54:	00913423          	sd	s1,8(sp)
   13f58:	00058413          	mv	s0,a1
   13f5c:	00050493          	mv	s1,a0
   13f60:	00113c23          	sd	ra,24(sp)
   13f64:	12c010ef          	jal	15090 <__malloc_lock>
   13f68:	ff843503          	ld	a0,-8(s0)
   13f6c:	ff040693          	addi	a3,s0,-16
   13f70:	0001b5b7          	lui	a1,0x1b
   13f74:	ffe57793          	andi	a5,a0,-2
   13f78:	00f68633          	add	a2,a3,a5
   13f7c:	af858593          	addi	a1,a1,-1288 # 1aaf8 <__malloc_av_>
   13f80:	00863703          	ld	a4,8(a2)
   13f84:	0105b803          	ld	a6,16(a1)
   13f88:	ffc77713          	andi	a4,a4,-4
   13f8c:	17060663          	beq	a2,a6,140f8 <_free_r+0x1b0>
   13f90:	00e63423          	sd	a4,8(a2)
   13f94:	00157513          	andi	a0,a0,1
   13f98:	02051663          	bnez	a0,13fc4 <_free_r+0x7c>
   13f9c:	ff043503          	ld	a0,-16(s0)
   13fa0:	40a686b3          	sub	a3,a3,a0
   13fa4:	0106b803          	ld	a6,16(a3)
   13fa8:	00a787b3          	add	a5,a5,a0
   13fac:	0001b537          	lui	a0,0x1b
   13fb0:	b0850513          	addi	a0,a0,-1272 # 1ab08 <__malloc_av_+0x10>
   13fb4:	18a80863          	beq	a6,a0,14144 <_free_r+0x1fc>
   13fb8:	0186b503          	ld	a0,24(a3)
   13fbc:	00a83c23          	sd	a0,24(a6)
   13fc0:	01053823          	sd	a6,16(a0)
   13fc4:	00e60533          	add	a0,a2,a4
   13fc8:	00853503          	ld	a0,8(a0)
   13fcc:	00157513          	andi	a0,a0,1
   13fd0:	0e050a63          	beqz	a0,140c4 <_free_r+0x17c>
   13fd4:	0017e713          	ori	a4,a5,1
   13fd8:	00e6b423          	sd	a4,8(a3)
   13fdc:	00f68733          	add	a4,a3,a5
   13fe0:	00f73023          	sd	a5,0(a4)
   13fe4:	1ff00713          	li	a4,511
   13fe8:	06f76463          	bltu	a4,a5,14050 <_free_r+0x108>
   13fec:	0037d793          	srli	a5,a5,0x3
   13ff0:	0007879b          	sext.w	a5,a5
   13ff4:	0017871b          	addiw	a4,a5,1
   13ff8:	0017171b          	slliw	a4,a4,0x1
   13ffc:	00371713          	slli	a4,a4,0x3
   14000:	0085b603          	ld	a2,8(a1)
   14004:	00e58733          	add	a4,a1,a4
   14008:	00073803          	ld	a6,0(a4)
   1400c:	4027d79b          	sraiw	a5,a5,0x2
   14010:	00100513          	li	a0,1
   14014:	00f517b3          	sll	a5,a0,a5
   14018:	00c7e7b3          	or	a5,a5,a2
   1401c:	ff070613          	addi	a2,a4,-16
   14020:	00c6bc23          	sd	a2,24(a3)
   14024:	0106b823          	sd	a6,16(a3)
   14028:	00f5b423          	sd	a5,8(a1)
   1402c:	00d73023          	sd	a3,0(a4)
   14030:	00d83c23          	sd	a3,24(a6)
   14034:	00048513          	mv	a0,s1
   14038:	01813083          	ld	ra,24(sp)
   1403c:	01013403          	ld	s0,16(sp)
   14040:	00813483          	ld	s1,8(sp)
   14044:	02010113          	addi	sp,sp,32
   14048:	04c0106f          	j	15094 <__malloc_unlock>
   1404c:	00008067          	ret
   14050:	0097d713          	srli	a4,a5,0x9
   14054:	00400613          	li	a2,4
   14058:	12e66263          	bltu	a2,a4,1417c <_free_r+0x234>
   1405c:	0067d713          	srli	a4,a5,0x6
   14060:	0007071b          	sext.w	a4,a4
   14064:	0397051b          	addiw	a0,a4,57
   14068:	0387061b          	addiw	a2,a4,56
   1406c:	0015151b          	slliw	a0,a0,0x1
   14070:	00351513          	slli	a0,a0,0x3
   14074:	00a58533          	add	a0,a1,a0
   14078:	00053703          	ld	a4,0(a0)
   1407c:	ff050513          	addi	a0,a0,-16
   14080:	10e50c63          	beq	a0,a4,14198 <_free_r+0x250>
   14084:	00873603          	ld	a2,8(a4)
   14088:	ffc67613          	andi	a2,a2,-4
   1408c:	00c7f663          	bleu	a2,a5,14098 <_free_r+0x150>
   14090:	01073703          	ld	a4,16(a4)
   14094:	fee518e3          	bne	a0,a4,14084 <_free_r+0x13c>
   14098:	01873503          	ld	a0,24(a4)
   1409c:	00a6bc23          	sd	a0,24(a3)
   140a0:	00e6b823          	sd	a4,16(a3)
   140a4:	00d53823          	sd	a3,16(a0)
   140a8:	01813083          	ld	ra,24(sp)
   140ac:	00048513          	mv	a0,s1
   140b0:	01013403          	ld	s0,16(sp)
   140b4:	00813483          	ld	s1,8(sp)
   140b8:	00d73c23          	sd	a3,24(a4)
   140bc:	02010113          	addi	sp,sp,32
   140c0:	7d50006f          	j	15094 <__malloc_unlock>
   140c4:	01063503          	ld	a0,16(a2)
   140c8:	00e787b3          	add	a5,a5,a4
   140cc:	0001b737          	lui	a4,0x1b
   140d0:	b0870713          	addi	a4,a4,-1272 # 1ab08 <__malloc_av_+0x10>
   140d4:	0ee50263          	beq	a0,a4,141b8 <_free_r+0x270>
   140d8:	01863803          	ld	a6,24(a2)
   140dc:	0017e613          	ori	a2,a5,1
   140e0:	00f68733          	add	a4,a3,a5
   140e4:	01053c23          	sd	a6,24(a0)
   140e8:	00a83823          	sd	a0,16(a6)
   140ec:	00c6b423          	sd	a2,8(a3)
   140f0:	00f73023          	sd	a5,0(a4)
   140f4:	ef1ff06f          	j	13fe4 <_free_r+0x9c>
   140f8:	00157513          	andi	a0,a0,1
   140fc:	00e787b3          	add	a5,a5,a4
   14100:	02051063          	bnez	a0,14120 <_free_r+0x1d8>
   14104:	ff043503          	ld	a0,-16(s0)
   14108:	40a686b3          	sub	a3,a3,a0
   1410c:	0186b703          	ld	a4,24(a3)
   14110:	0106b603          	ld	a2,16(a3)
   14114:	00a787b3          	add	a5,a5,a0
   14118:	00e63c23          	sd	a4,24(a2)
   1411c:	00c73823          	sd	a2,16(a4)
   14120:	0017e613          	ori	a2,a5,1
   14124:	8281b703          	ld	a4,-2008(gp) # 1b338 <__malloc_trim_threshold>
   14128:	00c6b423          	sd	a2,8(a3)
   1412c:	00d5b823          	sd	a3,16(a1)
   14130:	f0e7e2e3          	bltu	a5,a4,14034 <_free_r+0xec>
   14134:	8b81b583          	ld	a1,-1864(gp) # 1b3c8 <__malloc_top_pad>
   14138:	00048513          	mv	a0,s1
   1413c:	cf5ff0ef          	jal	13e30 <_malloc_trim_r>
   14140:	ef5ff06f          	j	14034 <_free_r+0xec>
   14144:	00e605b3          	add	a1,a2,a4
   14148:	0085b583          	ld	a1,8(a1)
   1414c:	0015f593          	andi	a1,a1,1
   14150:	0e059a63          	bnez	a1,14244 <_free_r+0x2fc>
   14154:	01063583          	ld	a1,16(a2)
   14158:	01863603          	ld	a2,24(a2)
   1415c:	00f707b3          	add	a5,a4,a5
   14160:	0017e713          	ori	a4,a5,1
   14164:	00c5bc23          	sd	a2,24(a1)
   14168:	00b63823          	sd	a1,16(a2)
   1416c:	00e6b423          	sd	a4,8(a3)
   14170:	00f686b3          	add	a3,a3,a5
   14174:	00f6b023          	sd	a5,0(a3)
   14178:	ebdff06f          	j	14034 <_free_r+0xec>
   1417c:	01400613          	li	a2,20
   14180:	04e66e63          	bltu	a2,a4,141dc <_free_r+0x294>
   14184:	0007071b          	sext.w	a4,a4
   14188:	05c7051b          	addiw	a0,a4,92
   1418c:	05b7061b          	addiw	a2,a4,91
   14190:	0015151b          	slliw	a0,a0,0x1
   14194:	eddff06f          	j	14070 <_free_r+0x128>
   14198:	0085b783          	ld	a5,8(a1)
   1419c:	4026571b          	sraiw	a4,a2,0x2
   141a0:	00100613          	li	a2,1
   141a4:	00e61733          	sll	a4,a2,a4
   141a8:	00f767b3          	or	a5,a4,a5
   141ac:	00f5b423          	sd	a5,8(a1)
   141b0:	00050713          	mv	a4,a0
   141b4:	ee9ff06f          	j	1409c <_free_r+0x154>
   141b8:	02d5b423          	sd	a3,40(a1)
   141bc:	02d5b023          	sd	a3,32(a1)
   141c0:	0017e713          	ori	a4,a5,1
   141c4:	00a6bc23          	sd	a0,24(a3)
   141c8:	00a6b823          	sd	a0,16(a3)
   141cc:	00e6b423          	sd	a4,8(a3)
   141d0:	00f686b3          	add	a3,a3,a5
   141d4:	00f6b023          	sd	a5,0(a3)
   141d8:	e5dff06f          	j	14034 <_free_r+0xec>
   141dc:	05400613          	li	a2,84
   141e0:	00e66e63          	bltu	a2,a4,141fc <_free_r+0x2b4>
   141e4:	00c7d713          	srli	a4,a5,0xc
   141e8:	0007071b          	sext.w	a4,a4
   141ec:	06f7051b          	addiw	a0,a4,111
   141f0:	06e7061b          	addiw	a2,a4,110
   141f4:	0015151b          	slliw	a0,a0,0x1
   141f8:	e79ff06f          	j	14070 <_free_r+0x128>
   141fc:	15400613          	li	a2,340
   14200:	00e66e63          	bltu	a2,a4,1421c <_free_r+0x2d4>
   14204:	00f7d713          	srli	a4,a5,0xf
   14208:	0007071b          	sext.w	a4,a4
   1420c:	0787051b          	addiw	a0,a4,120
   14210:	0777061b          	addiw	a2,a4,119
   14214:	0015151b          	slliw	a0,a0,0x1
   14218:	e59ff06f          	j	14070 <_free_r+0x128>
   1421c:	55400813          	li	a6,1364
   14220:	0fe00513          	li	a0,254
   14224:	07e00613          	li	a2,126
   14228:	e4e864e3          	bltu	a6,a4,14070 <_free_r+0x128>
   1422c:	0127d713          	srli	a4,a5,0x12
   14230:	0007071b          	sext.w	a4,a4
   14234:	07d7051b          	addiw	a0,a4,125
   14238:	07c7061b          	addiw	a2,a4,124
   1423c:	0015151b          	slliw	a0,a0,0x1
   14240:	e31ff06f          	j	14070 <_free_r+0x128>
   14244:	0017e713          	ori	a4,a5,1
   14248:	00e6b423          	sd	a4,8(a3)
   1424c:	00f686b3          	add	a3,a3,a5
   14250:	00f6b023          	sd	a5,0(a3)
   14254:	de1ff06f          	j	14034 <_free_r+0xec>

0000000000014258 <_fwalk>:
   14258:	fc010113          	addi	sp,sp,-64
   1425c:	01513423          	sd	s5,8(sp)
   14260:	02113c23          	sd	ra,56(sp)
   14264:	02813823          	sd	s0,48(sp)
   14268:	02913423          	sd	s1,40(sp)
   1426c:	03213023          	sd	s2,32(sp)
   14270:	01313c23          	sd	s3,24(sp)
   14274:	01413823          	sd	s4,16(sp)
   14278:	01613023          	sd	s6,0(sp)
   1427c:	52050a93          	addi	s5,a0,1312
   14280:	080a8063          	beqz	s5,14300 <_fwalk+0xa8>
   14284:	00058b13          	mv	s6,a1
   14288:	00000a13          	li	s4,0
   1428c:	00100993          	li	s3,1
   14290:	fff00913          	li	s2,-1
   14294:	008aa483          	lw	s1,8(s5)
   14298:	010ab403          	ld	s0,16(s5)
   1429c:	fff4849b          	addiw	s1,s1,-1
   142a0:	0204c663          	bltz	s1,142cc <_fwalk+0x74>
   142a4:	01045783          	lhu	a5,16(s0)
   142a8:	fff4849b          	addiw	s1,s1,-1
   142ac:	00f9fc63          	bleu	a5,s3,142c4 <_fwalk+0x6c>
   142b0:	01241783          	lh	a5,18(s0)
   142b4:	00040513          	mv	a0,s0
   142b8:	01278663          	beq	a5,s2,142c4 <_fwalk+0x6c>
   142bc:	000b00e7          	jalr	s6
   142c0:	00aa6a33          	or	s4,s4,a0
   142c4:	0b040413          	addi	s0,s0,176
   142c8:	fd249ee3          	bne	s1,s2,142a4 <_fwalk+0x4c>
   142cc:	000aba83          	ld	s5,0(s5)
   142d0:	fc0a92e3          	bnez	s5,14294 <_fwalk+0x3c>
   142d4:	03813083          	ld	ra,56(sp)
   142d8:	000a0513          	mv	a0,s4
   142dc:	03013403          	ld	s0,48(sp)
   142e0:	02813483          	ld	s1,40(sp)
   142e4:	02013903          	ld	s2,32(sp)
   142e8:	01813983          	ld	s3,24(sp)
   142ec:	01013a03          	ld	s4,16(sp)
   142f0:	00813a83          	ld	s5,8(sp)
   142f4:	00013b03          	ld	s6,0(sp)
   142f8:	04010113          	addi	sp,sp,64
   142fc:	00008067          	ret
   14300:	00000a13          	li	s4,0
   14304:	fd1ff06f          	j	142d4 <_fwalk+0x7c>

0000000000014308 <_fwalk_reent>:
   14308:	fb010113          	addi	sp,sp,-80
   1430c:	01613823          	sd	s6,16(sp)
   14310:	04113423          	sd	ra,72(sp)
   14314:	04813023          	sd	s0,64(sp)
   14318:	02913c23          	sd	s1,56(sp)
   1431c:	03213823          	sd	s2,48(sp)
   14320:	03313423          	sd	s3,40(sp)
   14324:	03413023          	sd	s4,32(sp)
   14328:	01513c23          	sd	s5,24(sp)
   1432c:	01713423          	sd	s7,8(sp)
   14330:	52050b13          	addi	s6,a0,1312
   14334:	080b0663          	beqz	s6,143c0 <_fwalk_reent+0xb8>
   14338:	00058b93          	mv	s7,a1
   1433c:	00050a93          	mv	s5,a0
   14340:	00000a13          	li	s4,0
   14344:	00100993          	li	s3,1
   14348:	fff00913          	li	s2,-1
   1434c:	008b2483          	lw	s1,8(s6)
   14350:	010b3403          	ld	s0,16(s6)
   14354:	fff4849b          	addiw	s1,s1,-1
   14358:	0204c863          	bltz	s1,14388 <_fwalk_reent+0x80>
   1435c:	01045783          	lhu	a5,16(s0)
   14360:	fff4849b          	addiw	s1,s1,-1
   14364:	00f9fe63          	bleu	a5,s3,14380 <_fwalk_reent+0x78>
   14368:	01241783          	lh	a5,18(s0)
   1436c:	00040593          	mv	a1,s0
   14370:	000a8513          	mv	a0,s5
   14374:	01278663          	beq	a5,s2,14380 <_fwalk_reent+0x78>
   14378:	000b80e7          	jalr	s7
   1437c:	00aa6a33          	or	s4,s4,a0
   14380:	0b040413          	addi	s0,s0,176
   14384:	fd249ce3          	bne	s1,s2,1435c <_fwalk_reent+0x54>
   14388:	000b3b03          	ld	s6,0(s6)
   1438c:	fc0b10e3          	bnez	s6,1434c <_fwalk_reent+0x44>
   14390:	04813083          	ld	ra,72(sp)
   14394:	000a0513          	mv	a0,s4
   14398:	04013403          	ld	s0,64(sp)
   1439c:	03813483          	ld	s1,56(sp)
   143a0:	03013903          	ld	s2,48(sp)
   143a4:	02813983          	ld	s3,40(sp)
   143a8:	02013a03          	ld	s4,32(sp)
   143ac:	01813a83          	ld	s5,24(sp)
   143b0:	01013b03          	ld	s6,16(sp)
   143b4:	00813b83          	ld	s7,8(sp)
   143b8:	05010113          	addi	sp,sp,80
   143bc:	00008067          	ret
   143c0:	00000a13          	li	s4,0
   143c4:	fcdff06f          	j	14390 <_fwalk_reent+0x88>

00000000000143c8 <_setlocale_r>:
   143c8:	fe010113          	addi	sp,sp,-32
   143cc:	00913423          	sd	s1,8(sp)
   143d0:	00113c23          	sd	ra,24(sp)
   143d4:	00813823          	sd	s0,16(sp)
   143d8:	000194b7          	lui	s1,0x19
   143dc:	02060063          	beqz	a2,143fc <_setlocale_r+0x34>
   143e0:	000195b7          	lui	a1,0x19
   143e4:	2a058593          	addi	a1,a1,672 # 192a0 <zeroes.4137+0x90>
   143e8:	00060513          	mv	a0,a2
   143ec:	00060413          	mv	s0,a2
   143f0:	6d5010ef          	jal	162c4 <strcmp>
   143f4:	000194b7          	lui	s1,0x19
   143f8:	00051e63          	bnez	a0,14414 <_setlocale_r+0x4c>
   143fc:	22048513          	addi	a0,s1,544 # 19220 <zeroes.4137+0x10>
   14400:	01813083          	ld	ra,24(sp)
   14404:	01013403          	ld	s0,16(sp)
   14408:	00813483          	ld	s1,8(sp)
   1440c:	02010113          	addi	sp,sp,32
   14410:	00008067          	ret
   14414:	22048593          	addi	a1,s1,544
   14418:	00040513          	mv	a0,s0
   1441c:	6a9010ef          	jal	162c4 <strcmp>
   14420:	fc050ee3          	beqz	a0,143fc <_setlocale_r+0x34>
   14424:	000195b7          	lui	a1,0x19
   14428:	25858593          	addi	a1,a1,600 # 19258 <zeroes.4137+0x48>
   1442c:	00040513          	mv	a0,s0
   14430:	695010ef          	jal	162c4 <strcmp>
   14434:	fc0504e3          	beqz	a0,143fc <_setlocale_r+0x34>
   14438:	00000513          	li	a0,0
   1443c:	fc5ff06f          	j	14400 <_setlocale_r+0x38>

0000000000014440 <__locale_charset>:
   14440:	0001b537          	lui	a0,0x1b
   14444:	a5850513          	addi	a0,a0,-1448 # 1aa58 <lc_ctype_charset>
   14448:	00008067          	ret

000000000001444c <__locale_mb_cur_max>:
   1444c:	8181a503          	lw	a0,-2024(gp) # 1b328 <__mb_cur_max>
   14450:	00008067          	ret

0000000000014454 <__locale_msgcharset>:
   14454:	0001b537          	lui	a0,0x1b
   14458:	a7850513          	addi	a0,a0,-1416 # 1aa78 <lc_message_charset>
   1445c:	00008067          	ret

0000000000014460 <__locale_cjk_lang>:
   14460:	00000513          	li	a0,0
   14464:	00008067          	ret

0000000000014468 <_localeconv_r>:
   14468:	0001b537          	lui	a0,0x1b
   1446c:	a9850513          	addi	a0,a0,-1384 # 1aa98 <lconv>
   14470:	00008067          	ret

0000000000014474 <setlocale>:
   14474:	00058613          	mv	a2,a1
   14478:	00050593          	mv	a1,a0
   1447c:	8101b503          	ld	a0,-2032(gp) # 1b320 <_impure_ptr>
   14480:	f49ff06f          	j	143c8 <_setlocale_r>

0000000000014484 <localeconv>:
   14484:	0001b537          	lui	a0,0x1b
   14488:	a9850513          	addi	a0,a0,-1384 # 1aa98 <lconv>
   1448c:	00008067          	ret

0000000000014490 <__smakebuf_r>:
   14490:	01059783          	lh	a5,16(a1)
   14494:	f5010113          	addi	sp,sp,-176
   14498:	08913c23          	sd	s1,152(sp)
   1449c:	03079493          	slli	s1,a5,0x30
   144a0:	0304d493          	srli	s1,s1,0x30
   144a4:	0a113423          	sd	ra,168(sp)
   144a8:	0a813023          	sd	s0,160(sp)
   144ac:	09213823          	sd	s2,144(sp)
   144b0:	09313423          	sd	s3,136(sp)
   144b4:	0024f713          	andi	a4,s1,2
   144b8:	0e071063          	bnez	a4,14598 <__smakebuf_r+0x108>
   144bc:	00050913          	mv	s2,a0
   144c0:	01259503          	lh	a0,18(a1)
   144c4:	00058413          	mv	s0,a1
   144c8:	04054c63          	bltz	a0,14520 <__smakebuf_r+0x90>
   144cc:	00010593          	mv	a1,sp
   144d0:	5b4040ef          	jal	18a84 <fstat>
   144d4:	04054063          	bltz	a0,14514 <__smakebuf_r+0x84>
   144d8:	01012703          	lw	a4,16(sp)
   144dc:	0000f7b7          	lui	a5,0xf
   144e0:	ffffe9b7          	lui	s3,0xffffe
   144e4:	00f777b3          	and	a5,a4,a5
   144e8:	013789bb          	addw	s3,a5,s3
   144ec:	00008737          	lui	a4,0x8
   144f0:	0019b993          	seqz	s3,s3
   144f4:	0ce78a63          	beq	a5,a4,145c8 <__smakebuf_r+0x138>
   144f8:	01045703          	lhu	a4,16(s0)
   144fc:	000017b7          	lui	a5,0x1
   14500:	8007879b          	addiw	a5,a5,-2048
   14504:	00f767b3          	or	a5,a4,a5
   14508:	00f41823          	sh	a5,16(s0)
   1450c:	40000493          	li	s1,1024
   14510:	0340006f          	j	14544 <__smakebuf_r+0xb4>
   14514:	01041783          	lh	a5,16(s0)
   14518:	03079493          	slli	s1,a5,0x30
   1451c:	0304d493          	srli	s1,s1,0x30
   14520:	03849493          	slli	s1,s1,0x38
   14524:	00001737          	lui	a4,0x1
   14528:	43f4d493          	srai	s1,s1,0x3f
   1452c:	8007071b          	addiw	a4,a4,-2048
   14530:	c404f493          	andi	s1,s1,-960
   14534:	00e7e7b3          	or	a5,a5,a4
   14538:	40048493          	addi	s1,s1,1024
   1453c:	00f41823          	sh	a5,16(s0)
   14540:	00000993          	li	s3,0
   14544:	00048593          	mv	a1,s1
   14548:	00090513          	mv	a0,s2
   1454c:	0f0000ef          	jal	1463c <_malloc_r>
   14550:	0c050063          	beqz	a0,14610 <__smakebuf_r+0x180>
   14554:	01045783          	lhu	a5,16(s0)
   14558:	00014737          	lui	a4,0x14
   1455c:	ac870713          	addi	a4,a4,-1336 # 13ac8 <_cleanup_r>
   14560:	04e93c23          	sd	a4,88(s2)
   14564:	0807e793          	ori	a5,a5,128
   14568:	00f41823          	sh	a5,16(s0)
   1456c:	00a43023          	sd	a0,0(s0)
   14570:	00a43c23          	sd	a0,24(s0)
   14574:	02942023          	sw	s1,32(s0)
   14578:	06099e63          	bnez	s3,145f4 <__smakebuf_r+0x164>
   1457c:	0a813083          	ld	ra,168(sp)
   14580:	0a013403          	ld	s0,160(sp)
   14584:	09813483          	ld	s1,152(sp)
   14588:	09013903          	ld	s2,144(sp)
   1458c:	08813983          	ld	s3,136(sp)
   14590:	0b010113          	addi	sp,sp,176
   14594:	00008067          	ret
   14598:	0a813083          	ld	ra,168(sp)
   1459c:	07758793          	addi	a5,a1,119
   145a0:	00f5b023          	sd	a5,0(a1)
   145a4:	00f5bc23          	sd	a5,24(a1)
   145a8:	00100793          	li	a5,1
   145ac:	0a013403          	ld	s0,160(sp)
   145b0:	09813483          	ld	s1,152(sp)
   145b4:	09013903          	ld	s2,144(sp)
   145b8:	08813983          	ld	s3,136(sp)
   145bc:	02f5a023          	sw	a5,32(a1)
   145c0:	0b010113          	addi	sp,sp,176
   145c4:	00008067          	ret
   145c8:	04843703          	ld	a4,72(s0)
   145cc:	000167b7          	lui	a5,0x16
   145d0:	25078793          	addi	a5,a5,592 # 16250 <__sseek>
   145d4:	f2f712e3          	bne	a4,a5,144f8 <__smakebuf_r+0x68>
   145d8:	01045783          	lhu	a5,16(s0)
   145dc:	40000713          	li	a4,1024
   145e0:	08e42423          	sw	a4,136(s0)
   145e4:	00e7e7b3          	or	a5,a5,a4
   145e8:	00f41823          	sh	a5,16(s0)
   145ec:	40000493          	li	s1,1024
   145f0:	f55ff06f          	j	14544 <__smakebuf_r+0xb4>
   145f4:	01241503          	lh	a0,18(s0)
   145f8:	618040ef          	jal	18c10 <isatty>
   145fc:	f80500e3          	beqz	a0,1457c <__smakebuf_r+0xec>
   14600:	01045783          	lhu	a5,16(s0)
   14604:	0017e793          	ori	a5,a5,1
   14608:	00f41823          	sh	a5,16(s0)
   1460c:	f71ff06f          	j	1457c <__smakebuf_r+0xec>
   14610:	01041783          	lh	a5,16(s0)
   14614:	2007f713          	andi	a4,a5,512
   14618:	f60712e3          	bnez	a4,1457c <__smakebuf_r+0xec>
   1461c:	0027e793          	ori	a5,a5,2
   14620:	07740713          	addi	a4,s0,119
   14624:	00f41823          	sh	a5,16(s0)
   14628:	00100793          	li	a5,1
   1462c:	00e43023          	sd	a4,0(s0)
   14630:	00e43c23          	sd	a4,24(s0)
   14634:	02f42023          	sw	a5,32(s0)
   14638:	f45ff06f          	j	1457c <__smakebuf_r+0xec>

000000000001463c <_malloc_r>:
   1463c:	fa010113          	addi	sp,sp,-96
   14640:	04913423          	sd	s1,72(sp)
   14644:	03313c23          	sd	s3,56(sp)
   14648:	04113c23          	sd	ra,88(sp)
   1464c:	04813823          	sd	s0,80(sp)
   14650:	05213023          	sd	s2,64(sp)
   14654:	03413823          	sd	s4,48(sp)
   14658:	03513423          	sd	s5,40(sp)
   1465c:	03613023          	sd	s6,32(sp)
   14660:	01713c23          	sd	s7,24(sp)
   14664:	01813823          	sd	s8,16(sp)
   14668:	01913423          	sd	s9,8(sp)
   1466c:	01758493          	addi	s1,a1,23
   14670:	02e00793          	li	a5,46
   14674:	00050993          	mv	s3,a0
   14678:	1c97fa63          	bleu	s1,a5,1484c <_malloc_r+0x210>
   1467c:	800007b7          	lui	a5,0x80000
   14680:	ff04f493          	andi	s1,s1,-16
   14684:	fff7c793          	not	a5,a5
   14688:	2497ee63          	bltu	a5,s1,148e4 <_malloc_r+0x2a8>
   1468c:	24b4ec63          	bltu	s1,a1,148e4 <_malloc_r+0x2a8>
   14690:	201000ef          	jal	15090 <__malloc_lock>
   14694:	1f700793          	li	a5,503
   14698:	7097f063          	bleu	s1,a5,14d98 <_malloc_r+0x75c>
   1469c:	0094d793          	srli	a5,s1,0x9
   146a0:	08000693          	li	a3,128
   146a4:	04000513          	li	a0,64
   146a8:	03f00593          	li	a1,63
   146ac:	24079463          	bnez	a5,148f4 <_malloc_r+0x2b8>
   146b0:	0001b937          	lui	s2,0x1b
   146b4:	af890913          	addi	s2,s2,-1288 # 1aaf8 <__malloc_av_>
   146b8:	00369693          	slli	a3,a3,0x3
   146bc:	00d906b3          	add	a3,s2,a3
   146c0:	0086b403          	ld	s0,8(a3)
   146c4:	ff068693          	addi	a3,a3,-16
   146c8:	24868663          	beq	a3,s0,14914 <_malloc_r+0x2d8>
   146cc:	00843783          	ld	a5,8(s0)
   146d0:	01f00613          	li	a2,31
   146d4:	ffc7f793          	andi	a5,a5,-4
   146d8:	40978733          	sub	a4,a5,s1
   146dc:	02e64063          	blt	a2,a4,146fc <_malloc_r+0xc0>
   146e0:	22075e63          	bgez	a4,1491c <_malloc_r+0x2e0>
   146e4:	01843403          	ld	s0,24(s0)
   146e8:	22868663          	beq	a3,s0,14914 <_malloc_r+0x2d8>
   146ec:	00843783          	ld	a5,8(s0)
   146f0:	ffc7f793          	andi	a5,a5,-4
   146f4:	40978733          	sub	a4,a5,s1
   146f8:	fee654e3          	ble	a4,a2,146e0 <_malloc_r+0xa4>
   146fc:	00058693          	mv	a3,a1
   14700:	02093403          	ld	s0,32(s2)
   14704:	01090813          	addi	a6,s2,16
   14708:	47040a63          	beq	s0,a6,14b7c <_malloc_r+0x540>
   1470c:	00843783          	ld	a5,8(s0)
   14710:	01f00613          	li	a2,31
   14714:	ffc7f793          	andi	a5,a5,-4
   14718:	40978733          	sub	a4,a5,s1
   1471c:	44e64a63          	blt	a2,a4,14b70 <_malloc_r+0x534>
   14720:	03093423          	sd	a6,40(s2)
   14724:	03093023          	sd	a6,32(s2)
   14728:	20075063          	bgez	a4,14928 <_malloc_r+0x2ec>
   1472c:	1ff00713          	li	a4,511
   14730:	3cf76c63          	bltu	a4,a5,14b08 <_malloc_r+0x4cc>
   14734:	0037d793          	srli	a5,a5,0x3
   14738:	0007879b          	sext.w	a5,a5
   1473c:	0017861b          	addiw	a2,a5,1
   14740:	0016161b          	slliw	a2,a2,0x1
   14744:	00361613          	slli	a2,a2,0x3
   14748:	00893703          	ld	a4,8(s2)
   1474c:	00c90633          	add	a2,s2,a2
   14750:	00063503          	ld	a0,0(a2)
   14754:	4027d79b          	sraiw	a5,a5,0x2
   14758:	00100593          	li	a1,1
   1475c:	00f597b3          	sll	a5,a1,a5
   14760:	00e7e7b3          	or	a5,a5,a4
   14764:	ff060713          	addi	a4,a2,-16
   14768:	00e43c23          	sd	a4,24(s0)
   1476c:	00a43823          	sd	a0,16(s0)
   14770:	00f93423          	sd	a5,8(s2)
   14774:	00863023          	sd	s0,0(a2)
   14778:	00853c23          	sd	s0,24(a0)
   1477c:	4026d61b          	sraiw	a2,a3,0x2
   14780:	00100713          	li	a4,1
   14784:	00c71633          	sll	a2,a4,a2
   14788:	1cc7e063          	bltu	a5,a2,14948 <_malloc_r+0x30c>
   1478c:	00f67733          	and	a4,a2,a5
   14790:	02071463          	bnez	a4,147b8 <_malloc_r+0x17c>
   14794:	00161613          	slli	a2,a2,0x1
   14798:	ffc6f693          	andi	a3,a3,-4
   1479c:	00f67733          	and	a4,a2,a5
   147a0:	0046869b          	addiw	a3,a3,4
   147a4:	00071a63          	bnez	a4,147b8 <_malloc_r+0x17c>
   147a8:	00161613          	slli	a2,a2,0x1
   147ac:	00f67733          	and	a4,a2,a5
   147b0:	0046869b          	addiw	a3,a3,4
   147b4:	fe070ae3          	beqz	a4,147a8 <_malloc_r+0x16c>
   147b8:	01f00513          	li	a0,31
   147bc:	0016889b          	addiw	a7,a3,1
   147c0:	0018989b          	slliw	a7,a7,0x1
   147c4:	00389893          	slli	a7,a7,0x3
   147c8:	011908b3          	add	a7,s2,a7
   147cc:	ff088893          	addi	a7,a7,-16
   147d0:	00088593          	mv	a1,a7
   147d4:	00068313          	mv	t1,a3
   147d8:	0185b403          	ld	s0,24(a1)
   147dc:	00859a63          	bne	a1,s0,147f0 <_malloc_r+0x1b4>
   147e0:	3a40006f          	j	14b84 <_malloc_r+0x548>
   147e4:	3c075263          	bgez	a4,14ba8 <_malloc_r+0x56c>
   147e8:	01843403          	ld	s0,24(s0)
   147ec:	38858c63          	beq	a1,s0,14b84 <_malloc_r+0x548>
   147f0:	00843783          	ld	a5,8(s0)
   147f4:	ffc7f793          	andi	a5,a5,-4
   147f8:	40978733          	sub	a4,a5,s1
   147fc:	fee554e3          	ble	a4,a0,147e4 <_malloc_r+0x1a8>
   14800:	01843783          	ld	a5,24(s0)
   14804:	01043683          	ld	a3,16(s0)
   14808:	0014e613          	ori	a2,s1,1
   1480c:	00c43423          	sd	a2,8(s0)
   14810:	00f6bc23          	sd	a5,24(a3)
   14814:	00d7b823          	sd	a3,16(a5) # ffffffff80000010 <_gp+0xffffffff7ffe4500>
   14818:	009404b3          	add	s1,s0,s1
   1481c:	02993423          	sd	s1,40(s2)
   14820:	02993023          	sd	s1,32(s2)
   14824:	00176793          	ori	a5,a4,1
   14828:	0104bc23          	sd	a6,24(s1)
   1482c:	0104b823          	sd	a6,16(s1)
   14830:	00f4b423          	sd	a5,8(s1)
   14834:	00e484b3          	add	s1,s1,a4
   14838:	00098513          	mv	a0,s3
   1483c:	00e4b023          	sd	a4,0(s1)
   14840:	055000ef          	jal	15094 <__malloc_unlock>
   14844:	01040513          	addi	a0,s0,16
   14848:	0680006f          	j	148b0 <_malloc_r+0x274>
   1484c:	02000493          	li	s1,32
   14850:	08b4ea63          	bltu	s1,a1,148e4 <_malloc_r+0x2a8>
   14854:	03d000ef          	jal	15090 <__malloc_lock>
   14858:	00a00793          	li	a5,10
   1485c:	00400693          	li	a3,4
   14860:	0001b937          	lui	s2,0x1b
   14864:	af890913          	addi	s2,s2,-1288 # 1aaf8 <__malloc_av_>
   14868:	00379793          	slli	a5,a5,0x3
   1486c:	00f907b3          	add	a5,s2,a5
   14870:	0087b403          	ld	s0,8(a5)
   14874:	ff078713          	addi	a4,a5,-16
   14878:	32e40063          	beq	s0,a4,14b98 <_malloc_r+0x55c>
   1487c:	00843783          	ld	a5,8(s0)
   14880:	01843683          	ld	a3,24(s0)
   14884:	01043603          	ld	a2,16(s0)
   14888:	ffc7f793          	andi	a5,a5,-4
   1488c:	00f407b3          	add	a5,s0,a5
   14890:	0087b703          	ld	a4,8(a5)
   14894:	00d63c23          	sd	a3,24(a2)
   14898:	00c6b823          	sd	a2,16(a3)
   1489c:	00176713          	ori	a4,a4,1
   148a0:	00098513          	mv	a0,s3
   148a4:	00e7b423          	sd	a4,8(a5)
   148a8:	7ec000ef          	jal	15094 <__malloc_unlock>
   148ac:	01040513          	addi	a0,s0,16
   148b0:	05813083          	ld	ra,88(sp)
   148b4:	05013403          	ld	s0,80(sp)
   148b8:	04813483          	ld	s1,72(sp)
   148bc:	04013903          	ld	s2,64(sp)
   148c0:	03813983          	ld	s3,56(sp)
   148c4:	03013a03          	ld	s4,48(sp)
   148c8:	02813a83          	ld	s5,40(sp)
   148cc:	02013b03          	ld	s6,32(sp)
   148d0:	01813b83          	ld	s7,24(sp)
   148d4:	01013c03          	ld	s8,16(sp)
   148d8:	00813c83          	ld	s9,8(sp)
   148dc:	06010113          	addi	sp,sp,96
   148e0:	00008067          	ret
   148e4:	00c00793          	li	a5,12
   148e8:	00f9a023          	sw	a5,0(s3) # ffffffffffffe000 <_gp+0xfffffffffffe24f0>
   148ec:	00000513          	li	a0,0
   148f0:	fc1ff06f          	j	148b0 <_malloc_r+0x274>
   148f4:	00400713          	li	a4,4
   148f8:	1ef76463          	bltu	a4,a5,14ae0 <_malloc_r+0x4a4>
   148fc:	0064d593          	srli	a1,s1,0x6
   14900:	0005859b          	sext.w	a1,a1
   14904:	0395851b          	addiw	a0,a1,57
   14908:	0015169b          	slliw	a3,a0,0x1
   1490c:	0385859b          	addiw	a1,a1,56
   14910:	da1ff06f          	j	146b0 <_malloc_r+0x74>
   14914:	00050693          	mv	a3,a0
   14918:	de9ff06f          	j	14700 <_malloc_r+0xc4>
   1491c:	01843683          	ld	a3,24(s0)
   14920:	01043603          	ld	a2,16(s0)
   14924:	f69ff06f          	j	1488c <_malloc_r+0x250>
   14928:	00f407b3          	add	a5,s0,a5
   1492c:	0087b703          	ld	a4,8(a5)
   14930:	00098513          	mv	a0,s3
   14934:	00176713          	ori	a4,a4,1
   14938:	00e7b423          	sd	a4,8(a5)
   1493c:	758000ef          	jal	15094 <__malloc_unlock>
   14940:	01040513          	addi	a0,s0,16
   14944:	f6dff06f          	j	148b0 <_malloc_r+0x274>
   14948:	01093403          	ld	s0,16(s2)
   1494c:	00843703          	ld	a4,8(s0)
   14950:	ffc77b93          	andi	s7,a4,-4
   14954:	009be863          	bltu	s7,s1,14964 <_malloc_r+0x328>
   14958:	409b87b3          	sub	a5,s7,s1
   1495c:	01f00713          	li	a4,31
   14960:	14f74c63          	blt	a4,a5,14ab8 <_malloc_r+0x47c>
   14964:	8b81b783          	ld	a5,-1864(gp) # 1b3c8 <__malloc_top_pad>
   14968:	8201b683          	ld	a3,-2016(gp) # 1b330 <__malloc_sbrk_base>
   1496c:	fff00713          	li	a4,-1
   14970:	00f487b3          	add	a5,s1,a5
   14974:	01740a33          	add	s4,s0,s7
   14978:	02078b13          	addi	s6,a5,32
   1497c:	00e68c63          	beq	a3,a4,14994 <_malloc_r+0x358>
   14980:	00001b37          	lui	s6,0x1
   14984:	01fb0b13          	addi	s6,s6,31 # 101f <_ftext-0xefe1>
   14988:	01678b33          	add	s6,a5,s6
   1498c:	fffff7b7          	lui	a5,0xfffff
   14990:	00fb7b33          	and	s6,s6,a5
   14994:	000b0513          	mv	a0,s6
   14998:	3b8040ef          	jal	18d50 <sbrk>
   1499c:	fff00793          	li	a5,-1
   149a0:	00050a93          	mv	s5,a0
   149a4:	26f50263          	beq	a0,a5,14c08 <_malloc_r+0x5cc>
   149a8:	25456e63          	bltu	a0,s4,14c04 <_malloc_r+0x5c8>
   149ac:	90018c13          	addi	s8,gp,-1792 # 1b410 <__malloc_current_mallinfo>
   149b0:	000c2783          	lw	a5,0(s8)
   149b4:	00fb07bb          	addw	a5,s6,a5
   149b8:	00fc2023          	sw	a5,0(s8)
   149bc:	355a0463          	beq	s4,s5,14d04 <_malloc_r+0x6c8>
   149c0:	8201b683          	ld	a3,-2016(gp) # 1b330 <__malloc_sbrk_base>
   149c4:	fff00713          	li	a4,-1
   149c8:	36e68263          	beq	a3,a4,14d2c <_malloc_r+0x6f0>
   149cc:	414a8a33          	sub	s4,s5,s4
   149d0:	00fa07bb          	addw	a5,s4,a5
   149d4:	00fc2023          	sw	a5,0(s8)
   149d8:	00faf713          	andi	a4,s5,15
   149dc:	000017b7          	lui	a5,0x1
   149e0:	00070a63          	beqz	a4,149f4 <_malloc_r+0x3b8>
   149e4:	40ea8ab3          	sub	s5,s5,a4
   149e8:	01078a13          	addi	s4,a5,16 # 1010 <_ftext-0xeff0>
   149ec:	010a8a93          	addi	s5,s5,16
   149f0:	40ea07b3          	sub	a5,s4,a4
   149f4:	00001a37          	lui	s4,0x1
   149f8:	fffa0a13          	addi	s4,s4,-1 # fff <_ftext-0xf001>
   149fc:	016a8b33          	add	s6,s5,s6
   14a00:	014b7b33          	and	s6,s6,s4
   14a04:	41678a33          	sub	s4,a5,s6
   14a08:	000a0513          	mv	a0,s4
   14a0c:	344040ef          	jal	18d50 <sbrk>
   14a10:	fff00793          	li	a5,-1
   14a14:	30f50663          	beq	a0,a5,14d20 <_malloc_r+0x6e4>
   14a18:	41550733          	sub	a4,a0,s5
   14a1c:	01470733          	add	a4,a4,s4
   14a20:	00176713          	ori	a4,a4,1
   14a24:	000a0a1b          	sext.w	s4,s4
   14a28:	000c2783          	lw	a5,0(s8)
   14a2c:	01593823          	sd	s5,16(s2)
   14a30:	00eab423          	sd	a4,8(s5)
   14a34:	00fa07bb          	addw	a5,s4,a5
   14a38:	00fc2023          	sw	a5,0(s8)
   14a3c:	03240c63          	beq	s0,s2,14a74 <_malloc_r+0x438>
   14a40:	01f00613          	li	a2,31
   14a44:	27767463          	bleu	s7,a2,14cac <_malloc_r+0x670>
   14a48:	00843683          	ld	a3,8(s0)
   14a4c:	fe8b8713          	addi	a4,s7,-24
   14a50:	ff077713          	andi	a4,a4,-16
   14a54:	0016f693          	andi	a3,a3,1
   14a58:	00e6e6b3          	or	a3,a3,a4
   14a5c:	00d43423          	sd	a3,8(s0)
   14a60:	00900593          	li	a1,9
   14a64:	00e406b3          	add	a3,s0,a4
   14a68:	00b6b423          	sd	a1,8(a3)
   14a6c:	00b6b823          	sd	a1,16(a3)
   14a70:	2ce66263          	bltu	a2,a4,14d34 <_malloc_r+0x6f8>
   14a74:	8b01b683          	ld	a3,-1872(gp) # 1b3c0 <__malloc_max_sbrked_mem>
   14a78:	00f6f463          	bleu	a5,a3,14a80 <_malloc_r+0x444>
   14a7c:	8af1b823          	sd	a5,-1872(gp) # 1b3c0 <__malloc_max_sbrked_mem>
   14a80:	8a81b683          	ld	a3,-1880(gp) # 1b3b8 <__malloc_max_total_mem>
   14a84:	01093403          	ld	s0,16(s2)
   14a88:	00f6f463          	bleu	a5,a3,14a90 <_malloc_r+0x454>
   14a8c:	8af1b423          	sd	a5,-1880(gp) # 1b3b8 <__malloc_max_total_mem>
   14a90:	00843703          	ld	a4,8(s0)
   14a94:	ffc77713          	andi	a4,a4,-4
   14a98:	409707b3          	sub	a5,a4,s1
   14a9c:	00976663          	bltu	a4,s1,14aa8 <_malloc_r+0x46c>
   14aa0:	01f00713          	li	a4,31
   14aa4:	00f74a63          	blt	a4,a5,14ab8 <_malloc_r+0x47c>
   14aa8:	00098513          	mv	a0,s3
   14aac:	5e8000ef          	jal	15094 <__malloc_unlock>
   14ab0:	00000513          	li	a0,0
   14ab4:	dfdff06f          	j	148b0 <_malloc_r+0x274>
   14ab8:	0014e713          	ori	a4,s1,1
   14abc:	00e43423          	sd	a4,8(s0)
   14ac0:	009404b3          	add	s1,s0,s1
   14ac4:	00993823          	sd	s1,16(s2)
   14ac8:	0017e793          	ori	a5,a5,1
   14acc:	00098513          	mv	a0,s3
   14ad0:	00f4b423          	sd	a5,8(s1)
   14ad4:	5c0000ef          	jal	15094 <__malloc_unlock>
   14ad8:	01040513          	addi	a0,s0,16
   14adc:	dd5ff06f          	j	148b0 <_malloc_r+0x274>
   14ae0:	01400713          	li	a4,20
   14ae4:	0ef77a63          	bleu	a5,a4,14bd8 <_malloc_r+0x59c>
   14ae8:	05400713          	li	a4,84
   14aec:	18f76063          	bltu	a4,a5,14c6c <_malloc_r+0x630>
   14af0:	00c4d593          	srli	a1,s1,0xc
   14af4:	0005859b          	sext.w	a1,a1
   14af8:	06f5851b          	addiw	a0,a1,111
   14afc:	0015169b          	slliw	a3,a0,0x1
   14b00:	06e5859b          	addiw	a1,a1,110
   14b04:	badff06f          	j	146b0 <_malloc_r+0x74>
   14b08:	0097d713          	srli	a4,a5,0x9
   14b0c:	00400613          	li	a2,4
   14b10:	0ce67e63          	bleu	a4,a2,14bec <_malloc_r+0x5b0>
   14b14:	01400613          	li	a2,20
   14b18:	1ce66663          	bltu	a2,a4,14ce4 <_malloc_r+0x6a8>
   14b1c:	0007071b          	sext.w	a4,a4
   14b20:	05c7059b          	addiw	a1,a4,92
   14b24:	05b7061b          	addiw	a2,a4,91
   14b28:	0015959b          	slliw	a1,a1,0x1
   14b2c:	00359593          	slli	a1,a1,0x3
   14b30:	00b905b3          	add	a1,s2,a1
   14b34:	0005b703          	ld	a4,0(a1)
   14b38:	ff058593          	addi	a1,a1,-16
   14b3c:	14e58863          	beq	a1,a4,14c8c <_malloc_r+0x650>
   14b40:	00873603          	ld	a2,8(a4)
   14b44:	ffc67613          	andi	a2,a2,-4
   14b48:	00c7f663          	bleu	a2,a5,14b54 <_malloc_r+0x518>
   14b4c:	01073703          	ld	a4,16(a4)
   14b50:	fee598e3          	bne	a1,a4,14b40 <_malloc_r+0x504>
   14b54:	01873583          	ld	a1,24(a4)
   14b58:	00893783          	ld	a5,8(s2)
   14b5c:	00b43c23          	sd	a1,24(s0)
   14b60:	00e43823          	sd	a4,16(s0)
   14b64:	0085b823          	sd	s0,16(a1)
   14b68:	00873c23          	sd	s0,24(a4)
   14b6c:	c11ff06f          	j	1477c <_malloc_r+0x140>
   14b70:	0014e793          	ori	a5,s1,1
   14b74:	00f43423          	sd	a5,8(s0)
   14b78:	ca1ff06f          	j	14818 <_malloc_r+0x1dc>
   14b7c:	00893783          	ld	a5,8(s2)
   14b80:	bfdff06f          	j	1477c <_malloc_r+0x140>
   14b84:	0013031b          	addiw	t1,t1,1
   14b88:	00337793          	andi	a5,t1,3
   14b8c:	01058593          	addi	a1,a1,16
   14b90:	c40794e3          	bnez	a5,147d8 <_malloc_r+0x19c>
   14b94:	0900006f          	j	14c24 <_malloc_r+0x5e8>
   14b98:	0187b403          	ld	s0,24(a5)
   14b9c:	0026869b          	addiw	a3,a3,2
   14ba0:	b68780e3          	beq	a5,s0,14700 <_malloc_r+0xc4>
   14ba4:	cd9ff06f          	j	1487c <_malloc_r+0x240>
   14ba8:	00f407b3          	add	a5,s0,a5
   14bac:	0087b703          	ld	a4,8(a5)
   14bb0:	01843683          	ld	a3,24(s0)
   14bb4:	01043603          	ld	a2,16(s0)
   14bb8:	00176713          	ori	a4,a4,1
   14bbc:	00e7b423          	sd	a4,8(a5)
   14bc0:	00d63c23          	sd	a3,24(a2)
   14bc4:	00098513          	mv	a0,s3
   14bc8:	00c6b823          	sd	a2,16(a3)
   14bcc:	4c8000ef          	jal	15094 <__malloc_unlock>
   14bd0:	01040513          	addi	a0,s0,16
   14bd4:	cddff06f          	j	148b0 <_malloc_r+0x274>
   14bd8:	0007879b          	sext.w	a5,a5
   14bdc:	05c7851b          	addiw	a0,a5,92
   14be0:	05b7859b          	addiw	a1,a5,91
   14be4:	0015169b          	slliw	a3,a0,0x1
   14be8:	ac9ff06f          	j	146b0 <_malloc_r+0x74>
   14bec:	0067d713          	srli	a4,a5,0x6
   14bf0:	0007071b          	sext.w	a4,a4
   14bf4:	0397059b          	addiw	a1,a4,57
   14bf8:	0387061b          	addiw	a2,a4,56
   14bfc:	0015959b          	slliw	a1,a1,0x1
   14c00:	f2dff06f          	j	14b2c <_malloc_r+0x4f0>
   14c04:	db2404e3          	beq	s0,s2,149ac <_malloc_r+0x370>
   14c08:	01093403          	ld	s0,16(s2)
   14c0c:	00843703          	ld	a4,8(s0)
   14c10:	ffc77713          	andi	a4,a4,-4
   14c14:	e85ff06f          	j	14a98 <_malloc_r+0x45c>
   14c18:	0108b783          	ld	a5,16(a7)
   14c1c:	fff6869b          	addiw	a3,a3,-1
   14c20:	16f89863          	bne	a7,a5,14d90 <_malloc_r+0x754>
   14c24:	0036f793          	andi	a5,a3,3
   14c28:	ff088893          	addi	a7,a7,-16
   14c2c:	fe0796e3          	bnez	a5,14c18 <_malloc_r+0x5dc>
   14c30:	00893783          	ld	a5,8(s2)
   14c34:	fff64713          	not	a4,a2
   14c38:	00f777b3          	and	a5,a4,a5
   14c3c:	00f93423          	sd	a5,8(s2)
   14c40:	00161613          	slli	a2,a2,0x1
   14c44:	d0c7e2e3          	bltu	a5,a2,14948 <_malloc_r+0x30c>
   14c48:	d00600e3          	beqz	a2,14948 <_malloc_r+0x30c>
   14c4c:	00f67733          	and	a4,a2,a5
   14c50:	00030693          	mv	a3,t1
   14c54:	b60714e3          	bnez	a4,147bc <_malloc_r+0x180>
   14c58:	00161613          	slli	a2,a2,0x1
   14c5c:	00f67733          	and	a4,a2,a5
   14c60:	0046869b          	addiw	a3,a3,4
   14c64:	fe070ae3          	beqz	a4,14c58 <_malloc_r+0x61c>
   14c68:	b55ff06f          	j	147bc <_malloc_r+0x180>
   14c6c:	15400713          	li	a4,340
   14c70:	04f76463          	bltu	a4,a5,14cb8 <_malloc_r+0x67c>
   14c74:	00f4d593          	srli	a1,s1,0xf
   14c78:	0005859b          	sext.w	a1,a1
   14c7c:	0785851b          	addiw	a0,a1,120
   14c80:	0015169b          	slliw	a3,a0,0x1
   14c84:	0775859b          	addiw	a1,a1,119
   14c88:	a29ff06f          	j	146b0 <_malloc_r+0x74>
   14c8c:	00893783          	ld	a5,8(s2)
   14c90:	4026571b          	sraiw	a4,a2,0x2
   14c94:	00100613          	li	a2,1
   14c98:	00e61733          	sll	a4,a2,a4
   14c9c:	00f767b3          	or	a5,a4,a5
   14ca0:	00f93423          	sd	a5,8(s2)
   14ca4:	00058713          	mv	a4,a1
   14ca8:	eb5ff06f          	j	14b5c <_malloc_r+0x520>
   14cac:	00100793          	li	a5,1
   14cb0:	00fab423          	sd	a5,8(s5)
   14cb4:	df5ff06f          	j	14aa8 <_malloc_r+0x46c>
   14cb8:	55400713          	li	a4,1364
   14cbc:	0fe00693          	li	a3,254
   14cc0:	07f00513          	li	a0,127
   14cc4:	07e00593          	li	a1,126
   14cc8:	9ef764e3          	bltu	a4,a5,146b0 <_malloc_r+0x74>
   14ccc:	0124d593          	srli	a1,s1,0x12
   14cd0:	0005859b          	sext.w	a1,a1
   14cd4:	07d5851b          	addiw	a0,a1,125
   14cd8:	0015169b          	slliw	a3,a0,0x1
   14cdc:	07c5859b          	addiw	a1,a1,124
   14ce0:	9d1ff06f          	j	146b0 <_malloc_r+0x74>
   14ce4:	05400613          	li	a2,84
   14ce8:	06e66063          	bltu	a2,a4,14d48 <_malloc_r+0x70c>
   14cec:	00c7d713          	srli	a4,a5,0xc
   14cf0:	0007071b          	sext.w	a4,a4
   14cf4:	06f7059b          	addiw	a1,a4,111
   14cf8:	06e7061b          	addiw	a2,a4,110
   14cfc:	0015959b          	slliw	a1,a1,0x1
   14d00:	e2dff06f          	j	14b2c <_malloc_r+0x4f0>
   14d04:	034a1713          	slli	a4,s4,0x34
   14d08:	ca071ce3          	bnez	a4,149c0 <_malloc_r+0x384>
   14d0c:	01093683          	ld	a3,16(s2)
   14d10:	016b8733          	add	a4,s7,s6
   14d14:	00176713          	ori	a4,a4,1
   14d18:	00e6b423          	sd	a4,8(a3)
   14d1c:	d59ff06f          	j	14a74 <_malloc_r+0x438>
   14d20:	00100713          	li	a4,1
   14d24:	00000a13          	li	s4,0
   14d28:	d01ff06f          	j	14a28 <_malloc_r+0x3ec>
   14d2c:	8351b023          	sd	s5,-2016(gp) # 1b330 <__malloc_sbrk_base>
   14d30:	ca9ff06f          	j	149d8 <_malloc_r+0x39c>
   14d34:	01040593          	addi	a1,s0,16
   14d38:	00098513          	mv	a0,s3
   14d3c:	a0cff0ef          	jal	13f48 <_free_r>
   14d40:	000c2783          	lw	a5,0(s8)
   14d44:	d31ff06f          	j	14a74 <_malloc_r+0x438>
   14d48:	15400613          	li	a2,340
   14d4c:	00e66e63          	bltu	a2,a4,14d68 <_malloc_r+0x72c>
   14d50:	00f7d713          	srli	a4,a5,0xf
   14d54:	0007071b          	sext.w	a4,a4
   14d58:	0787059b          	addiw	a1,a4,120
   14d5c:	0777061b          	addiw	a2,a4,119
   14d60:	0015959b          	slliw	a1,a1,0x1
   14d64:	dc9ff06f          	j	14b2c <_malloc_r+0x4f0>
   14d68:	55400513          	li	a0,1364
   14d6c:	0fe00593          	li	a1,254
   14d70:	07e00613          	li	a2,126
   14d74:	dae56ce3          	bltu	a0,a4,14b2c <_malloc_r+0x4f0>
   14d78:	0127d713          	srli	a4,a5,0x12
   14d7c:	0007071b          	sext.w	a4,a4
   14d80:	07d7059b          	addiw	a1,a4,125
   14d84:	07c7061b          	addiw	a2,a4,124
   14d88:	0015959b          	slliw	a1,a1,0x1
   14d8c:	da1ff06f          	j	14b2c <_malloc_r+0x4f0>
   14d90:	00893783          	ld	a5,8(s2)
   14d94:	eadff06f          	j	14c40 <_malloc_r+0x604>
   14d98:	0034d693          	srli	a3,s1,0x3
   14d9c:	0006869b          	sext.w	a3,a3
   14da0:	0016879b          	addiw	a5,a3,1
   14da4:	0017979b          	slliw	a5,a5,0x1
   14da8:	ab9ff06f          	j	14860 <_malloc_r+0x224>

0000000000014dac <memchr>:
   14dac:	00757793          	andi	a5,a0,7
   14db0:	0ff5f813          	andi	a6,a1,255
   14db4:	0c078c63          	beqz	a5,14e8c <memchr+0xe0>
   14db8:	fff60793          	addi	a5,a2,-1
   14dbc:	06060463          	beqz	a2,14e24 <memchr+0x78>
   14dc0:	00054703          	lbu	a4,0(a0)
   14dc4:	07070263          	beq	a4,a6,14e28 <memchr+0x7c>
   14dc8:	00080693          	mv	a3,a6
   14dcc:	0140006f          	j	14de0 <memchr+0x34>
   14dd0:	04078a63          	beqz	a5,14e24 <memchr+0x78>
   14dd4:	00054703          	lbu	a4,0(a0)
   14dd8:	fff78793          	addi	a5,a5,-1
   14ddc:	04d70663          	beq	a4,a3,14e28 <memchr+0x7c>
   14de0:	00150513          	addi	a0,a0,1
   14de4:	00757713          	andi	a4,a0,7
   14de8:	fe0714e3          	bnez	a4,14dd0 <memchr+0x24>
   14dec:	00700693          	li	a3,7
   14df0:	02f6ee63          	bltu	a3,a5,14e2c <memchr+0x80>
   14df4:	02078863          	beqz	a5,14e24 <memchr+0x78>
   14df8:	00054703          	lbu	a4,0(a0)
   14dfc:	03070663          	beq	a4,a6,14e28 <memchr+0x7c>
   14e00:	00150713          	addi	a4,a0,1
   14e04:	00f507b3          	add	a5,a0,a5
   14e08:	00080613          	mv	a2,a6
   14e0c:	0100006f          	j	14e1c <memchr+0x70>
   14e10:	00170713          	addi	a4,a4,1
   14e14:	fff74683          	lbu	a3,-1(a4)
   14e18:	00c68863          	beq	a3,a2,14e28 <memchr+0x7c>
   14e1c:	00070513          	mv	a0,a4
   14e20:	fee798e3          	bne	a5,a4,14e10 <memchr+0x64>
   14e24:	00000513          	li	a0,0
   14e28:	00008067          	ret
   14e2c:	0ff5f593          	andi	a1,a1,255
   14e30:	0085971b          	slliw	a4,a1,0x8
   14e34:	00b765b3          	or	a1,a4,a1
   14e38:	00058713          	mv	a4,a1
   14e3c:	01071613          	slli	a2,a4,0x10
   14e40:	00c76733          	or	a4,a4,a2
   14e44:	0001b637          	lui	a2,0x1b
   14e48:	39063303          	ld	t1,912(a2) # 1b390 <__wctomb+0x50>
   14e4c:	0001b637          	lui	a2,0x1b
   14e50:	39863883          	ld	a7,920(a2) # 1b398 <__wctomb+0x58>
   14e54:	02071613          	slli	a2,a4,0x20
   14e58:	00e66633          	or	a2,a2,a4
   14e5c:	00068593          	mv	a1,a3
   14e60:	00053703          	ld	a4,0(a0)
   14e64:	00e64733          	xor	a4,a2,a4
   14e68:	006706b3          	add	a3,a4,t1
   14e6c:	fff74713          	not	a4,a4
   14e70:	00e6f733          	and	a4,a3,a4
   14e74:	01177733          	and	a4,a4,a7
   14e78:	f80710e3          	bnez	a4,14df8 <memchr+0x4c>
   14e7c:	ff878793          	addi	a5,a5,-8
   14e80:	00850513          	addi	a0,a0,8
   14e84:	fcf5eee3          	bltu	a1,a5,14e60 <memchr+0xb4>
   14e88:	f6dff06f          	j	14df4 <memchr+0x48>
   14e8c:	00060793          	mv	a5,a2
   14e90:	f5dff06f          	j	14dec <memchr+0x40>

0000000000014e94 <memcpy>:
   14e94:	00a5c7b3          	xor	a5,a1,a0
   14e98:	0077f793          	andi	a5,a5,7
   14e9c:	00c508b3          	add	a7,a0,a2
   14ea0:	0e079263          	bnez	a5,14f84 <memcpy+0xf0>
   14ea4:	00700793          	li	a5,7
   14ea8:	0ec7fe63          	bleu	a2,a5,14fa4 <memcpy+0x110>
   14eac:	00757793          	andi	a5,a0,7
   14eb0:	04079a63          	bnez	a5,14f04 <memcpy+0x70>
   14eb4:	ff88f813          	andi	a6,a7,-8
   14eb8:	fc080793          	addi	a5,a6,-64
   14ebc:	00050713          	mv	a4,a0
   14ec0:	06f56663          	bltu	a0,a5,14f2c <memcpy+0x98>
   14ec4:	00058693          	mv	a3,a1
   14ec8:	00070793          	mv	a5,a4
   14ecc:	03077863          	bleu	a6,a4,14efc <memcpy+0x68>
   14ed0:	0006b603          	ld	a2,0(a3)
   14ed4:	00878793          	addi	a5,a5,8
   14ed8:	00868693          	addi	a3,a3,8
   14edc:	fec7bc23          	sd	a2,-8(a5)
   14ee0:	ff07e8e3          	bltu	a5,a6,14ed0 <memcpy+0x3c>
   14ee4:	fff74793          	not	a5,a4
   14ee8:	01078833          	add	a6,a5,a6
   14eec:	ff887813          	andi	a6,a6,-8
   14ef0:	00880813          	addi	a6,a6,8
   14ef4:	01070733          	add	a4,a4,a6
   14ef8:	010585b3          	add	a1,a1,a6
   14efc:	09176863          	bltu	a4,a7,14f8c <memcpy+0xf8>
   14f00:	00008067          	ret
   14f04:	00050713          	mv	a4,a0
   14f08:	0005c683          	lbu	a3,0(a1)
   14f0c:	00170713          	addi	a4,a4,1
   14f10:	00777793          	andi	a5,a4,7
   14f14:	fed70fa3          	sb	a3,-1(a4)
   14f18:	00158593          	addi	a1,a1,1
   14f1c:	fe0796e3          	bnez	a5,14f08 <memcpy+0x74>
   14f20:	ff88f813          	andi	a6,a7,-8
   14f24:	fc080793          	addi	a5,a6,-64
   14f28:	f8f77ee3          	bleu	a5,a4,14ec4 <memcpy+0x30>
   14f2c:	0005b383          	ld	t2,0(a1)
   14f30:	0085b283          	ld	t0,8(a1)
   14f34:	0105bf83          	ld	t6,16(a1)
   14f38:	0185bf03          	ld	t5,24(a1)
   14f3c:	0205be83          	ld	t4,32(a1)
   14f40:	0285be03          	ld	t3,40(a1)
   14f44:	0305b303          	ld	t1,48(a1)
   14f48:	0385b603          	ld	a2,56(a1)
   14f4c:	04858593          	addi	a1,a1,72
   14f50:	04870713          	addi	a4,a4,72
   14f54:	ff85b683          	ld	a3,-8(a1)
   14f58:	fa773c23          	sd	t2,-72(a4)
   14f5c:	fc573023          	sd	t0,-64(a4)
   14f60:	fdf73423          	sd	t6,-56(a4)
   14f64:	fde73823          	sd	t5,-48(a4)
   14f68:	fdd73c23          	sd	t4,-40(a4)
   14f6c:	ffc73023          	sd	t3,-32(a4)
   14f70:	fe673423          	sd	t1,-24(a4)
   14f74:	fec73823          	sd	a2,-16(a4)
   14f78:	fed73c23          	sd	a3,-8(a4)
   14f7c:	faf768e3          	bltu	a4,a5,14f2c <memcpy+0x98>
   14f80:	f45ff06f          	j	14ec4 <memcpy+0x30>
   14f84:	00050713          	mv	a4,a0
   14f88:	03157463          	bleu	a7,a0,14fb0 <memcpy+0x11c>
   14f8c:	0005c783          	lbu	a5,0(a1)
   14f90:	00170713          	addi	a4,a4,1
   14f94:	00158593          	addi	a1,a1,1
   14f98:	fef70fa3          	sb	a5,-1(a4)
   14f9c:	ff1768e3          	bltu	a4,a7,14f8c <memcpy+0xf8>
   14fa0:	00008067          	ret
   14fa4:	00050713          	mv	a4,a0
   14fa8:	ff1562e3          	bltu	a0,a7,14f8c <memcpy+0xf8>
   14fac:	f55ff06f          	j	14f00 <memcpy+0x6c>
   14fb0:	00008067          	ret

0000000000014fb4 <memset>:
   14fb4:	00f00813          	li	a6,15
   14fb8:	00050713          	mv	a4,a0
   14fbc:	02c87a63          	bleu	a2,a6,14ff0 <memset+0x3c>
   14fc0:	00f77793          	andi	a5,a4,15
   14fc4:	0a079063          	bnez	a5,15064 <memset+0xb0>
   14fc8:	06059e63          	bnez	a1,15044 <memset+0x90>
   14fcc:	ff067693          	andi	a3,a2,-16
   14fd0:	00f67613          	andi	a2,a2,15
   14fd4:	00e686b3          	add	a3,a3,a4
   14fd8:	00b73023          	sd	a1,0(a4)
   14fdc:	00b73423          	sd	a1,8(a4)
   14fe0:	01070713          	addi	a4,a4,16
   14fe4:	fed76ae3          	bltu	a4,a3,14fd8 <memset+0x24>
   14fe8:	00061463          	bnez	a2,14ff0 <memset+0x3c>
   14fec:	00008067          	ret
   14ff0:	40c806b3          	sub	a3,a6,a2
   14ff4:	00269693          	slli	a3,a3,0x2
   14ff8:	00000297          	auipc	t0,0x0
   14ffc:	005686b3          	add	a3,a3,t0
   15000:	00c68067          	jr	a3,12
   15004:	00b70723          	sb	a1,14(a4)
   15008:	00b706a3          	sb	a1,13(a4)
   1500c:	00b70623          	sb	a1,12(a4)
   15010:	00b705a3          	sb	a1,11(a4)
   15014:	00b70523          	sb	a1,10(a4)
   15018:	00b704a3          	sb	a1,9(a4)
   1501c:	00b70423          	sb	a1,8(a4)
   15020:	00b703a3          	sb	a1,7(a4)
   15024:	00b70323          	sb	a1,6(a4)
   15028:	00b702a3          	sb	a1,5(a4)
   1502c:	00b70223          	sb	a1,4(a4)
   15030:	00b701a3          	sb	a1,3(a4)
   15034:	00b70123          	sb	a1,2(a4)
   15038:	00b700a3          	sb	a1,1(a4)
   1503c:	00b70023          	sb	a1,0(a4)
   15040:	00008067          	ret
   15044:	0ff5f593          	andi	a1,a1,255
   15048:	00859693          	slli	a3,a1,0x8
   1504c:	00d5e5b3          	or	a1,a1,a3
   15050:	01059693          	slli	a3,a1,0x10
   15054:	00d5e5b3          	or	a1,a1,a3
   15058:	02059693          	slli	a3,a1,0x20
   1505c:	00d5e5b3          	or	a1,a1,a3
   15060:	f6dff06f          	j	14fcc <memset+0x18>
   15064:	00279693          	slli	a3,a5,0x2
   15068:	00000297          	auipc	t0,0x0
   1506c:	005686b3          	add	a3,a3,t0
   15070:	00008293          	mv	t0,ra
   15074:	f98680e7          	jalr	a3,-104
   15078:	00028093          	mv	ra,t0
   1507c:	ff078793          	addi	a5,a5,-16
   15080:	40f70733          	sub	a4,a4,a5
   15084:	00f60633          	add	a2,a2,a5
   15088:	f6c874e3          	bleu	a2,a6,14ff0 <memset+0x3c>
   1508c:	f3dff06f          	j	14fc8 <memset+0x14>

0000000000015090 <__malloc_lock>:
   15090:	00008067          	ret

0000000000015094 <__malloc_unlock>:
   15094:	00008067          	ret

0000000000015098 <_Balloc>:
   15098:	07853783          	ld	a5,120(a0)
   1509c:	fe010113          	addi	sp,sp,-32
   150a0:	00813823          	sd	s0,16(sp)
   150a4:	00913423          	sd	s1,8(sp)
   150a8:	00113c23          	sd	ra,24(sp)
   150ac:	01213023          	sd	s2,0(sp)
   150b0:	00050413          	mv	s0,a0
   150b4:	00058493          	mv	s1,a1
   150b8:	02078e63          	beqz	a5,150f4 <_Balloc+0x5c>
   150bc:	00349513          	slli	a0,s1,0x3
   150c0:	00a787b3          	add	a5,a5,a0
   150c4:	0007b503          	ld	a0,0(a5)
   150c8:	04050663          	beqz	a0,15114 <_Balloc+0x7c>
   150cc:	00053703          	ld	a4,0(a0)
   150d0:	00e7b023          	sd	a4,0(a5)
   150d4:	00052a23          	sw	zero,20(a0)
   150d8:	00052823          	sw	zero,16(a0)
   150dc:	01813083          	ld	ra,24(sp)
   150e0:	01013403          	ld	s0,16(sp)
   150e4:	00813483          	ld	s1,8(sp)
   150e8:	00013903          	ld	s2,0(sp)
   150ec:	02010113          	addi	sp,sp,32
   150f0:	00008067          	ret
   150f4:	04100613          	li	a2,65
   150f8:	00800593          	li	a1,8
   150fc:	638020ef          	jal	17734 <_calloc_r>
   15100:	06a43c23          	sd	a0,120(s0)
   15104:	00050793          	mv	a5,a0
   15108:	fa051ae3          	bnez	a0,150bc <_Balloc+0x24>
   1510c:	00000513          	li	a0,0
   15110:	fcdff06f          	j	150dc <_Balloc+0x44>
   15114:	00100913          	li	s2,1
   15118:	0099193b          	sllw	s2,s2,s1
   1511c:	fff9061b          	addiw	a2,s2,-1
   15120:	00860613          	addi	a2,a2,8
   15124:	00261613          	slli	a2,a2,0x2
   15128:	00100593          	li	a1,1
   1512c:	00040513          	mv	a0,s0
   15130:	604020ef          	jal	17734 <_calloc_r>
   15134:	fc050ce3          	beqz	a0,1510c <_Balloc+0x74>
   15138:	00952423          	sw	s1,8(a0)
   1513c:	01252623          	sw	s2,12(a0)
   15140:	f95ff06f          	j	150d4 <_Balloc+0x3c>

0000000000015144 <_Bfree>:
   15144:	02058063          	beqz	a1,15164 <_Bfree+0x20>
   15148:	0085a783          	lw	a5,8(a1)
   1514c:	07853703          	ld	a4,120(a0)
   15150:	00379793          	slli	a5,a5,0x3
   15154:	00f707b3          	add	a5,a4,a5
   15158:	0007b703          	ld	a4,0(a5)
   1515c:	00e5b023          	sd	a4,0(a1)
   15160:	00b7b023          	sd	a1,0(a5)
   15164:	00008067          	ret

0000000000015168 <__multadd>:
   15168:	fc010113          	addi	sp,sp,-64
   1516c:	00010837          	lui	a6,0x10
   15170:	02813823          	sd	s0,48(sp)
   15174:	02913423          	sd	s1,40(sp)
   15178:	03213023          	sd	s2,32(sp)
   1517c:	00058493          	mv	s1,a1
   15180:	0145a403          	lw	s0,20(a1)
   15184:	00050913          	mv	s2,a0
   15188:	02113c23          	sd	ra,56(sp)
   1518c:	01313c23          	sd	s3,24(sp)
   15190:	01858593          	addi	a1,a1,24
   15194:	00000513          	li	a0,0
   15198:	fff8081b          	addiw	a6,a6,-1
   1519c:	0005a783          	lw	a5,0(a1)
   151a0:	00458593          	addi	a1,a1,4
   151a4:	0015051b          	addiw	a0,a0,1
   151a8:	0107f733          	and	a4,a5,a6
   151ac:	02c7073b          	mulw	a4,a4,a2
   151b0:	0107d79b          	srliw	a5,a5,0x10
   151b4:	02c787bb          	mulw	a5,a5,a2
   151b8:	00d7073b          	addw	a4,a4,a3
   151bc:	0107569b          	srliw	a3,a4,0x10
   151c0:	01077733          	and	a4,a4,a6
   151c4:	00d786bb          	addw	a3,a5,a3
   151c8:	0106979b          	slliw	a5,a3,0x10
   151cc:	00e7873b          	addw	a4,a5,a4
   151d0:	fee5ae23          	sw	a4,-4(a1)
   151d4:	0106d69b          	srliw	a3,a3,0x10
   151d8:	fc8542e3          	blt	a0,s0,1519c <__multadd+0x34>
   151dc:	02068263          	beqz	a3,15200 <__multadd+0x98>
   151e0:	00c4a783          	lw	a5,12(s1)
   151e4:	02f45e63          	ble	a5,s0,15220 <__multadd+0xb8>
   151e8:	00440793          	addi	a5,s0,4
   151ec:	00279793          	slli	a5,a5,0x2
   151f0:	00f487b3          	add	a5,s1,a5
   151f4:	00d7a423          	sw	a3,8(a5)
   151f8:	0014041b          	addiw	s0,s0,1
   151fc:	0084aa23          	sw	s0,20(s1)
   15200:	03813083          	ld	ra,56(sp)
   15204:	00048513          	mv	a0,s1
   15208:	03013403          	ld	s0,48(sp)
   1520c:	02813483          	ld	s1,40(sp)
   15210:	02013903          	ld	s2,32(sp)
   15214:	01813983          	ld	s3,24(sp)
   15218:	04010113          	addi	sp,sp,64
   1521c:	00008067          	ret
   15220:	0084a583          	lw	a1,8(s1)
   15224:	00090513          	mv	a0,s2
   15228:	00d13423          	sd	a3,8(sp)
   1522c:	0015859b          	addiw	a1,a1,1
   15230:	e69ff0ef          	jal	15098 <_Balloc>
   15234:	0144a603          	lw	a2,20(s1)
   15238:	00050993          	mv	s3,a0
   1523c:	01048593          	addi	a1,s1,16
   15240:	00260613          	addi	a2,a2,2
   15244:	01050513          	addi	a0,a0,16
   15248:	00261613          	slli	a2,a2,0x2
   1524c:	c49ff0ef          	jal	14e94 <memcpy>
   15250:	0084a703          	lw	a4,8(s1)
   15254:	07893783          	ld	a5,120(s2)
   15258:	00813683          	ld	a3,8(sp)
   1525c:	00371713          	slli	a4,a4,0x3
   15260:	00e787b3          	add	a5,a5,a4
   15264:	0007b703          	ld	a4,0(a5)
   15268:	00e4b023          	sd	a4,0(s1)
   1526c:	0097b023          	sd	s1,0(a5)
   15270:	00098493          	mv	s1,s3
   15274:	f75ff06f          	j	151e8 <__multadd+0x80>

0000000000015278 <__s2b>:
   15278:	fc010113          	addi	sp,sp,-64
   1527c:	0086879b          	addiw	a5,a3,8
   15280:	03213023          	sd	s2,32(sp)
   15284:	00068913          	mv	s2,a3
   15288:	00900693          	li	a3,9
   1528c:	02d7c6bb          	divw	a3,a5,a3
   15290:	02813823          	sd	s0,48(sp)
   15294:	02913423          	sd	s1,40(sp)
   15298:	01313c23          	sd	s3,24(sp)
   1529c:	01413823          	sd	s4,16(sp)
   152a0:	02113c23          	sd	ra,56(sp)
   152a4:	01513423          	sd	s5,8(sp)
   152a8:	01613023          	sd	s6,0(sp)
   152ac:	00100793          	li	a5,1
   152b0:	00058413          	mv	s0,a1
   152b4:	00050993          	mv	s3,a0
   152b8:	00060a13          	mv	s4,a2
   152bc:	00070493          	mv	s1,a4
   152c0:	00000593          	li	a1,0
   152c4:	00d7d863          	ble	a3,a5,152d4 <__s2b+0x5c>
   152c8:	0017979b          	slliw	a5,a5,0x1
   152cc:	0015859b          	addiw	a1,a1,1
   152d0:	fed7cce3          	blt	a5,a3,152c8 <__s2b+0x50>
   152d4:	00098513          	mv	a0,s3
   152d8:	dc1ff0ef          	jal	15098 <_Balloc>
   152dc:	00100793          	li	a5,1
   152e0:	00f52a23          	sw	a5,20(a0)
   152e4:	00952c23          	sw	s1,24(a0)
   152e8:	00900793          	li	a5,9
   152ec:	0b47d663          	ble	s4,a5,15398 <__s2b+0x120>
   152f0:	ff6a0b1b          	addiw	s6,s4,-10
   152f4:	020b1b13          	slli	s6,s6,0x20
   152f8:	020b5b13          	srli	s6,s6,0x20
   152fc:	00940a93          	addi	s5,s0,9
   15300:	00ab0793          	addi	a5,s6,10
   15304:	00f40433          	add	s0,s0,a5
   15308:	000a8493          	mv	s1,s5
   1530c:	00148493          	addi	s1,s1,1
   15310:	fff4c683          	lbu	a3,-1(s1)
   15314:	00050593          	mv	a1,a0
   15318:	00a00613          	li	a2,10
   1531c:	fd06869b          	addiw	a3,a3,-48
   15320:	00098513          	mv	a0,s3
   15324:	e45ff0ef          	jal	15168 <__multadd>
   15328:	fe8492e3          	bne	s1,s0,1530c <__s2b+0x94>
   1532c:	016a8433          	add	s0,s5,s6
   15330:	00240413          	addi	s0,s0,2
   15334:	032a5e63          	ble	s2,s4,15370 <__s2b+0xf8>
   15338:	fff9091b          	addiw	s2,s2,-1
   1533c:	414904bb          	subw	s1,s2,s4
   15340:	02049493          	slli	s1,s1,0x20
   15344:	0204d493          	srli	s1,s1,0x20
   15348:	00148493          	addi	s1,s1,1
   1534c:	009404b3          	add	s1,s0,s1
   15350:	00140413          	addi	s0,s0,1
   15354:	fff44683          	lbu	a3,-1(s0)
   15358:	00050593          	mv	a1,a0
   1535c:	00a00613          	li	a2,10
   15360:	fd06869b          	addiw	a3,a3,-48
   15364:	00098513          	mv	a0,s3
   15368:	e01ff0ef          	jal	15168 <__multadd>
   1536c:	fe9412e3          	bne	s0,s1,15350 <__s2b+0xd8>
   15370:	03813083          	ld	ra,56(sp)
   15374:	03013403          	ld	s0,48(sp)
   15378:	02813483          	ld	s1,40(sp)
   1537c:	02013903          	ld	s2,32(sp)
   15380:	01813983          	ld	s3,24(sp)
   15384:	01013a03          	ld	s4,16(sp)
   15388:	00813a83          	ld	s5,8(sp)
   1538c:	00013b03          	ld	s6,0(sp)
   15390:	04010113          	addi	sp,sp,64
   15394:	00008067          	ret
   15398:	00a40413          	addi	s0,s0,10
   1539c:	00078a13          	mv	s4,a5
   153a0:	f95ff06f          	j	15334 <__s2b+0xbc>

00000000000153a4 <__hi0bits>:
   153a4:	ffff06b7          	lui	a3,0xffff0
   153a8:	00d576b3          	and	a3,a0,a3
   153ac:	00050793          	mv	a5,a0
   153b0:	00000713          	li	a4,0
   153b4:	00069663          	bnez	a3,153c0 <__hi0bits+0x1c>
   153b8:	0105179b          	slliw	a5,a0,0x10
   153bc:	01000713          	li	a4,16
   153c0:	ff0006b7          	lui	a3,0xff000
   153c4:	00d7f6b3          	and	a3,a5,a3
   153c8:	00069663          	bnez	a3,153d4 <__hi0bits+0x30>
   153cc:	0087071b          	addiw	a4,a4,8
   153d0:	0087979b          	slliw	a5,a5,0x8
   153d4:	f00006b7          	lui	a3,0xf0000
   153d8:	00d7f6b3          	and	a3,a5,a3
   153dc:	00069663          	bnez	a3,153e8 <__hi0bits+0x44>
   153e0:	0047071b          	addiw	a4,a4,4
   153e4:	0047979b          	slliw	a5,a5,0x4
   153e8:	c00006b7          	lui	a3,0xc0000
   153ec:	00d7f6b3          	and	a3,a5,a3
   153f0:	00069663          	bnez	a3,153fc <__hi0bits+0x58>
   153f4:	0027071b          	addiw	a4,a4,2
   153f8:	0027979b          	slliw	a5,a5,0x2
   153fc:	0007ce63          	bltz	a5,15418 <__hi0bits+0x74>
   15400:	02179693          	slli	a3,a5,0x21
   15404:	02000513          	li	a0,32
   15408:	0006c463          	bltz	a3,15410 <__hi0bits+0x6c>
   1540c:	00008067          	ret
   15410:	0017051b          	addiw	a0,a4,1
   15414:	00008067          	ret
   15418:	00070513          	mv	a0,a4
   1541c:	00008067          	ret

0000000000015420 <__lo0bits>:
   15420:	00052783          	lw	a5,0(a0)
   15424:	00050693          	mv	a3,a0
   15428:	0077f713          	andi	a4,a5,7
   1542c:	02070463          	beqz	a4,15454 <__lo0bits+0x34>
   15430:	0017f713          	andi	a4,a5,1
   15434:	00000513          	li	a0,0
   15438:	08071263          	bnez	a4,154bc <__lo0bits+0x9c>
   1543c:	0027f713          	andi	a4,a5,2
   15440:	08071063          	bnez	a4,154c0 <__lo0bits+0xa0>
   15444:	0027d79b          	srliw	a5,a5,0x2
   15448:	00f6a023          	sw	a5,0(a3) # ffffffffc0000000 <_gp+0xffffffffbffe44f0>
   1544c:	00200513          	li	a0,2
   15450:	00008067          	ret
   15454:	0107961b          	slliw	a2,a5,0x10
   15458:	0106561b          	srliw	a2,a2,0x10
   1545c:	00000713          	li	a4,0
   15460:	00061663          	bnez	a2,1546c <__lo0bits+0x4c>
   15464:	0107d79b          	srliw	a5,a5,0x10
   15468:	01000713          	li	a4,16
   1546c:	0ff7f613          	andi	a2,a5,255
   15470:	00061663          	bnez	a2,1547c <__lo0bits+0x5c>
   15474:	0087071b          	addiw	a4,a4,8
   15478:	0087d79b          	srliw	a5,a5,0x8
   1547c:	00f7f613          	andi	a2,a5,15
   15480:	00061663          	bnez	a2,1548c <__lo0bits+0x6c>
   15484:	0047071b          	addiw	a4,a4,4
   15488:	0047d79b          	srliw	a5,a5,0x4
   1548c:	0037f613          	andi	a2,a5,3
   15490:	00061663          	bnez	a2,1549c <__lo0bits+0x7c>
   15494:	0027071b          	addiw	a4,a4,2
   15498:	0027d79b          	srliw	a5,a5,0x2
   1549c:	0017f613          	andi	a2,a5,1
   154a0:	00061a63          	bnez	a2,154b4 <__lo0bits+0x94>
   154a4:	0017d79b          	srliw	a5,a5,0x1
   154a8:	02000513          	li	a0,32
   154ac:	00078863          	beqz	a5,154bc <__lo0bits+0x9c>
   154b0:	0017071b          	addiw	a4,a4,1
   154b4:	00f6a023          	sw	a5,0(a3)
   154b8:	00070513          	mv	a0,a4
   154bc:	00008067          	ret
   154c0:	0017d79b          	srliw	a5,a5,0x1
   154c4:	00f6a023          	sw	a5,0(a3)
   154c8:	00100513          	li	a0,1
   154cc:	00008067          	ret

00000000000154d0 <__i2b>:
   154d0:	ff010113          	addi	sp,sp,-16
   154d4:	00813023          	sd	s0,0(sp)
   154d8:	00058413          	mv	s0,a1
   154dc:	00100593          	li	a1,1
   154e0:	00113423          	sd	ra,8(sp)
   154e4:	bb5ff0ef          	jal	15098 <_Balloc>
   154e8:	00813083          	ld	ra,8(sp)
   154ec:	00100713          	li	a4,1
   154f0:	00852c23          	sw	s0,24(a0)
   154f4:	00e52a23          	sw	a4,20(a0)
   154f8:	00013403          	ld	s0,0(sp)
   154fc:	01010113          	addi	sp,sp,16
   15500:	00008067          	ret

0000000000015504 <__multiply>:
   15504:	fd010113          	addi	sp,sp,-48
   15508:	01313423          	sd	s3,8(sp)
   1550c:	01413023          	sd	s4,0(sp)
   15510:	0145a983          	lw	s3,20(a1)
   15514:	01462a03          	lw	s4,20(a2)
   15518:	00913c23          	sd	s1,24(sp)
   1551c:	01213823          	sd	s2,16(sp)
   15520:	02113423          	sd	ra,40(sp)
   15524:	02813023          	sd	s0,32(sp)
   15528:	00058913          	mv	s2,a1
   1552c:	00060493          	mv	s1,a2
   15530:	0149dc63          	ble	s4,s3,15548 <__multiply+0x44>
   15534:	00098713          	mv	a4,s3
   15538:	00060913          	mv	s2,a2
   1553c:	000a0993          	mv	s3,s4
   15540:	00058493          	mv	s1,a1
   15544:	00070a13          	mv	s4,a4
   15548:	00c92783          	lw	a5,12(s2)
   1554c:	00892583          	lw	a1,8(s2)
   15550:	0149843b          	addw	s0,s3,s4
   15554:	0087a7b3          	slt	a5,a5,s0
   15558:	00f585bb          	addw	a1,a1,a5
   1555c:	b3dff0ef          	jal	15098 <_Balloc>
   15560:	00040893          	mv	a7,s0
   15564:	01850313          	addi	t1,a0,24
   15568:	00289893          	slli	a7,a7,0x2
   1556c:	011308b3          	add	a7,t1,a7
   15570:	00030793          	mv	a5,t1
   15574:	01137863          	bleu	a7,t1,15584 <__multiply+0x80>
   15578:	0007a023          	sw	zero,0(a5)
   1557c:	00478793          	addi	a5,a5,4
   15580:	ff17ece3          	bltu	a5,a7,15578 <__multiply+0x74>
   15584:	01848613          	addi	a2,s1,24
   15588:	002a1e13          	slli	t3,s4,0x2
   1558c:	01890e93          	addi	t4,s2,24
   15590:	00299813          	slli	a6,s3,0x2
   15594:	000105b7          	lui	a1,0x10
   15598:	01c60e33          	add	t3,a2,t3
   1559c:	010e8833          	add	a6,t4,a6
   155a0:	fff5859b          	addiw	a1,a1,-1
   155a4:	11c67463          	bleu	t3,a2,156ac <__multiply+0x1a8>
   155a8:	00062383          	lw	t2,0(a2)
   155ac:	00b3f4b3          	and	s1,t2,a1
   155b0:	06048a63          	beqz	s1,15624 <__multiply+0x120>
   155b4:	00030293          	mv	t0,t1
   155b8:	000e8f93          	mv	t6,t4
   155bc:	00000793          	li	a5,0
   155c0:	0080006f          	j	155c8 <__multiply+0xc4>
   155c4:	00038293          	mv	t0,t2
   155c8:	000fa683          	lw	a3,0(t6)
   155cc:	0002af03          	lw	t5,0(t0) # 15068 <memset+0xb4>
   155d0:	00428393          	addi	t2,t0,4
   155d4:	00b6f733          	and	a4,a3,a1
   155d8:	0297073b          	mulw	a4,a4,s1
   155dc:	0106d69b          	srliw	a3,a3,0x10
   155e0:	00bf7933          	and	s2,t5,a1
   155e4:	010f5f1b          	srliw	t5,t5,0x10
   155e8:	004f8f93          	addi	t6,t6,4
   155ec:	029686bb          	mulw	a3,a3,s1
   155f0:	0127073b          	addw	a4,a4,s2
   155f4:	00f707bb          	addw	a5,a4,a5
   155f8:	0107d71b          	srliw	a4,a5,0x10
   155fc:	00b7f7b3          	and	a5,a5,a1
   15600:	01e686bb          	addw	a3,a3,t5
   15604:	00e6873b          	addw	a4,a3,a4
   15608:	0107169b          	slliw	a3,a4,0x10
   1560c:	00f6e7b3          	or	a5,a3,a5
   15610:	fef3ae23          	sw	a5,-4(t2)
   15614:	0107579b          	srliw	a5,a4,0x10
   15618:	fb0fe6e3          	bltu	t6,a6,155c4 <__multiply+0xc0>
   1561c:	00f2a223          	sw	a5,4(t0)
   15620:	00062383          	lw	t2,0(a2)
   15624:	0103d39b          	srliw	t2,t2,0x10
   15628:	06038c63          	beqz	t2,156a0 <__multiply+0x19c>
   1562c:	00032783          	lw	a5,0(t1) # 10000 <_ftext>
   15630:	00030293          	mv	t0,t1
   15634:	000e8f93          	mv	t6,t4
   15638:	00078f13          	mv	t5,a5
   1563c:	00000693          	li	a3,0
   15640:	0080006f          	j	15648 <__multiply+0x144>
   15644:	00048293          	mv	t0,s1
   15648:	000fa703          	lw	a4,0(t6)
   1564c:	010f5f1b          	srliw	t5,t5,0x10
   15650:	00b7f7b3          	and	a5,a5,a1
   15654:	00b77733          	and	a4,a4,a1
   15658:	0277073b          	mulw	a4,a4,t2
   1565c:	00428493          	addi	s1,t0,4
   15660:	004f8f93          	addi	t6,t6,4
   15664:	01e7073b          	addw	a4,a4,t5
   15668:	00d706bb          	addw	a3,a4,a3
   1566c:	0106971b          	slliw	a4,a3,0x10
   15670:	00f767b3          	or	a5,a4,a5
   15674:	fef4ae23          	sw	a5,-4(s1)
   15678:	ffefd703          	lhu	a4,-2(t6)
   1567c:	0042af03          	lw	t5,4(t0)
   15680:	0106d69b          	srliw	a3,a3,0x10
   15684:	0277073b          	mulw	a4,a4,t2
   15688:	00bf77b3          	and	a5,t5,a1
   1568c:	00f707bb          	addw	a5,a4,a5
   15690:	00d787bb          	addw	a5,a5,a3
   15694:	0107d69b          	srliw	a3,a5,0x10
   15698:	fb0fe6e3          	bltu	t6,a6,15644 <__multiply+0x140>
   1569c:	00f2a223          	sw	a5,4(t0)
   156a0:	00460613          	addi	a2,a2,4
   156a4:	00430313          	addi	t1,t1,4
   156a8:	f1c660e3          	bltu	a2,t3,155a8 <__multiply+0xa4>
   156ac:	02805463          	blez	s0,156d4 <__multiply+0x1d0>
   156b0:	ffc8a783          	lw	a5,-4(a7)
   156b4:	ffc88893          	addi	a7,a7,-4
   156b8:	00078863          	beqz	a5,156c8 <__multiply+0x1c4>
   156bc:	0180006f          	j	156d4 <__multiply+0x1d0>
   156c0:	0008a783          	lw	a5,0(a7)
   156c4:	00079863          	bnez	a5,156d4 <__multiply+0x1d0>
   156c8:	fff4041b          	addiw	s0,s0,-1
   156cc:	ffc88893          	addi	a7,a7,-4
   156d0:	fe0418e3          	bnez	s0,156c0 <__multiply+0x1bc>
   156d4:	02813083          	ld	ra,40(sp)
   156d8:	00852a23          	sw	s0,20(a0)
   156dc:	01813483          	ld	s1,24(sp)
   156e0:	02013403          	ld	s0,32(sp)
   156e4:	01013903          	ld	s2,16(sp)
   156e8:	00813983          	ld	s3,8(sp)
   156ec:	00013a03          	ld	s4,0(sp)
   156f0:	03010113          	addi	sp,sp,48
   156f4:	00008067          	ret

00000000000156f8 <__pow5mult>:
   156f8:	fd010113          	addi	sp,sp,-48
   156fc:	02813023          	sd	s0,32(sp)
   15700:	01213823          	sd	s2,16(sp)
   15704:	01313423          	sd	s3,8(sp)
   15708:	02113423          	sd	ra,40(sp)
   1570c:	00913c23          	sd	s1,24(sp)
   15710:	00367793          	andi	a5,a2,3
   15714:	00060413          	mv	s0,a2
   15718:	00050993          	mv	s3,a0
   1571c:	00058913          	mv	s2,a1
   15720:	0a079e63          	bnez	a5,157dc <__pow5mult+0xe4>
   15724:	4024541b          	sraiw	s0,s0,0x2
   15728:	06040663          	beqz	s0,15794 <__pow5mult+0x9c>
   1572c:	0709b483          	ld	s1,112(s3)
   15730:	0c048a63          	beqz	s1,15804 <__pow5mult+0x10c>
   15734:	00147793          	andi	a5,s0,1
   15738:	02079063          	bnez	a5,15758 <__pow5mult+0x60>
   1573c:	4014541b          	sraiw	s0,s0,0x1
   15740:	04040a63          	beqz	s0,15794 <__pow5mult+0x9c>
   15744:	0004b503          	ld	a0,0(s1)
   15748:	06050663          	beqz	a0,157b4 <__pow5mult+0xbc>
   1574c:	00050493          	mv	s1,a0
   15750:	00147793          	andi	a5,s0,1
   15754:	fe0784e3          	beqz	a5,1573c <__pow5mult+0x44>
   15758:	00048613          	mv	a2,s1
   1575c:	00090593          	mv	a1,s2
   15760:	00098513          	mv	a0,s3
   15764:	da1ff0ef          	jal	15504 <__multiply>
   15768:	06090663          	beqz	s2,157d4 <__pow5mult+0xdc>
   1576c:	00892783          	lw	a5,8(s2)
   15770:	0789b703          	ld	a4,120(s3)
   15774:	4014541b          	sraiw	s0,s0,0x1
   15778:	00379793          	slli	a5,a5,0x3
   1577c:	00f707b3          	add	a5,a4,a5
   15780:	0007b703          	ld	a4,0(a5)
   15784:	00e93023          	sd	a4,0(s2)
   15788:	0127b023          	sd	s2,0(a5)
   1578c:	00050913          	mv	s2,a0
   15790:	fa041ae3          	bnez	s0,15744 <__pow5mult+0x4c>
   15794:	02813083          	ld	ra,40(sp)
   15798:	00090513          	mv	a0,s2
   1579c:	02013403          	ld	s0,32(sp)
   157a0:	01813483          	ld	s1,24(sp)
   157a4:	01013903          	ld	s2,16(sp)
   157a8:	00813983          	ld	s3,8(sp)
   157ac:	03010113          	addi	sp,sp,48
   157b0:	00008067          	ret
   157b4:	00048613          	mv	a2,s1
   157b8:	00048593          	mv	a1,s1
   157bc:	00098513          	mv	a0,s3
   157c0:	d45ff0ef          	jal	15504 <__multiply>
   157c4:	00a4b023          	sd	a0,0(s1)
   157c8:	00053023          	sd	zero,0(a0)
   157cc:	00050493          	mv	s1,a0
   157d0:	f81ff06f          	j	15750 <__pow5mult+0x58>
   157d4:	00050913          	mv	s2,a0
   157d8:	f65ff06f          	j	1573c <__pow5mult+0x44>
   157dc:	fff7879b          	addiw	a5,a5,-1
   157e0:	00019737          	lui	a4,0x19
   157e4:	f7070713          	addi	a4,a4,-144 # 18f70 <p05.2568>
   157e8:	00279793          	slli	a5,a5,0x2
   157ec:	00f707b3          	add	a5,a4,a5
   157f0:	0007a603          	lw	a2,0(a5)
   157f4:	00000693          	li	a3,0
   157f8:	971ff0ef          	jal	15168 <__multadd>
   157fc:	00050913          	mv	s2,a0
   15800:	f25ff06f          	j	15724 <__pow5mult+0x2c>
   15804:	00100593          	li	a1,1
   15808:	00098513          	mv	a0,s3
   1580c:	88dff0ef          	jal	15098 <_Balloc>
   15810:	27100793          	li	a5,625
   15814:	00f52c23          	sw	a5,24(a0)
   15818:	00100793          	li	a5,1
   1581c:	00f52a23          	sw	a5,20(a0)
   15820:	06a9b823          	sd	a0,112(s3)
   15824:	00050493          	mv	s1,a0
   15828:	00053023          	sd	zero,0(a0)
   1582c:	f09ff06f          	j	15734 <__pow5mult+0x3c>

0000000000015830 <__lshift>:
   15830:	fc010113          	addi	sp,sp,-64
   15834:	01513423          	sd	s5,8(sp)
   15838:	0145aa83          	lw	s5,20(a1) # 10014 <_ftext+0x14>
   1583c:	02813823          	sd	s0,48(sp)
   15840:	00c5a783          	lw	a5,12(a1)
   15844:	4056541b          	sraiw	s0,a2,0x5
   15848:	01540abb          	addw	s5,s0,s5
   1584c:	02913423          	sd	s1,40(sp)
   15850:	03213023          	sd	s2,32(sp)
   15854:	01313c23          	sd	s3,24(sp)
   15858:	01413823          	sd	s4,16(sp)
   1585c:	02113c23          	sd	ra,56(sp)
   15860:	001a849b          	addiw	s1,s5,1
   15864:	00058913          	mv	s2,a1
   15868:	00060993          	mv	s3,a2
   1586c:	00050a13          	mv	s4,a0
   15870:	0085a583          	lw	a1,8(a1)
   15874:	0097d863          	ble	s1,a5,15884 <__lshift+0x54>
   15878:	0017979b          	slliw	a5,a5,0x1
   1587c:	0015859b          	addiw	a1,a1,1
   15880:	fe97cce3          	blt	a5,s1,15878 <__lshift+0x48>
   15884:	000a0513          	mv	a0,s4
   15888:	811ff0ef          	jal	15098 <_Balloc>
   1588c:	01850793          	addi	a5,a0,24
   15890:	0e805c63          	blez	s0,15988 <__lshift+0x158>
   15894:	fff4071b          	addiw	a4,s0,-1
   15898:	02071713          	slli	a4,a4,0x20
   1589c:	02075713          	srli	a4,a4,0x20
   158a0:	00170713          	addi	a4,a4,1
   158a4:	00271713          	slli	a4,a4,0x2
   158a8:	00e78733          	add	a4,a5,a4
   158ac:	00478793          	addi	a5,a5,4
   158b0:	fe07ae23          	sw	zero,-4(a5)
   158b4:	fee79ce3          	bne	a5,a4,158ac <__lshift+0x7c>
   158b8:	01492883          	lw	a7,20(s2)
   158bc:	01890793          	addi	a5,s2,24
   158c0:	01f9f613          	andi	a2,s3,31
   158c4:	00289893          	slli	a7,a7,0x2
   158c8:	011788b3          	add	a7,a5,a7
   158cc:	08060863          	beqz	a2,1595c <__lshift+0x12c>
   158d0:	02000313          	li	t1,32
   158d4:	40c3033b          	subw	t1,t1,a2
   158d8:	00000693          	li	a3,0
   158dc:	0080006f          	j	158e4 <__lshift+0xb4>
   158e0:	00080713          	mv	a4,a6
   158e4:	0007a583          	lw	a1,0(a5)
   158e8:	00470813          	addi	a6,a4,4
   158ec:	00478793          	addi	a5,a5,4
   158f0:	00c595bb          	sllw	a1,a1,a2
   158f4:	00d5e6b3          	or	a3,a1,a3
   158f8:	fed82e23          	sw	a3,-4(a6) # fffc <_ftext-0x4>
   158fc:	ffc7a683          	lw	a3,-4(a5)
   15900:	0066d6bb          	srlw	a3,a3,t1
   15904:	fd17eee3          	bltu	a5,a7,158e0 <__lshift+0xb0>
   15908:	00d72223          	sw	a3,4(a4)
   1590c:	00068463          	beqz	a3,15914 <__lshift+0xe4>
   15910:	002a849b          	addiw	s1,s5,2
   15914:	00892783          	lw	a5,8(s2)
   15918:	078a3703          	ld	a4,120(s4)
   1591c:	fff4849b          	addiw	s1,s1,-1
   15920:	00379793          	slli	a5,a5,0x3
   15924:	00f707b3          	add	a5,a4,a5
   15928:	0007b703          	ld	a4,0(a5)
   1592c:	03813083          	ld	ra,56(sp)
   15930:	00952a23          	sw	s1,20(a0)
   15934:	00e93023          	sd	a4,0(s2)
   15938:	0127b023          	sd	s2,0(a5)
   1593c:	03013403          	ld	s0,48(sp)
   15940:	02813483          	ld	s1,40(sp)
   15944:	02013903          	ld	s2,32(sp)
   15948:	01813983          	ld	s3,24(sp)
   1594c:	01013a03          	ld	s4,16(sp)
   15950:	00813a83          	ld	s5,8(sp)
   15954:	04010113          	addi	sp,sp,64
   15958:	00008067          	ret
   1595c:	00478793          	addi	a5,a5,4
   15960:	ffc7a683          	lw	a3,-4(a5)
   15964:	00470713          	addi	a4,a4,4
   15968:	fed72e23          	sw	a3,-4(a4)
   1596c:	fb17f4e3          	bleu	a7,a5,15914 <__lshift+0xe4>
   15970:	00478793          	addi	a5,a5,4
   15974:	ffc7a683          	lw	a3,-4(a5)
   15978:	00470713          	addi	a4,a4,4
   1597c:	fed72e23          	sw	a3,-4(a4)
   15980:	fd17eee3          	bltu	a5,a7,1595c <__lshift+0x12c>
   15984:	f91ff06f          	j	15914 <__lshift+0xe4>
   15988:	00078713          	mv	a4,a5
   1598c:	f2dff06f          	j	158b8 <__lshift+0x88>

0000000000015990 <__mcmp>:
   15990:	01452783          	lw	a5,20(a0)
   15994:	0145a703          	lw	a4,20(a1)
   15998:	40e787bb          	subw	a5,a5,a4
   1599c:	04079263          	bnez	a5,159e0 <__mcmp+0x50>
   159a0:	00271713          	slli	a4,a4,0x2
   159a4:	01850513          	addi	a0,a0,24
   159a8:	01858593          	addi	a1,a1,24
   159ac:	00e507b3          	add	a5,a0,a4
   159b0:	00e585b3          	add	a1,a1,a4
   159b4:	0080006f          	j	159bc <__mcmp+0x2c>
   159b8:	02f57863          	bleu	a5,a0,159e8 <__mcmp+0x58>
   159bc:	ffc78793          	addi	a5,a5,-4
   159c0:	ffc58593          	addi	a1,a1,-4
   159c4:	0007a703          	lw	a4,0(a5)
   159c8:	0005a683          	lw	a3,0(a1)
   159cc:	fed706e3          	beq	a4,a3,159b8 <__mcmp+0x28>
   159d0:	00d737b3          	sltu	a5,a4,a3
   159d4:	40f007bb          	negw	a5,a5
   159d8:	0017e513          	ori	a0,a5,1
   159dc:	00008067          	ret
   159e0:	00078513          	mv	a0,a5
   159e4:	00008067          	ret
   159e8:	00000513          	li	a0,0
   159ec:	00008067          	ret

00000000000159f0 <__mdiff>:
   159f0:	0145a703          	lw	a4,20(a1)
   159f4:	01462783          	lw	a5,20(a2)
   159f8:	fd010113          	addi	sp,sp,-48
   159fc:	01213823          	sd	s2,16(sp)
   15a00:	01313423          	sd	s3,8(sp)
   15a04:	02113423          	sd	ra,40(sp)
   15a08:	02813023          	sd	s0,32(sp)
   15a0c:	00913c23          	sd	s1,24(sp)
   15a10:	01413023          	sd	s4,0(sp)
   15a14:	40f7073b          	subw	a4,a4,a5
   15a18:	00058913          	mv	s2,a1
   15a1c:	00060993          	mv	s3,a2
   15a20:	04071863          	bnez	a4,15a70 <__mdiff+0x80>
   15a24:	00279713          	slli	a4,a5,0x2
   15a28:	01858813          	addi	a6,a1,24
   15a2c:	01860413          	addi	s0,a2,24
   15a30:	00e807b3          	add	a5,a6,a4
   15a34:	00e40733          	add	a4,s0,a4
   15a38:	0080006f          	j	15a40 <__mdiff+0x50>
   15a3c:	16f87263          	bleu	a5,a6,15ba0 <__mdiff+0x1b0>
   15a40:	ffc78793          	addi	a5,a5,-4
   15a44:	ffc70713          	addi	a4,a4,-4
   15a48:	0007a583          	lw	a1,0(a5)
   15a4c:	00072683          	lw	a3,0(a4)
   15a50:	fed586e3          	beq	a1,a3,15a3c <__mdiff+0x4c>
   15a54:	18d5f063          	bleu	a3,a1,15bd4 <__mdiff+0x1e4>
   15a58:	00090793          	mv	a5,s2
   15a5c:	00080493          	mv	s1,a6
   15a60:	00098913          	mv	s2,s3
   15a64:	00100a13          	li	s4,1
   15a68:	00078993          	mv	s3,a5
   15a6c:	0140006f          	j	15a80 <__mdiff+0x90>
   15a70:	16074a63          	bltz	a4,15be4 <__mdiff+0x1f4>
   15a74:	01860493          	addi	s1,a2,24
   15a78:	01858413          	addi	s0,a1,24
   15a7c:	00000a13          	li	s4,0
   15a80:	00892583          	lw	a1,8(s2)
   15a84:	e14ff0ef          	jal	15098 <_Balloc>
   15a88:	01492e03          	lw	t3,20(s2)
   15a8c:	0149af03          	lw	t5,20(s3)
   15a90:	00010337          	lui	t1,0x10
   15a94:	002e1e93          	slli	t4,t3,0x2
   15a98:	002f1f13          	slli	t5,t5,0x2
   15a9c:	01452823          	sw	s4,16(a0)
   15aa0:	01d40eb3          	add	t4,s0,t4
   15aa4:	01e48f33          	add	t5,s1,t5
   15aa8:	01850813          	addi	a6,a0,24
   15aac:	00000693          	li	a3,0
   15ab0:	fff3031b          	addiw	t1,t1,-1
   15ab4:	00042583          	lw	a1,0(s0)
   15ab8:	0004a883          	lw	a7,0(s1)
   15abc:	00480813          	addi	a6,a6,4
   15ac0:	0065f633          	and	a2,a1,t1
   15ac4:	00d606bb          	addw	a3,a2,a3
   15ac8:	0068f733          	and	a4,a7,t1
   15acc:	40e6873b          	subw	a4,a3,a4
   15ad0:	0105d59b          	srliw	a1,a1,0x10
   15ad4:	0108d69b          	srliw	a3,a7,0x10
   15ad8:	40d585bb          	subw	a1,a1,a3
   15adc:	4107569b          	sraiw	a3,a4,0x10
   15ae0:	00d586bb          	addw	a3,a1,a3
   15ae4:	0106979b          	slliw	a5,a3,0x10
   15ae8:	00677733          	and	a4,a4,t1
   15aec:	00e7e7b3          	or	a5,a5,a4
   15af0:	00448493          	addi	s1,s1,4
   15af4:	fef82e23          	sw	a5,-4(a6)
   15af8:	00440413          	addi	s0,s0,4
   15afc:	4106d69b          	sraiw	a3,a3,0x10
   15b00:	fbe4eae3          	bltu	s1,t5,15ab4 <__mdiff+0xc4>
   15b04:	07d47063          	bleu	t4,s0,15b64 <__mdiff+0x174>
   15b08:	00010f37          	lui	t5,0x10
   15b0c:	00080313          	mv	t1,a6
   15b10:	00040893          	mv	a7,s0
   15b14:	ffff0f1b          	addiw	t5,t5,-1
   15b18:	0008a583          	lw	a1,0(a7)
   15b1c:	00430313          	addi	t1,t1,4 # 10004 <_ftext+0x4>
   15b20:	00488893          	addi	a7,a7,4
   15b24:	01e5f633          	and	a2,a1,t5
   15b28:	00d606bb          	addw	a3,a2,a3
   15b2c:	4106d71b          	sraiw	a4,a3,0x10
   15b30:	0105d59b          	srliw	a1,a1,0x10
   15b34:	00e5873b          	addw	a4,a1,a4
   15b38:	01e6f6b3          	and	a3,a3,t5
   15b3c:	0107179b          	slliw	a5,a4,0x10
   15b40:	00d7e7b3          	or	a5,a5,a3
   15b44:	fef32e23          	sw	a5,-4(t1)
   15b48:	4107569b          	sraiw	a3,a4,0x10
   15b4c:	fdd8e6e3          	bltu	a7,t4,15b18 <__mdiff+0x128>
   15b50:	fff44413          	not	s0,s0
   15b54:	01d40eb3          	add	t4,s0,t4
   15b58:	ffcefe93          	andi	t4,t4,-4
   15b5c:	004e8e93          	addi	t4,t4,4
   15b60:	01d80833          	add	a6,a6,t4
   15b64:	ffc80813          	addi	a6,a6,-4
   15b68:	00079a63          	bnez	a5,15b7c <__mdiff+0x18c>
   15b6c:	ffc80813          	addi	a6,a6,-4
   15b70:	00082783          	lw	a5,0(a6)
   15b74:	fffe0e1b          	addiw	t3,t3,-1
   15b78:	fe078ae3          	beqz	a5,15b6c <__mdiff+0x17c>
   15b7c:	02813083          	ld	ra,40(sp)
   15b80:	02013403          	ld	s0,32(sp)
   15b84:	01813483          	ld	s1,24(sp)
   15b88:	01013903          	ld	s2,16(sp)
   15b8c:	00813983          	ld	s3,8(sp)
   15b90:	00013a03          	ld	s4,0(sp)
   15b94:	01c52a23          	sw	t3,20(a0)
   15b98:	03010113          	addi	sp,sp,48
   15b9c:	00008067          	ret
   15ba0:	00000593          	li	a1,0
   15ba4:	cf4ff0ef          	jal	15098 <_Balloc>
   15ba8:	02813083          	ld	ra,40(sp)
   15bac:	00100793          	li	a5,1
   15bb0:	02013403          	ld	s0,32(sp)
   15bb4:	01813483          	ld	s1,24(sp)
   15bb8:	01013903          	ld	s2,16(sp)
   15bbc:	00813983          	ld	s3,8(sp)
   15bc0:	00013a03          	ld	s4,0(sp)
   15bc4:	00f52a23          	sw	a5,20(a0)
   15bc8:	00052c23          	sw	zero,24(a0)
   15bcc:	03010113          	addi	sp,sp,48
   15bd0:	00008067          	ret
   15bd4:	00040493          	mv	s1,s0
   15bd8:	00000a13          	li	s4,0
   15bdc:	00080413          	mv	s0,a6
   15be0:	ea1ff06f          	j	15a80 <__mdiff+0x90>
   15be4:	00090793          	mv	a5,s2
   15be8:	01890493          	addi	s1,s2,24
   15bec:	01898413          	addi	s0,s3,24
   15bf0:	00098913          	mv	s2,s3
   15bf4:	00100a13          	li	s4,1
   15bf8:	00078993          	mv	s3,a5
   15bfc:	e85ff06f          	j	15a80 <__mdiff+0x90>

0000000000015c00 <__ulp>:
   15c00:	e20507d3          	fmv.x.d	a5,fa0
   15c04:	7ff00737          	lui	a4,0x7ff00
   15c08:	4207d793          	srai	a5,a5,0x20
   15c0c:	00e7f7b3          	and	a5,a5,a4
   15c10:	fcc00737          	lui	a4,0xfcc00
   15c14:	00e787bb          	addw	a5,a5,a4
   15c18:	00f05863          	blez	a5,15c28 <__ulp+0x28>
   15c1c:	02079793          	slli	a5,a5,0x20
   15c20:	f2078553          	fmv.d.x	fa0,a5
   15c24:	00008067          	ret
   15c28:	40f007bb          	negw	a5,a5
   15c2c:	4147d79b          	sraiw	a5,a5,0x14
   15c30:	01300713          	li	a4,19
   15c34:	04f75063          	ble	a5,a4,15c74 <__ulp+0x74>
   15c38:	fec7869b          	addiw	a3,a5,-20
   15c3c:	01e00613          	li	a2,30
   15c40:	00000793          	li	a5,0
   15c44:	00100713          	li	a4,1
   15c48:	00d64663          	blt	a2,a3,15c54 <__ulp+0x54>
   15c4c:	fff6c693          	not	a3,a3
   15c50:	00d7173b          	sllw	a4,a4,a3
   15c54:	fff00693          	li	a3,-1
   15c58:	02069693          	slli	a3,a3,0x20
   15c5c:	02071713          	slli	a4,a4,0x20
   15c60:	02075713          	srli	a4,a4,0x20
   15c64:	00d7f7b3          	and	a5,a5,a3
   15c68:	00e7e7b3          	or	a5,a5,a4
   15c6c:	f2078553          	fmv.d.x	fa0,a5
   15c70:	00008067          	ret
   15c74:	00080737          	lui	a4,0x80
   15c78:	40f757bb          	sraw	a5,a4,a5
   15c7c:	fa1ff06f          	j	15c1c <__ulp+0x1c>

0000000000015c80 <__b2d>:
   15c80:	fd010113          	addi	sp,sp,-48
   15c84:	02813023          	sd	s0,32(sp)
   15c88:	01452403          	lw	s0,20(a0)
   15c8c:	00913c23          	sd	s1,24(sp)
   15c90:	01850493          	addi	s1,a0,24
   15c94:	00241413          	slli	s0,s0,0x2
   15c98:	00848433          	add	s0,s1,s0
   15c9c:	01213823          	sd	s2,16(sp)
   15ca0:	ffc42903          	lw	s2,-4(s0)
   15ca4:	01313423          	sd	s3,8(sp)
   15ca8:	01413023          	sd	s4,0(sp)
   15cac:	00090513          	mv	a0,s2
   15cb0:	00058a13          	mv	s4,a1
   15cb4:	02113423          	sd	ra,40(sp)
   15cb8:	eecff0ef          	jal	153a4 <__hi0bits>
   15cbc:	02000793          	li	a5,32
   15cc0:	40a7873b          	subw	a4,a5,a0
   15cc4:	00ea2023          	sw	a4,0(s4)
   15cc8:	00a00713          	li	a4,10
   15ccc:	ffc40993          	addi	s3,s0,-4
   15cd0:	06a74a63          	blt	a4,a0,15d44 <__b2d+0xc4>
   15cd4:	00b00693          	li	a3,11
   15cd8:	40a686bb          	subw	a3,a3,a0
   15cdc:	3ff00737          	lui	a4,0x3ff00
   15ce0:	00d957bb          	srlw	a5,s2,a3
   15ce4:	00e7e7b3          	or	a5,a5,a4
   15ce8:	02079793          	slli	a5,a5,0x20
   15cec:	00000713          	li	a4,0
   15cf0:	0134f663          	bleu	s3,s1,15cfc <__b2d+0x7c>
   15cf4:	ff842703          	lw	a4,-8(s0)
   15cf8:	00d7573b          	srlw	a4,a4,a3
   15cfc:	0155051b          	addiw	a0,a0,21
   15d00:	00a9153b          	sllw	a0,s2,a0
   15d04:	00e56533          	or	a0,a0,a4
   15d08:	fff00713          	li	a4,-1
   15d0c:	02051513          	slli	a0,a0,0x20
   15d10:	02071713          	slli	a4,a4,0x20
   15d14:	02055513          	srli	a0,a0,0x20
   15d18:	00e7f7b3          	and	a5,a5,a4
   15d1c:	00a7e7b3          	or	a5,a5,a0
   15d20:	02813083          	ld	ra,40(sp)
   15d24:	f2078553          	fmv.d.x	fa0,a5
   15d28:	02013403          	ld	s0,32(sp)
   15d2c:	01813483          	ld	s1,24(sp)
   15d30:	01013903          	ld	s2,16(sp)
   15d34:	00813983          	ld	s3,8(sp)
   15d38:	00013a03          	ld	s4,0(sp)
   15d3c:	03010113          	addi	sp,sp,48
   15d40:	00008067          	ret
   15d44:	ff55051b          	addiw	a0,a0,-11
   15d48:	0534f263          	bleu	s3,s1,15d8c <__b2d+0x10c>
   15d4c:	ff842683          	lw	a3,-8(s0)
   15d50:	04050263          	beqz	a0,15d94 <__b2d+0x114>
   15d54:	40a7863b          	subw	a2,a5,a0
   15d58:	00a917bb          	sllw	a5,s2,a0
   15d5c:	3ff00937          	lui	s2,0x3ff00
   15d60:	00c6d73b          	srlw	a4,a3,a2
   15d64:	0127e7b3          	or	a5,a5,s2
   15d68:	00e7e7b3          	or	a5,a5,a4
   15d6c:	ff840713          	addi	a4,s0,-8
   15d70:	02079793          	slli	a5,a5,0x20
   15d74:	04e4fa63          	bleu	a4,s1,15dc8 <__b2d+0x148>
   15d78:	ff442703          	lw	a4,-12(s0)
   15d7c:	00a6953b          	sllw	a0,a3,a0
   15d80:	00c756bb          	srlw	a3,a4,a2
   15d84:	00a6e533          	or	a0,a3,a0
   15d88:	f81ff06f          	j	15d08 <__b2d+0x88>
   15d8c:	00000693          	li	a3,0
   15d90:	02051063          	bnez	a0,15db0 <__b2d+0x130>
   15d94:	3ff00737          	lui	a4,0x3ff00
   15d98:	00e967b3          	or	a5,s2,a4
   15d9c:	02069693          	slli	a3,a3,0x20
   15da0:	0206d693          	srli	a3,a3,0x20
   15da4:	02079793          	slli	a5,a5,0x20
   15da8:	00d7e7b3          	or	a5,a5,a3
   15dac:	f75ff06f          	j	15d20 <__b2d+0xa0>
   15db0:	00a917bb          	sllw	a5,s2,a0
   15db4:	3ff00737          	lui	a4,0x3ff00
   15db8:	00e7e7b3          	or	a5,a5,a4
   15dbc:	02079793          	slli	a5,a5,0x20
   15dc0:	00000513          	li	a0,0
   15dc4:	f45ff06f          	j	15d08 <__b2d+0x88>
   15dc8:	00a6953b          	sllw	a0,a3,a0
   15dcc:	f3dff06f          	j	15d08 <__b2d+0x88>

0000000000015dd0 <__d2b>:
   15dd0:	fc010113          	addi	sp,sp,-64
   15dd4:	02813823          	sd	s0,48(sp)
   15dd8:	e2058453          	fmv.x.d	s0,fa1
   15ddc:	00100593          	li	a1,1
   15de0:	02913423          	sd	s1,40(sp)
   15de4:	03213023          	sd	s2,32(sp)
   15de8:	01313c23          	sd	s3,24(sp)
   15dec:	01413823          	sd	s4,16(sp)
   15df0:	00068993          	mv	s3,a3
   15df4:	02113c23          	sd	ra,56(sp)
   15df8:	00060a13          	mv	s4,a2
   15dfc:	a9cff0ef          	jal	15098 <_Balloc>
   15e00:	42045793          	srai	a5,s0,0x20
   15e04:	02179493          	slli	s1,a5,0x21
   15e08:	001006b7          	lui	a3,0x100
   15e0c:	fff6871b          	addiw	a4,a3,-1
   15e10:	0354d493          	srli	s1,s1,0x35
   15e14:	00050913          	mv	s2,a0
   15e18:	00e7f7b3          	and	a5,a5,a4
   15e1c:	00048463          	beqz	s1,15e24 <__d2b+0x54>
   15e20:	00d7e7b3          	or	a5,a5,a3
   15e24:	00f12623          	sw	a5,12(sp)
   15e28:	0004041b          	sext.w	s0,s0
   15e2c:	08040063          	beqz	s0,15eac <__d2b+0xdc>
   15e30:	00810513          	addi	a0,sp,8
   15e34:	00812423          	sw	s0,8(sp)
   15e38:	de8ff0ef          	jal	15420 <__lo0bits>
   15e3c:	00c12783          	lw	a5,12(sp)
   15e40:	0a051463          	bnez	a0,15ee8 <__d2b+0x118>
   15e44:	00812703          	lw	a4,8(sp)
   15e48:	00e92c23          	sw	a4,24(s2) # 3ff00018 <_gp+0x3fee4508>
   15e4c:	0017b413          	seqz	s0,a5
   15e50:	00200713          	li	a4,2
   15e54:	4087043b          	subw	s0,a4,s0
   15e58:	00f92e23          	sw	a5,28(s2)
   15e5c:	00892a23          	sw	s0,20(s2)
   15e60:	06049663          	bnez	s1,15ecc <__d2b+0xfc>
   15e64:	bce5051b          	addiw	a0,a0,-1074
   15e68:	00241793          	slli	a5,s0,0x2
   15e6c:	00aa2023          	sw	a0,0(s4)
   15e70:	00f907b3          	add	a5,s2,a5
   15e74:	0147a503          	lw	a0,20(a5)
   15e78:	0054141b          	slliw	s0,s0,0x5
   15e7c:	d28ff0ef          	jal	153a4 <__hi0bits>
   15e80:	40a4053b          	subw	a0,s0,a0
   15e84:	00a9a023          	sw	a0,0(s3)
   15e88:	03813083          	ld	ra,56(sp)
   15e8c:	00090513          	mv	a0,s2
   15e90:	03013403          	ld	s0,48(sp)
   15e94:	02813483          	ld	s1,40(sp)
   15e98:	02013903          	ld	s2,32(sp)
   15e9c:	01813983          	ld	s3,24(sp)
   15ea0:	01013a03          	ld	s4,16(sp)
   15ea4:	04010113          	addi	sp,sp,64
   15ea8:	00008067          	ret
   15eac:	00c10513          	addi	a0,sp,12
   15eb0:	d70ff0ef          	jal	15420 <__lo0bits>
   15eb4:	00c12783          	lw	a5,12(sp)
   15eb8:	00100413          	li	s0,1
   15ebc:	00892a23          	sw	s0,20(s2)
   15ec0:	00f92c23          	sw	a5,24(s2)
   15ec4:	0205051b          	addiw	a0,a0,32
   15ec8:	f8048ee3          	beqz	s1,15e64 <__d2b+0x94>
   15ecc:	bcd4849b          	addiw	s1,s1,-1075
   15ed0:	00a484bb          	addw	s1,s1,a0
   15ed4:	03500793          	li	a5,53
   15ed8:	009a2023          	sw	s1,0(s4)
   15edc:	40a7853b          	subw	a0,a5,a0
   15ee0:	00a9a023          	sw	a0,0(s3)
   15ee4:	fa5ff06f          	j	15e88 <__d2b+0xb8>
   15ee8:	02000713          	li	a4,32
   15eec:	00812683          	lw	a3,8(sp)
   15ef0:	40a7073b          	subw	a4,a4,a0
   15ef4:	00e7973b          	sllw	a4,a5,a4
   15ef8:	00d76733          	or	a4,a4,a3
   15efc:	00a7d7bb          	srlw	a5,a5,a0
   15f00:	00e92c23          	sw	a4,24(s2)
   15f04:	00f12623          	sw	a5,12(sp)
   15f08:	f45ff06f          	j	15e4c <__d2b+0x7c>

0000000000015f0c <__ratio>:
   15f0c:	fd010113          	addi	sp,sp,-48
   15f10:	00913c23          	sd	s1,24(sp)
   15f14:	00058493          	mv	s1,a1
   15f18:	00810593          	addi	a1,sp,8
   15f1c:	02113423          	sd	ra,40(sp)
   15f20:	02813023          	sd	s0,32(sp)
   15f24:	01213823          	sd	s2,16(sp)
   15f28:	00050913          	mv	s2,a0
   15f2c:	d55ff0ef          	jal	15c80 <__b2d>
   15f30:	00c10593          	addi	a1,sp,12
   15f34:	00048513          	mv	a0,s1
   15f38:	e2050453          	fmv.x.d	s0,fa0
   15f3c:	d45ff0ef          	jal	15c80 <__b2d>
   15f40:	01492703          	lw	a4,20(s2)
   15f44:	0144a783          	lw	a5,20(s1)
   15f48:	00c12603          	lw	a2,12(sp)
   15f4c:	e20506d3          	fmv.x.d	a3,fa0
   15f50:	40f707bb          	subw	a5,a4,a5
   15f54:	0057971b          	slliw	a4,a5,0x5
   15f58:	00812783          	lw	a5,8(sp)
   15f5c:	40c787bb          	subw	a5,a5,a2
   15f60:	00f707bb          	addw	a5,a4,a5
   15f64:	04f05463          	blez	a5,15fac <__ratio+0xa0>
   15f68:	00040713          	mv	a4,s0
   15f6c:	0147979b          	slliw	a5,a5,0x14
   15f70:	42045413          	srai	s0,s0,0x20
   15f74:	00f407bb          	addw	a5,s0,a5
   15f78:	02071413          	slli	s0,a4,0x20
   15f7c:	02079793          	slli	a5,a5,0x20
   15f80:	02045413          	srli	s0,s0,0x20
   15f84:	00f46433          	or	s0,s0,a5
   15f88:	f20407d3          	fmv.d.x	fa5,s0
   15f8c:	f2068753          	fmv.d.x	fa4,a3
   15f90:	02813083          	ld	ra,40(sp)
   15f94:	02013403          	ld	s0,32(sp)
   15f98:	1ae7f553          	fdiv.d	fa0,fa5,fa4
   15f9c:	01813483          	ld	s1,24(sp)
   15fa0:	01013903          	ld	s2,16(sp)
   15fa4:	03010113          	addi	sp,sp,48
   15fa8:	00008067          	ret
   15fac:	00068613          	mv	a2,a3
   15fb0:	0147979b          	slliw	a5,a5,0x14
   15fb4:	4206d693          	srai	a3,a3,0x20
   15fb8:	40f687bb          	subw	a5,a3,a5
   15fbc:	02061693          	slli	a3,a2,0x20
   15fc0:	02079793          	slli	a5,a5,0x20
   15fc4:	0206d693          	srli	a3,a3,0x20
   15fc8:	00f6e6b3          	or	a3,a3,a5
   15fcc:	fbdff06f          	j	15f88 <__ratio+0x7c>

0000000000015fd0 <_mprec_log10>:
   15fd0:	01700793          	li	a5,23
   15fd4:	02a7d263          	ble	a0,a5,15ff8 <_mprec_log10+0x28>
   15fd8:	0001b7b7          	lui	a5,0x1b
   15fdc:	3687b507          	fld	fa0,872(a5) # 1b368 <__wctomb+0x28>
   15fe0:	0001b7b7          	lui	a5,0x1b
   15fe4:	3707b787          	fld	fa5,880(a5) # 1b370 <__wctomb+0x30>
   15fe8:	fff5051b          	addiw	a0,a0,-1
   15fec:	12f57553          	fmul.d	fa0,fa0,fa5
   15ff0:	fe051ce3          	bnez	a0,15fe8 <_mprec_log10+0x18>
   15ff4:	00008067          	ret
   15ff8:	000197b7          	lui	a5,0x19
   15ffc:	f7078793          	addi	a5,a5,-144 # 18f70 <p05.2568>
   16000:	00351513          	slli	a0,a0,0x3
   16004:	00a78533          	add	a0,a5,a0
   16008:	01053507          	fld	fa0,16(a0)
   1600c:	00008067          	ret

0000000000016010 <__copybits>:
   16010:	01462703          	lw	a4,20(a2)
   16014:	fff5859b          	addiw	a1,a1,-1
   16018:	4055d81b          	sraiw	a6,a1,0x5
   1601c:	00180813          	addi	a6,a6,1
   16020:	01860793          	addi	a5,a2,24
   16024:	00271713          	slli	a4,a4,0x2
   16028:	00281813          	slli	a6,a6,0x2
   1602c:	00e786b3          	add	a3,a5,a4
   16030:	01050833          	add	a6,a0,a6
   16034:	02d7f863          	bleu	a3,a5,16064 <__copybits+0x54>
   16038:	00050713          	mv	a4,a0
   1603c:	00478793          	addi	a5,a5,4
   16040:	ffc7a583          	lw	a1,-4(a5)
   16044:	00470713          	addi	a4,a4,4 # 3ff00004 <_gp+0x3fee44f4>
   16048:	feb72e23          	sw	a1,-4(a4)
   1604c:	fed7e8e3          	bltu	a5,a3,1603c <__copybits+0x2c>
   16050:	40c687b3          	sub	a5,a3,a2
   16054:	fe778793          	addi	a5,a5,-25
   16058:	ffc7f793          	andi	a5,a5,-4
   1605c:	00478793          	addi	a5,a5,4
   16060:	00f50533          	add	a0,a0,a5
   16064:	01057863          	bleu	a6,a0,16074 <__copybits+0x64>
   16068:	00450513          	addi	a0,a0,4
   1606c:	fe052e23          	sw	zero,-4(a0)
   16070:	ff056ce3          	bltu	a0,a6,16068 <__copybits+0x58>
   16074:	00008067          	ret

0000000000016078 <__any_on>:
   16078:	01452783          	lw	a5,20(a0)
   1607c:	4055d71b          	sraiw	a4,a1,0x5
   16080:	01850693          	addi	a3,a0,24
   16084:	04e7c463          	blt	a5,a4,160cc <__any_on+0x54>
   16088:	04f75063          	ble	a5,a4,160c8 <__any_on+0x50>
   1608c:	00070793          	mv	a5,a4
   16090:	00279793          	slli	a5,a5,0x2
   16094:	01f5f593          	andi	a1,a1,31
   16098:	00f687b3          	add	a5,a3,a5
   1609c:	04059063          	bnez	a1,160dc <__any_on+0x64>
   160a0:	04f6fa63          	bleu	a5,a3,160f4 <__any_on+0x7c>
   160a4:	ffc7a503          	lw	a0,-4(a5)
   160a8:	ffc78793          	addi	a5,a5,-4
   160ac:	00051a63          	bnez	a0,160c0 <__any_on+0x48>
   160b0:	02f6f463          	bleu	a5,a3,160d8 <__any_on+0x60>
   160b4:	ffc78793          	addi	a5,a5,-4
   160b8:	0007a703          	lw	a4,0(a5)
   160bc:	fe070ae3          	beqz	a4,160b0 <__any_on+0x38>
   160c0:	00100513          	li	a0,1
   160c4:	00008067          	ret
   160c8:	00070793          	mv	a5,a4
   160cc:	00279793          	slli	a5,a5,0x2
   160d0:	00f687b3          	add	a5,a3,a5
   160d4:	fcdff06f          	j	160a0 <__any_on+0x28>
   160d8:	00008067          	ret
   160dc:	0007a603          	lw	a2,0(a5)
   160e0:	00100513          	li	a0,1
   160e4:	00b6573b          	srlw	a4,a2,a1
   160e8:	00b715bb          	sllw	a1,a4,a1
   160ec:	fab60ae3          	beq	a2,a1,160a0 <__any_on+0x28>
   160f0:	00008067          	ret
   160f4:	00000513          	li	a0,0
   160f8:	00008067          	ret

00000000000160fc <__fpclassifyd>:
   160fc:	e20507d3          	fmv.x.d	a5,fa0
   16100:	00200513          	li	a0,2
   16104:	4207d713          	srai	a4,a5,0x20
   16108:	0007879b          	sext.w	a5,a5
   1610c:	00f766b3          	or	a3,a4,a5
   16110:	00069463          	bnez	a3,16118 <__fpclassifyd+0x1c>
   16114:	00008067          	ret
   16118:	800006b7          	lui	a3,0x80000
   1611c:	04d70863          	beq	a4,a3,1616c <__fpclassifyd+0x70>
   16120:	fff006b7          	lui	a3,0xfff00
   16124:	00d706bb          	addw	a3,a4,a3
   16128:	7fe00637          	lui	a2,0x7fe00
   1612c:	00400513          	li	a0,4
   16130:	fec6e2e3          	bltu	a3,a2,16114 <__fpclassifyd+0x18>
   16134:	7ff006b7          	lui	a3,0x7ff00
   16138:	00d706bb          	addw	a3,a4,a3
   1613c:	fcc6ece3          	bltu	a3,a2,16114 <__fpclassifyd+0x18>
   16140:	800006b7          	lui	a3,0x80000
   16144:	fff6c693          	not	a3,a3
   16148:	00d77733          	and	a4,a4,a3
   1614c:	001006b7          	lui	a3,0x100
   16150:	00300513          	li	a0,3
   16154:	fcd760e3          	bltu	a4,a3,16114 <__fpclassifyd+0x18>
   16158:	7ff006b7          	lui	a3,0x7ff00
   1615c:	00000513          	li	a0,0
   16160:	fad71ae3          	bne	a4,a3,16114 <__fpclassifyd+0x18>
   16164:	0017b513          	seqz	a0,a5
   16168:	00008067          	ret
   1616c:	fc079ae3          	bnez	a5,16140 <__fpclassifyd+0x44>
   16170:	00008067          	ret

0000000000016174 <__sread>:
   16174:	01259503          	lh	a0,18(a1)
   16178:	ff010113          	addi	sp,sp,-16
   1617c:	00813023          	sd	s0,0(sp)
   16180:	00058413          	mv	s0,a1
   16184:	00060593          	mv	a1,a2
   16188:	00068613          	mv	a2,a3
   1618c:	00113423          	sd	ra,8(sp)
   16190:	0cd020ef          	jal	18a5c <read>
   16194:	02054063          	bltz	a0,161b4 <__sread+0x40>
   16198:	09043783          	ld	a5,144(s0)
   1619c:	00813083          	ld	ra,8(sp)
   161a0:	00a787b3          	add	a5,a5,a0
   161a4:	08f43823          	sd	a5,144(s0)
   161a8:	00013403          	ld	s0,0(sp)
   161ac:	01010113          	addi	sp,sp,16
   161b0:	00008067          	ret
   161b4:	01045703          	lhu	a4,16(s0)
   161b8:	fffff7b7          	lui	a5,0xfffff
   161bc:	00813083          	ld	ra,8(sp)
   161c0:	fff7879b          	addiw	a5,a5,-1
   161c4:	00f777b3          	and	a5,a4,a5
   161c8:	00f41823          	sh	a5,16(s0)
   161cc:	00013403          	ld	s0,0(sp)
   161d0:	01010113          	addi	sp,sp,16
   161d4:	00008067          	ret

00000000000161d8 <__seofread>:
   161d8:	00000513          	li	a0,0
   161dc:	00008067          	ret

00000000000161e0 <__swrite>:
   161e0:	01059703          	lh	a4,16(a1)
   161e4:	fd010113          	addi	sp,sp,-48
   161e8:	02813023          	sd	s0,32(sp)
   161ec:	00913c23          	sd	s1,24(sp)
   161f0:	02113423          	sd	ra,40(sp)
   161f4:	10077793          	andi	a5,a4,256
   161f8:	00058413          	mv	s0,a1
   161fc:	00060493          	mv	s1,a2
   16200:	02078063          	beqz	a5,16220 <__swrite+0x40>
   16204:	01259503          	lh	a0,18(a1)
   16208:	00200613          	li	a2,2
   1620c:	00000593          	li	a1,0
   16210:	00d13423          	sd	a3,8(sp)
   16214:	035020ef          	jal	18a48 <lseek>
   16218:	01041703          	lh	a4,16(s0)
   1621c:	00813683          	ld	a3,8(sp)
   16220:	fffff7b7          	lui	a5,0xfffff
   16224:	fff7879b          	addiw	a5,a5,-1
   16228:	00f777b3          	and	a5,a4,a5
   1622c:	01241503          	lh	a0,18(s0)
   16230:	00f41823          	sh	a5,16(s0)
   16234:	00048593          	mv	a1,s1
   16238:	02813083          	ld	ra,40(sp)
   1623c:	02013403          	ld	s0,32(sp)
   16240:	01813483          	ld	s1,24(sp)
   16244:	00068613          	mv	a2,a3
   16248:	03010113          	addi	sp,sp,48
   1624c:	0250206f          	j	18a70 <write>

0000000000016250 <__sseek>:
   16250:	01259503          	lh	a0,18(a1)
   16254:	ff010113          	addi	sp,sp,-16
   16258:	00813023          	sd	s0,0(sp)
   1625c:	00058413          	mv	s0,a1
   16260:	00060593          	mv	a1,a2
   16264:	00068613          	mv	a2,a3
   16268:	00113423          	sd	ra,8(sp)
   1626c:	7dc020ef          	jal	18a48 <lseek>
   16270:	fff00793          	li	a5,-1
   16274:	01045703          	lhu	a4,16(s0)
   16278:	02f50263          	beq	a0,a5,1629c <__sseek+0x4c>
   1627c:	00813083          	ld	ra,8(sp)
   16280:	000017b7          	lui	a5,0x1
   16284:	00f767b3          	or	a5,a4,a5
   16288:	08a43823          	sd	a0,144(s0)
   1628c:	00f41823          	sh	a5,16(s0)
   16290:	00013403          	ld	s0,0(sp)
   16294:	01010113          	addi	sp,sp,16
   16298:	00008067          	ret
   1629c:	fffff7b7          	lui	a5,0xfffff
   162a0:	00813083          	ld	ra,8(sp)
   162a4:	fff7879b          	addiw	a5,a5,-1
   162a8:	00f777b3          	and	a5,a4,a5
   162ac:	00f41823          	sh	a5,16(s0)
   162b0:	00013403          	ld	s0,0(sp)
   162b4:	01010113          	addi	sp,sp,16
   162b8:	00008067          	ret

00000000000162bc <__sclose>:
   162bc:	01259503          	lh	a0,18(a1)
   162c0:	05d0206f          	j	18b1c <close>

00000000000162c4 <strcmp>:
   162c4:	00b56733          	or	a4,a0,a1
   162c8:	fff00393          	li	t2,-1
   162cc:	00777713          	andi	a4,a4,7
   162d0:	0c071c63          	bnez	a4,163a8 <strcmp+0xe4>
   162d4:	00005e17          	auipc	t3,0x5
   162d8:	0cce3e03          	ld	t3,204(t3) # 1b3a0 <mask>
   162dc:	00053603          	ld	a2,0(a0)
   162e0:	0005b683          	ld	a3,0(a1)
   162e4:	01c672b3          	and	t0,a2,t3
   162e8:	01c66333          	or	t1,a2,t3
   162ec:	01c282b3          	add	t0,t0,t3
   162f0:	0062e2b3          	or	t0,t0,t1
   162f4:	0c729e63          	bne	t0,t2,163d0 <strcmp+0x10c>
   162f8:	04d61663          	bne	a2,a3,16344 <strcmp+0x80>
   162fc:	00853603          	ld	a2,8(a0)
   16300:	0085b683          	ld	a3,8(a1)
   16304:	01c672b3          	and	t0,a2,t3
   16308:	01c66333          	or	t1,a2,t3
   1630c:	01c282b3          	add	t0,t0,t3
   16310:	0062e2b3          	or	t0,t0,t1
   16314:	0a729a63          	bne	t0,t2,163c8 <strcmp+0x104>
   16318:	02d61663          	bne	a2,a3,16344 <strcmp+0x80>
   1631c:	01053603          	ld	a2,16(a0)
   16320:	0105b683          	ld	a3,16(a1)
   16324:	01c672b3          	and	t0,a2,t3
   16328:	01c66333          	or	t1,a2,t3
   1632c:	01c282b3          	add	t0,t0,t3
   16330:	0062e2b3          	or	t0,t0,t1
   16334:	0a729463          	bne	t0,t2,163dc <strcmp+0x118>
   16338:	01850513          	addi	a0,a0,24
   1633c:	01858593          	addi	a1,a1,24
   16340:	f8d60ee3          	beq	a2,a3,162dc <strcmp+0x18>
   16344:	03061713          	slli	a4,a2,0x30
   16348:	03069793          	slli	a5,a3,0x30
   1634c:	02f71a63          	bne	a4,a5,16380 <strcmp+0xbc>
   16350:	02061713          	slli	a4,a2,0x20
   16354:	02069793          	slli	a5,a3,0x20
   16358:	02f71463          	bne	a4,a5,16380 <strcmp+0xbc>
   1635c:	01061713          	slli	a4,a2,0x10
   16360:	01069793          	slli	a5,a3,0x10
   16364:	00f71e63          	bne	a4,a5,16380 <strcmp+0xbc>
   16368:	03065713          	srli	a4,a2,0x30
   1636c:	0306d793          	srli	a5,a3,0x30
   16370:	40f70533          	sub	a0,a4,a5
   16374:	0ff57593          	andi	a1,a0,255
   16378:	02059063          	bnez	a1,16398 <strcmp+0xd4>
   1637c:	00008067          	ret
   16380:	03075713          	srli	a4,a4,0x30
   16384:	0307d793          	srli	a5,a5,0x30
   16388:	40f70533          	sub	a0,a4,a5
   1638c:	0ff57593          	andi	a1,a0,255
   16390:	00059463          	bnez	a1,16398 <strcmp+0xd4>
   16394:	00008067          	ret
   16398:	0ff77713          	andi	a4,a4,255
   1639c:	0ff7f793          	andi	a5,a5,255
   163a0:	40f70533          	sub	a0,a4,a5
   163a4:	00008067          	ret
   163a8:	00054603          	lbu	a2,0(a0)
   163ac:	0005c683          	lbu	a3,0(a1)
   163b0:	00150513          	addi	a0,a0,1
   163b4:	00158593          	addi	a1,a1,1
   163b8:	00d61463          	bne	a2,a3,163c0 <strcmp+0xfc>
   163bc:	fe0616e3          	bnez	a2,163a8 <strcmp+0xe4>
   163c0:	40d60533          	sub	a0,a2,a3
   163c4:	00008067          	ret
   163c8:	00850513          	addi	a0,a0,8
   163cc:	00858593          	addi	a1,a1,8
   163d0:	fcd61ce3          	bne	a2,a3,163a8 <strcmp+0xe4>
   163d4:	00000513          	li	a0,0
   163d8:	00008067          	ret
   163dc:	01050513          	addi	a0,a0,16
   163e0:	01058593          	addi	a1,a1,16
   163e4:	fcd612e3          	bne	a2,a3,163a8 <strcmp+0xe4>
   163e8:	00000513          	li	a0,0
   163ec:	00008067          	ret

00000000000163f0 <strlen>:
   163f0:	00757793          	andi	a5,a0,7
   163f4:	00050593          	mv	a1,a0
   163f8:	06079a63          	bnez	a5,1646c <strlen+0x7c>
   163fc:	0001b7b7          	lui	a5,0x1b
   16400:	3a07b683          	ld	a3,928(a5) # 1b3a0 <mask>
   16404:	fff00613          	li	a2,-1
   16408:	00850513          	addi	a0,a0,8
   1640c:	ff853783          	ld	a5,-8(a0)
   16410:	00d7f733          	and	a4,a5,a3
   16414:	00d70733          	add	a4,a4,a3
   16418:	00d7e7b3          	or	a5,a5,a3
   1641c:	00f767b3          	or	a5,a4,a5
   16420:	fec784e3          	beq	a5,a2,16408 <strlen+0x18>
   16424:	ff854783          	lbu	a5,-8(a0)
   16428:	40b505b3          	sub	a1,a0,a1
   1642c:	06078263          	beqz	a5,16490 <strlen+0xa0>
   16430:	ff954783          	lbu	a5,-7(a0)
   16434:	04078a63          	beqz	a5,16488 <strlen+0x98>
   16438:	ffa54783          	lbu	a5,-6(a0)
   1643c:	06078263          	beqz	a5,164a0 <strlen+0xb0>
   16440:	ffb54783          	lbu	a5,-5(a0)
   16444:	04078a63          	beqz	a5,16498 <strlen+0xa8>
   16448:	ffc54783          	lbu	a5,-4(a0)
   1644c:	ffd54703          	lbu	a4,-3(a0)
   16450:	ffe54683          	lbu	a3,-2(a0)
   16454:	04078a63          	beqz	a5,164a8 <strlen+0xb8>
   16458:	04070c63          	beqz	a4,164b0 <strlen+0xc0>
   1645c:	fff58513          	addi	a0,a1,-1
   16460:	04068c63          	beqz	a3,164b8 <strlen+0xc8>
   16464:	00008067          	ret
   16468:	f8070ae3          	beqz	a4,163fc <strlen+0xc>
   1646c:	00054783          	lbu	a5,0(a0)
   16470:	00150513          	addi	a0,a0,1
   16474:	00757713          	andi	a4,a0,7
   16478:	fe0798e3          	bnez	a5,16468 <strlen+0x78>
   1647c:	40b50533          	sub	a0,a0,a1
   16480:	fff50513          	addi	a0,a0,-1
   16484:	00008067          	ret
   16488:	ff958513          	addi	a0,a1,-7
   1648c:	00008067          	ret
   16490:	ff858513          	addi	a0,a1,-8
   16494:	00008067          	ret
   16498:	ffb58513          	addi	a0,a1,-5
   1649c:	00008067          	ret
   164a0:	ffa58513          	addi	a0,a1,-6
   164a4:	00008067          	ret
   164a8:	ffc58513          	addi	a0,a1,-4
   164ac:	00008067          	ret
   164b0:	ffd58513          	addi	a0,a1,-3
   164b4:	00008067          	ret
   164b8:	ffe58513          	addi	a0,a1,-2
   164bc:	00008067          	ret

00000000000164c0 <__sprint_r.part.0>:
   164c0:	0ac5a783          	lw	a5,172(a1)
   164c4:	fb010113          	addi	sp,sp,-80
   164c8:	01613823          	sd	s6,16(sp)
   164cc:	04113423          	sd	ra,72(sp)
   164d0:	04813023          	sd	s0,64(sp)
   164d4:	02913c23          	sd	s1,56(sp)
   164d8:	03213823          	sd	s2,48(sp)
   164dc:	03313423          	sd	s3,40(sp)
   164e0:	03413023          	sd	s4,32(sp)
   164e4:	01513c23          	sd	s5,24(sp)
   164e8:	01713423          	sd	s7,8(sp)
   164ec:	03279713          	slli	a4,a5,0x32
   164f0:	00060b13          	mv	s6,a2
   164f4:	0a075863          	bgez	a4,165a4 <__sprint_r.part.0+0xe4>
   164f8:	01063783          	ld	a5,16(a2) # 7fe00010 <_gp+0x7fde4500>
   164fc:	00058a13          	mv	s4,a1
   16500:	00050a93          	mv	s5,a0
   16504:	00063b83          	ld	s7,0(a2)
   16508:	fff00993          	li	s3,-1
   1650c:	08078863          	beqz	a5,1659c <__sprint_r.part.0+0xdc>
   16510:	008bb903          	ld	s2,8(s7)
   16514:	000bb483          	ld	s1,0(s7)
   16518:	00000413          	li	s0,0
   1651c:	00295913          	srli	s2,s2,0x2
   16520:	0009091b          	sext.w	s2,s2
   16524:	01204863          	bgtz	s2,16534 <__sprint_r.part.0+0x74>
   16528:	0600006f          	j	16588 <__sprint_r.part.0+0xc8>
   1652c:	00448493          	addi	s1,s1,4
   16530:	04890a63          	beq	s2,s0,16584 <__sprint_r.part.0+0xc4>
   16534:	0004a583          	lw	a1,0(s1)
   16538:	000a0613          	mv	a2,s4
   1653c:	000a8513          	mv	a0,s5
   16540:	524010ef          	jal	17a64 <_fputwc_r>
   16544:	0014041b          	addiw	s0,s0,1
   16548:	ff3512e3          	bne	a0,s3,1652c <__sprint_r.part.0+0x6c>
   1654c:	00098513          	mv	a0,s3
   16550:	04813083          	ld	ra,72(sp)
   16554:	000b3823          	sd	zero,16(s6)
   16558:	000b2423          	sw	zero,8(s6)
   1655c:	04013403          	ld	s0,64(sp)
   16560:	03813483          	ld	s1,56(sp)
   16564:	03013903          	ld	s2,48(sp)
   16568:	02813983          	ld	s3,40(sp)
   1656c:	02013a03          	ld	s4,32(sp)
   16570:	01813a83          	ld	s5,24(sp)
   16574:	01013b03          	ld	s6,16(sp)
   16578:	00813b83          	ld	s7,8(sp)
   1657c:	05010113          	addi	sp,sp,80
   16580:	00008067          	ret
   16584:	010b3783          	ld	a5,16(s6)
   16588:	00291913          	slli	s2,s2,0x2
   1658c:	412787b3          	sub	a5,a5,s2
   16590:	00fb3823          	sd	a5,16(s6)
   16594:	010b8b93          	addi	s7,s7,16
   16598:	f6079ce3          	bnez	a5,16510 <__sprint_r.part.0+0x50>
   1659c:	00000513          	li	a0,0
   165a0:	fb1ff06f          	j	16550 <__sprint_r.part.0+0x90>
   165a4:	564010ef          	jal	17b08 <__sfvwrite_r>
   165a8:	fa9ff06f          	j	16550 <__sprint_r.part.0+0x90>

00000000000165ac <__sprint_r>:
   165ac:	01063703          	ld	a4,16(a2)
   165b0:	00070463          	beqz	a4,165b8 <__sprint_r+0xc>
   165b4:	f0dff06f          	j	164c0 <__sprint_r.part.0>
   165b8:	00062423          	sw	zero,8(a2)
   165bc:	00000513          	li	a0,0
   165c0:	00008067          	ret

00000000000165c4 <_vfiprintf_r>:
   165c4:	e6010113          	addi	sp,sp,-416
   165c8:	17513423          	sd	s5,360(sp)
   165cc:	17613023          	sd	s6,352(sp)
   165d0:	15a13023          	sd	s10,320(sp)
   165d4:	18113c23          	sd	ra,408(sp)
   165d8:	18813823          	sd	s0,400(sp)
   165dc:	18913423          	sd	s1,392(sp)
   165e0:	19213023          	sd	s2,384(sp)
   165e4:	17313c23          	sd	s3,376(sp)
   165e8:	17413823          	sd	s4,368(sp)
   165ec:	15713c23          	sd	s7,344(sp)
   165f0:	15813823          	sd	s8,336(sp)
   165f4:	15913423          	sd	s9,328(sp)
   165f8:	13b13c23          	sd	s11,312(sp)
   165fc:	00d13423          	sd	a3,8(sp)
   16600:	00050a93          	mv	s5,a0
   16604:	00058d13          	mv	s10,a1
   16608:	00060b13          	mv	s6,a2
   1660c:	00050663          	beqz	a0,16618 <_vfiprintf_r+0x54>
   16610:	05052783          	lw	a5,80(a0)
   16614:	1e078c63          	beqz	a5,1680c <_vfiprintf_r+0x248>
   16618:	010d1683          	lh	a3,16(s10)
   1661c:	03069793          	slli	a5,a3,0x30
   16620:	0307d793          	srli	a5,a5,0x30
   16624:	03279713          	slli	a4,a5,0x32
   16628:	02074a63          	bltz	a4,1665c <_vfiprintf_r+0x98>
   1662c:	000027b7          	lui	a5,0x2
   16630:	0acd2603          	lw	a2,172(s10)
   16634:	00f6e7b3          	or	a5,a3,a5
   16638:	0107979b          	slliw	a5,a5,0x10
   1663c:	ffffe737          	lui	a4,0xffffe
   16640:	4107d79b          	sraiw	a5,a5,0x10
   16644:	fff7071b          	addiw	a4,a4,-1
   16648:	00e67733          	and	a4,a2,a4
   1664c:	00fd1823          	sh	a5,16(s10)
   16650:	03079793          	slli	a5,a5,0x30
   16654:	0aed2623          	sw	a4,172(s10)
   16658:	0307d793          	srli	a5,a5,0x30
   1665c:	0087f713          	andi	a4,a5,8
   16660:	12070a63          	beqz	a4,16794 <_vfiprintf_r+0x1d0>
   16664:	018d3703          	ld	a4,24(s10)
   16668:	12070663          	beqz	a4,16794 <_vfiprintf_r+0x1d0>
   1666c:	01a7f793          	andi	a5,a5,26
   16670:	00a00713          	li	a4,10
   16674:	14e78063          	beq	a5,a4,167b4 <_vfiprintf_r+0x1f0>
   16678:	0b010c93          	addi	s9,sp,176
   1667c:	00019c37          	lui	s8,0x19
   16680:	0af10793          	addi	a5,sp,175
   16684:	098c0713          	addi	a4,s8,152 # 19098 <__mprec_bigtens+0x28>
   16688:	40fc87b3          	sub	a5,s9,a5
   1668c:	000198b7          	lui	a7,0x19
   16690:	07913823          	sd	s9,112(sp)
   16694:	08013023          	sd	zero,128(sp)
   16698:	06012c23          	sw	zero,120(sp)
   1669c:	000c8413          	mv	s0,s9
   166a0:	00013c23          	sd	zero,24(sp)
   166a4:	04012c23          	sw	zero,88(sp)
   166a8:	00e13823          	sd	a4,16(sp)
   166ac:	20088c13          	addi	s8,a7,512 # 19200 <blanks.4136>
   166b0:	04f12e23          	sw	a5,92(sp)
   166b4:	000b4783          	lbu	a5,0(s6)
   166b8:	4e078ee3          	beqz	a5,173b4 <_vfiprintf_r+0xdf0>
   166bc:	02500713          	li	a4,37
   166c0:	000b0493          	mv	s1,s6
   166c4:	00e79663          	bne	a5,a4,166d0 <_vfiprintf_r+0x10c>
   166c8:	0580006f          	j	16720 <_vfiprintf_r+0x15c>
   166cc:	00e78863          	beq	a5,a4,166dc <_vfiprintf_r+0x118>
   166d0:	00148493          	addi	s1,s1,1
   166d4:	0004c783          	lbu	a5,0(s1)
   166d8:	fe079ae3          	bnez	a5,166cc <_vfiprintf_r+0x108>
   166dc:	4164893b          	subw	s2,s1,s6
   166e0:	04090063          	beqz	s2,16720 <_vfiprintf_r+0x15c>
   166e4:	08013703          	ld	a4,128(sp)
   166e8:	07812783          	lw	a5,120(sp)
   166ec:	00090613          	mv	a2,s2
   166f0:	00e60733          	add	a4,a2,a4
   166f4:	0017879b          	addiw	a5,a5,1
   166f8:	00c43423          	sd	a2,8(s0)
   166fc:	01643023          	sd	s6,0(s0)
   16700:	08e13023          	sd	a4,128(sp)
   16704:	06f12c23          	sw	a5,120(sp)
   16708:	00700613          	li	a2,7
   1670c:	01040413          	addi	s0,s0,16
   16710:	06f64463          	blt	a2,a5,16778 <_vfiprintf_r+0x1b4>
   16714:	05812783          	lw	a5,88(sp)
   16718:	012787bb          	addw	a5,a5,s2
   1671c:	04f12c23          	sw	a5,88(sp)
   16720:	0004c783          	lbu	a5,0(s1)
   16724:	580786e3          	beqz	a5,174b0 <_vfiprintf_r+0xeec>
   16728:	00148813          	addi	a6,s1,1
   1672c:	060103a3          	sb	zero,103(sp)
   16730:	00000513          	li	a0,0
   16734:	00000e93          	li	t4,0
   16738:	fff00493          	li	s1,-1
   1673c:	00000913          	li	s2,0
   16740:	00000313          	li	t1,0
   16744:	05800613          	li	a2,88
   16748:	00900593          	li	a1,9
   1674c:	02a00f13          	li	t5,42
   16750:	00084703          	lbu	a4,0(a6)
   16754:	00180b13          	addi	s6,a6,1
   16758:	fe07079b          	addiw	a5,a4,-32
   1675c:	66f66263          	bltu	a2,a5,16dc0 <_vfiprintf_r+0x7fc>
   16760:	01013683          	ld	a3,16(sp)
   16764:	02079793          	slli	a5,a5,0x20
   16768:	01e7d793          	srli	a5,a5,0x1e
   1676c:	00d787b3          	add	a5,a5,a3
   16770:	0007a783          	lw	a5,0(a5) # 2000 <_ftext-0xe000>
   16774:	00078067          	jr	a5
   16778:	2e071ee3          	bnez	a4,17274 <_vfiprintf_r+0xcb0>
   1677c:	06012c23          	sw	zero,120(sp)
   16780:	000c8413          	mv	s0,s9
   16784:	f91ff06f          	j	16714 <_vfiprintf_r+0x150>
   16788:	01036313          	ori	t1,t1,16
   1678c:	000b0813          	mv	a6,s6
   16790:	fc1ff06f          	j	16750 <_vfiprintf_r+0x18c>
   16794:	000d0593          	mv	a1,s10
   16798:	000a8513          	mv	a0,s5
   1679c:	949fb0ef          	jal	120e4 <__swsetup_r>
   167a0:	4e0512e3          	bnez	a0,17484 <_vfiprintf_r+0xec0>
   167a4:	010d5783          	lhu	a5,16(s10)
   167a8:	00a00713          	li	a4,10
   167ac:	01a7f793          	andi	a5,a5,26
   167b0:	ece794e3          	bne	a5,a4,16678 <_vfiprintf_r+0xb4>
   167b4:	012d1783          	lh	a5,18(s10)
   167b8:	ec07c0e3          	bltz	a5,16678 <_vfiprintf_r+0xb4>
   167bc:	00813683          	ld	a3,8(sp)
   167c0:	000b0613          	mv	a2,s6
   167c4:	000d0593          	mv	a1,s10
   167c8:	000a8513          	mv	a0,s5
   167cc:	6a9000ef          	jal	17674 <__sbprintf>
   167d0:	19813083          	ld	ra,408(sp)
   167d4:	19013403          	ld	s0,400(sp)
   167d8:	18813483          	ld	s1,392(sp)
   167dc:	18013903          	ld	s2,384(sp)
   167e0:	17813983          	ld	s3,376(sp)
   167e4:	17013a03          	ld	s4,368(sp)
   167e8:	16813a83          	ld	s5,360(sp)
   167ec:	16013b03          	ld	s6,352(sp)
   167f0:	15813b83          	ld	s7,344(sp)
   167f4:	15013c03          	ld	s8,336(sp)
   167f8:	14813c83          	ld	s9,328(sp)
   167fc:	14013d03          	ld	s10,320(sp)
   16800:	13813d83          	ld	s11,312(sp)
   16804:	1a010113          	addi	sp,sp,416
   16808:	00008067          	ret
   1680c:	de4fd0ef          	jal	13df0 <__sinit>
   16810:	e09ff06f          	j	16618 <_vfiprintf_r+0x54>
   16814:	00813783          	ld	a5,8(sp)
   16818:	0007a903          	lw	s2,0(a5)
   1681c:	00878793          	addi	a5,a5,8
   16820:	00f13423          	sd	a5,8(sp)
   16824:	f60954e3          	bgez	s2,1678c <_vfiprintf_r+0x1c8>
   16828:	4120093b          	negw	s2,s2
   1682c:	00436313          	ori	t1,t1,4
   16830:	000b0813          	mv	a6,s6
   16834:	f1dff06f          	j	16750 <_vfiprintf_r+0x18c>
   16838:	03000793          	li	a5,48
   1683c:	06f10423          	sb	a5,104(sp)
   16840:	07800793          	li	a5,120
   16844:	06f104a3          	sb	a5,105(sp)
   16848:	00813783          	ld	a5,8(sp)
   1684c:	060103a3          	sb	zero,103(sp)
   16850:	00236613          	ori	a2,t1,2
   16854:	00878713          	addi	a4,a5,8
   16858:	0007b783          	ld	a5,0(a5)
   1685c:	2e04cce3          	bltz	s1,17354 <_vfiprintf_r+0xd90>
   16860:	f7f37313          	andi	t1,t1,-129
   16864:	00e13423          	sd	a4,8(sp)
   16868:	00236313          	ori	t1,t1,2
   1686c:	32079ae3          	bnez	a5,173a0 <_vfiprintf_r+0xddc>
   16870:	000197b7          	lui	a5,0x19
   16874:	26078793          	addi	a5,a5,608 # 19260 <zeroes.4137+0x50>
   16878:	00f13c23          	sd	a5,24(sp)
   1687c:	00000593          	li	a1,0
   16880:	200498e3          	bnez	s1,17290 <_vfiprintf_r+0xccc>
   16884:	00000493          	li	s1,0
   16888:	00000a13          	li	s4,0
   1688c:	000c8b93          	mv	s7,s9
   16890:	00048993          	mv	s3,s1
   16894:	0144d463          	ble	s4,s1,1689c <_vfiprintf_r+0x2d8>
   16898:	000a0993          	mv	s3,s4
   1689c:	00b035b3          	snez	a1,a1
   168a0:	00b989bb          	addw	s3,s3,a1
   168a4:	00237393          	andi	t2,t1,2
   168a8:	00038463          	beqz	t2,168b0 <_vfiprintf_r+0x2ec>
   168ac:	0029899b          	addiw	s3,s3,2
   168b0:	08437293          	andi	t0,t1,132
   168b4:	58029463          	bnez	t0,16e3c <_vfiprintf_r+0x878>
   168b8:	41390dbb          	subw	s11,s2,s3
   168bc:	59b05063          	blez	s11,16e3c <_vfiprintf_r+0x878>
   168c0:	01000793          	li	a5,16
   168c4:	45b7dee3          	ble	s11,a5,17520 <_vfiprintf_r+0xf5c>
   168c8:	01000e93          	li	t4,16
   168cc:	08013783          	ld	a5,128(sp)
   168d0:	07812503          	lw	a0,120(sp)
   168d4:	05813823          	sd	s8,80(sp)
   168d8:	00700f13          	li	t5,7
   168dc:	000e8f93          	mv	t6,t4
   168e0:	0180006f          	j	168f8 <_vfiprintf_r+0x334>
   168e4:	0025061b          	addiw	a2,a0,2
   168e8:	01040413          	addi	s0,s0,16
   168ec:	00058513          	mv	a0,a1
   168f0:	ff0d8d9b          	addiw	s11,s11,-16
   168f4:	03bfdc63          	ble	s11,t6,1692c <_vfiprintf_r+0x368>
   168f8:	01078793          	addi	a5,a5,16
   168fc:	0015059b          	addiw	a1,a0,1
   16900:	01843023          	sd	s8,0(s0)
   16904:	01d43423          	sd	t4,8(s0)
   16908:	08f13023          	sd	a5,128(sp)
   1690c:	06b12c23          	sw	a1,120(sp)
   16910:	fcbf5ae3          	ble	a1,t5,168e4 <_vfiprintf_r+0x320>
   16914:	4c079863          	bnez	a5,16de4 <_vfiprintf_r+0x820>
   16918:	ff0d8d9b          	addiw	s11,s11,-16
   1691c:	00000513          	li	a0,0
   16920:	00100613          	li	a2,1
   16924:	000c8413          	mv	s0,s9
   16928:	fdbfc8e3          	blt	t6,s11,168f8 <_vfiprintf_r+0x334>
   1692c:	05013703          	ld	a4,80(sp)
   16930:	00fd87b3          	add	a5,s11,a5
   16934:	01b43423          	sd	s11,8(s0)
   16938:	00e43023          	sd	a4,0(s0)
   1693c:	08f13023          	sd	a5,128(sp)
   16940:	06c12c23          	sw	a2,120(sp)
   16944:	00700593          	li	a1,7
   16948:	7ac5cc63          	blt	a1,a2,17100 <_vfiprintf_r+0xb3c>
   1694c:	06714503          	lbu	a0,103(sp)
   16950:	01040413          	addi	s0,s0,16
   16954:	0016059b          	addiw	a1,a2,1
   16958:	4e051c63          	bnez	a0,16e50 <_vfiprintf_r+0x88c>
   1695c:	52038663          	beqz	t2,16e88 <_vfiprintf_r+0x8c4>
   16960:	06810613          	addi	a2,sp,104
   16964:	00278793          	addi	a5,a5,2
   16968:	00c43023          	sd	a2,0(s0)
   1696c:	00200613          	li	a2,2
   16970:	00c43423          	sd	a2,8(s0)
   16974:	08f13023          	sd	a5,128(sp)
   16978:	06b12c23          	sw	a1,120(sp)
   1697c:	00700613          	li	a2,7
   16980:	7cb65863          	ble	a1,a2,17150 <_vfiprintf_r+0xb8c>
   16984:	10079ae3          	bnez	a5,17298 <_vfiprintf_r+0xcd4>
   16988:	08000513          	li	a0,128
   1698c:	00100593          	li	a1,1
   16990:	00000613          	li	a2,0
   16994:	000c8413          	mv	s0,s9
   16998:	4ea29c63          	bne	t0,a0,16e90 <_vfiprintf_r+0x8cc>
   1699c:	41390ebb          	subw	t4,s2,s3
   169a0:	4fd05863          	blez	t4,16e90 <_vfiprintf_r+0x8cc>
   169a4:	01000513          	li	a0,16
   169a8:	3fd55ce3          	ble	t4,a0,175a0 <_vfiprintf_r+0xfdc>
   169ac:	01000f13          	li	t5,16
   169b0:	00019737          	lui	a4,0x19
   169b4:	21070d93          	addi	s11,a4,528 # 19210 <zeroes.4137>
   169b8:	00700f93          	li	t6,7
   169bc:	000f0293          	mv	t0,t5
   169c0:	0180006f          	j	169d8 <_vfiprintf_r+0x414>
   169c4:	0026051b          	addiw	a0,a2,2
   169c8:	01040413          	addi	s0,s0,16
   169cc:	00058613          	mv	a2,a1
   169d0:	ff0e8e9b          	addiw	t4,t4,-16
   169d4:	03d2dc63          	ble	t4,t0,16a0c <_vfiprintf_r+0x448>
   169d8:	01078793          	addi	a5,a5,16
   169dc:	0016059b          	addiw	a1,a2,1
   169e0:	01b43023          	sd	s11,0(s0)
   169e4:	01e43423          	sd	t5,8(s0)
   169e8:	08f13023          	sd	a5,128(sp)
   169ec:	06b12c23          	sw	a1,120(sp)
   169f0:	fcbfdae3          	ble	a1,t6,169c4 <_vfiprintf_r+0x400>
   169f4:	6a079e63          	bnez	a5,170b0 <_vfiprintf_r+0xaec>
   169f8:	ff0e8e9b          	addiw	t4,t4,-16
   169fc:	00100513          	li	a0,1
   16a00:	00000613          	li	a2,0
   16a04:	000c8413          	mv	s0,s9
   16a08:	fdd2c8e3          	blt	t0,t4,169d8 <_vfiprintf_r+0x414>
   16a0c:	01d787b3          	add	a5,a5,t4
   16a10:	01b43023          	sd	s11,0(s0)
   16a14:	01d43423          	sd	t4,8(s0)
   16a18:	08f13023          	sd	a5,128(sp)
   16a1c:	06a12c23          	sw	a0,120(sp)
   16a20:	00700613          	li	a2,7
   16a24:	0ea646e3          	blt	a2,a0,17310 <_vfiprintf_r+0xd4c>
   16a28:	414484bb          	subw	s1,s1,s4
   16a2c:	01040413          	addi	s0,s0,16
   16a30:	0015059b          	addiw	a1,a0,1
   16a34:	00050613          	mv	a2,a0
   16a38:	46904063          	bgtz	s1,16e98 <_vfiprintf_r+0x8d4>
   16a3c:	00fa07b3          	add	a5,s4,a5
   16a40:	01743023          	sd	s7,0(s0)
   16a44:	01443423          	sd	s4,8(s0)
   16a48:	08f13023          	sd	a5,128(sp)
   16a4c:	06b12c23          	sw	a1,120(sp)
   16a50:	00700713          	li	a4,7
   16a54:	4eb75a63          	ble	a1,a4,16f48 <_vfiprintf_r+0x984>
   16a58:	7a079463          	bnez	a5,17200 <_vfiprintf_r+0xc3c>
   16a5c:	06012c23          	sw	zero,120(sp)
   16a60:	00437313          	andi	t1,t1,4
   16a64:	00030663          	beqz	t1,16a70 <_vfiprintf_r+0x4ac>
   16a68:	413904bb          	subw	s1,s2,s3
   16a6c:	229040e3          	bgtz	s1,1748c <_vfiprintf_r+0xec8>
   16a70:	01395463          	ble	s3,s2,16a78 <_vfiprintf_r+0x4b4>
   16a74:	00098913          	mv	s2,s3
   16a78:	05812783          	lw	a5,88(sp)
   16a7c:	012787bb          	addw	a5,a5,s2
   16a80:	04f12c23          	sw	a5,88(sp)
   16a84:	06012c23          	sw	zero,120(sp)
   16a88:	000c8413          	mv	s0,s9
   16a8c:	c29ff06f          	j	166b4 <_vfiprintf_r+0xf0>
   16a90:	00100513          	li	a0,1
   16a94:	02b00e93          	li	t4,43
   16a98:	000b0813          	mv	a6,s6
   16a9c:	cb5ff06f          	j	16750 <_vfiprintf_r+0x18c>
   16aa0:	08036313          	ori	t1,t1,128
   16aa4:	000b0813          	mv	a6,s6
   16aa8:	ca9ff06f          	j	16750 <_vfiprintf_r+0x18c>
   16aac:	00000913          	li	s2,0
   16ab0:	fd07079b          	addiw	a5,a4,-48
   16ab4:	001b0b13          	addi	s6,s6,1
   16ab8:	fffb4703          	lbu	a4,-1(s6)
   16abc:	00191f9b          	slliw	t6,s2,0x1
   16ac0:	0039191b          	slliw	s2,s2,0x3
   16ac4:	012f893b          	addw	s2,t6,s2
   16ac8:	0127893b          	addw	s2,a5,s2
   16acc:	fd07079b          	addiw	a5,a4,-48
   16ad0:	fef5f2e3          	bleu	a5,a1,16ab4 <_vfiprintf_r+0x4f0>
   16ad4:	c85ff06f          	j	16758 <_vfiprintf_r+0x194>
   16ad8:	360518e3          	bnez	a0,17648 <_vfiprintf_r+0x1084>
   16adc:	01036313          	ori	t1,t1,16
   16ae0:	01037793          	andi	a5,t1,16
   16ae4:	74078263          	beqz	a5,17228 <_vfiprintf_r+0xc64>
   16ae8:	00813703          	ld	a4,8(sp)
   16aec:	00073783          	ld	a5,0(a4)
   16af0:	00870713          	addi	a4,a4,8
   16af4:	00e13423          	sd	a4,8(sp)
   16af8:	0e07c6e3          	bltz	a5,173e4 <_vfiprintf_r+0xe20>
   16afc:	06714583          	lbu	a1,103(sp)
   16b00:	6e04c063          	bltz	s1,171e0 <_vfiprintf_r+0xc1c>
   16b04:	f7f37313          	andi	t1,t1,-129
   16b08:	10078c63          	beqz	a5,16c20 <_vfiprintf_r+0x65c>
   16b0c:	00900613          	li	a2,9
   16b10:	000c8b93          	mv	s7,s9
   16b14:	00a00513          	li	a0,10
   16b18:	10f67863          	bleu	a5,a2,16c28 <_vfiprintf_r+0x664>
   16b1c:	02a7f633          	remu	a2,a5,a0
   16b20:	fffb8b93          	addi	s7,s7,-1
   16b24:	02a7d7b3          	divu	a5,a5,a0
   16b28:	0306061b          	addiw	a2,a2,48
   16b2c:	00cb8023          	sb	a2,0(s7)
   16b30:	fe0796e3          	bnez	a5,16b1c <_vfiprintf_r+0x558>
   16b34:	417c8a3b          	subw	s4,s9,s7
   16b38:	d59ff06f          	j	16890 <_vfiprintf_r+0x2cc>
   16b3c:	300512e3          	bnez	a0,17640 <_vfiprintf_r+0x107c>
   16b40:	01036313          	ori	t1,t1,16
   16b44:	01037793          	andi	a5,t1,16
   16b48:	6e078e63          	beqz	a5,17244 <_vfiprintf_r+0xc80>
   16b4c:	00813783          	ld	a5,8(sp)
   16b50:	060103a3          	sb	zero,103(sp)
   16b54:	00878713          	addi	a4,a5,8
   16b58:	0007b783          	ld	a5,0(a5)
   16b5c:	7004c263          	bltz	s1,17260 <_vfiprintf_r+0xc9c>
   16b60:	00e13423          	sd	a4,8(sp)
   16b64:	f7f37313          	andi	t1,t1,-129
   16b68:	70079263          	bnez	a5,1726c <_vfiprintf_r+0xca8>
   16b6c:	00000593          	li	a1,0
   16b70:	00000793          	li	a5,0
   16b74:	2a0482e3          	beqz	s1,17618 <_vfiprintf_r+0x1054>
   16b78:	000c8b93          	mv	s7,s9
   16b7c:	0077f613          	andi	a2,a5,7
   16b80:	fffb8b93          	addi	s7,s7,-1
   16b84:	0306061b          	addiw	a2,a2,48
   16b88:	00cb8023          	sb	a2,0(s7)
   16b8c:	0037d793          	srli	a5,a5,0x3
   16b90:	fe0796e3          	bnez	a5,16b7c <_vfiprintf_r+0x5b8>
   16b94:	00137793          	andi	a5,t1,1
   16b98:	f8078ee3          	beqz	a5,16b34 <_vfiprintf_r+0x570>
   16b9c:	03000793          	li	a5,48
   16ba0:	f8f60ae3          	beq	a2,a5,16b34 <_vfiprintf_r+0x570>
   16ba4:	fffb8613          	addi	a2,s7,-1
   16ba8:	40cc8a33          	sub	s4,s9,a2
   16bac:	fefb8fa3          	sb	a5,-1(s7)
   16bb0:	000a0a1b          	sext.w	s4,s4
   16bb4:	00060b93          	mv	s7,a2
   16bb8:	cd9ff06f          	j	16890 <_vfiprintf_r+0x2cc>
   16bbc:	28051ee3          	bnez	a0,17658 <_vfiprintf_r+0x1094>
   16bc0:	01037793          	andi	a5,t1,16
   16bc4:	040786e3          	beqz	a5,17410 <_vfiprintf_r+0xe4c>
   16bc8:	00813683          	ld	a3,8(sp)
   16bcc:	05812703          	lw	a4,88(sp)
   16bd0:	0006b783          	ld	a5,0(a3) # 7ff00000 <_gp+0x7fee44f0>
   16bd4:	00868693          	addi	a3,a3,8
   16bd8:	00d13423          	sd	a3,8(sp)
   16bdc:	00e7b023          	sd	a4,0(a5)
   16be0:	ad5ff06f          	j	166b4 <_vfiprintf_r+0xf0>
   16be4:	260516e3          	bnez	a0,17650 <_vfiprintf_r+0x108c>
   16be8:	01036313          	ori	t1,t1,16
   16bec:	01037793          	andi	a5,t1,16
   16bf0:	5c079a63          	bnez	a5,171c4 <_vfiprintf_r+0xc00>
   16bf4:	04037793          	andi	a5,t1,64
   16bf8:	060103a3          	sb	zero,103(sp)
   16bfc:	7c078063          	beqz	a5,173bc <_vfiprintf_r+0xdf8>
   16c00:	00813783          	ld	a5,8(sp)
   16c04:	00878713          	addi	a4,a5,8
   16c08:	0007d783          	lhu	a5,0(a5)
   16c0c:	5c04c663          	bltz	s1,171d8 <_vfiprintf_r+0xc14>
   16c10:	00e13423          	sd	a4,8(sp)
   16c14:	f7f37313          	andi	t1,t1,-129
   16c18:	00000593          	li	a1,0
   16c1c:	ee0798e3          	bnez	a5,16b0c <_vfiprintf_r+0x548>
   16c20:	c60482e3          	beqz	s1,16884 <_vfiprintf_r+0x2c0>
   16c24:	00000793          	li	a5,0
   16c28:	0307879b          	addiw	a5,a5,48
   16c2c:	0af107a3          	sb	a5,175(sp)
   16c30:	05c12a03          	lw	s4,92(sp)
   16c34:	0af10b93          	addi	s7,sp,175
   16c38:	c59ff06f          	j	16890 <_vfiprintf_r+0x2cc>
   16c3c:	b40e98e3          	bnez	t4,1678c <_vfiprintf_r+0x1c8>
   16c40:	00100513          	li	a0,1
   16c44:	02000e93          	li	t4,32
   16c48:	000b0813          	mv	a6,s6
   16c4c:	b05ff06f          	j	16750 <_vfiprintf_r+0x18c>
   16c50:	00136313          	ori	t1,t1,1
   16c54:	000b0813          	mv	a6,s6
   16c58:	af9ff06f          	j	16750 <_vfiprintf_r+0x18c>
   16c5c:	00813783          	ld	a5,8(sp)
   16c60:	060103a3          	sb	zero,103(sp)
   16c64:	0007bb83          	ld	s7,0(a5)
   16c68:	00878d93          	addi	s11,a5,8
   16c6c:	0e0b84e3          	beqz	s7,17554 <_vfiprintf_r+0xf90>
   16c70:	0404cee3          	bltz	s1,174cc <_vfiprintf_r+0xf08>
   16c74:	00048613          	mv	a2,s1
   16c78:	00000593          	li	a1,0
   16c7c:	000b8513          	mv	a0,s7
   16c80:	00613423          	sd	t1,8(sp)
   16c84:	928fe0ef          	jal	14dac <memchr>
   16c88:	00813303          	ld	t1,8(sp)
   16c8c:	120502e3          	beqz	a0,175b0 <_vfiprintf_r+0xfec>
   16c90:	41750a3b          	subw	s4,a0,s7
   16c94:	06714583          	lbu	a1,103(sp)
   16c98:	01b13423          	sd	s11,8(sp)
   16c9c:	00000493          	li	s1,0
   16ca0:	bf1ff06f          	j	16890 <_vfiprintf_r+0x2cc>
   16ca4:	f40504e3          	beqz	a0,16bec <_vfiprintf_r+0x628>
   16ca8:	07d103a3          	sb	t4,103(sp)
   16cac:	f41ff06f          	j	16bec <_vfiprintf_r+0x628>
   16cb0:	00813703          	ld	a4,8(sp)
   16cb4:	00100993          	li	s3,1
   16cb8:	060103a3          	sb	zero,103(sp)
   16cbc:	00072783          	lw	a5,0(a4)
   16cc0:	00098a13          	mv	s4,s3
   16cc4:	08810b93          	addi	s7,sp,136
   16cc8:	08f10423          	sb	a5,136(sp)
   16ccc:	00870793          	addi	a5,a4,8
   16cd0:	00f13423          	sd	a5,8(sp)
   16cd4:	00000493          	li	s1,0
   16cd8:	bcdff06f          	j	168a4 <_vfiprintf_r+0x2e0>
   16cdc:	e00502e3          	beqz	a0,16ae0 <_vfiprintf_r+0x51c>
   16ce0:	07d103a3          	sb	t4,103(sp)
   16ce4:	dfdff06f          	j	16ae0 <_vfiprintf_r+0x51c>
   16ce8:	120510e3          	bnez	a0,17608 <_vfiprintf_r+0x1044>
   16cec:	000197b7          	lui	a5,0x19
   16cf0:	24878793          	addi	a5,a5,584 # 19248 <zeroes.4137+0x38>
   16cf4:	00f13c23          	sd	a5,24(sp)
   16cf8:	01037793          	andi	a5,t1,16
   16cfc:	06078063          	beqz	a5,16d5c <_vfiprintf_r+0x798>
   16d00:	00813683          	ld	a3,8(sp)
   16d04:	0006b783          	ld	a5,0(a3)
   16d08:	00868693          	addi	a3,a3,8
   16d0c:	00d13423          	sd	a3,8(sp)
   16d10:	00137613          	andi	a2,t1,1
   16d14:	46060863          	beqz	a2,17184 <_vfiprintf_r+0xbc0>
   16d18:	66079063          	bnez	a5,17378 <_vfiprintf_r+0xdb4>
   16d1c:	060103a3          	sb	zero,103(sp)
   16d20:	6404c663          	bltz	s1,1736c <_vfiprintf_r+0xda8>
   16d24:	f7f37313          	andi	t1,t1,-129
   16d28:	b55ff06f          	j	1687c <_vfiprintf_r+0x2b8>
   16d2c:	e0050ce3          	beqz	a0,16b44 <_vfiprintf_r+0x580>
   16d30:	07d103a3          	sb	t4,103(sp)
   16d34:	e11ff06f          	j	16b44 <_vfiprintf_r+0x580>
   16d38:	04036313          	ori	t1,t1,64
   16d3c:	000b0813          	mv	a6,s6
   16d40:	a11ff06f          	j	16750 <_vfiprintf_r+0x18c>
   16d44:	0a051ee3          	bnez	a0,17600 <_vfiprintf_r+0x103c>
   16d48:	000197b7          	lui	a5,0x19
   16d4c:	26078793          	addi	a5,a5,608 # 19260 <zeroes.4137+0x50>
   16d50:	00f13c23          	sd	a5,24(sp)
   16d54:	01037793          	andi	a5,t1,16
   16d58:	fa0794e3          	bnez	a5,16d00 <_vfiprintf_r+0x73c>
   16d5c:	04037793          	andi	a5,t1,64
   16d60:	00813683          	ld	a3,8(sp)
   16d64:	68078e63          	beqz	a5,17400 <_vfiprintf_r+0xe3c>
   16d68:	0006d783          	lhu	a5,0(a3)
   16d6c:	00868693          	addi	a3,a3,8
   16d70:	00d13423          	sd	a3,8(sp)
   16d74:	f9dff06f          	j	16d10 <_vfiprintf_r+0x74c>
   16d78:	000b4703          	lbu	a4,0(s6)
   16d7c:	001b0813          	addi	a6,s6,1
   16d80:	05e70ee3          	beq	a4,t5,175dc <_vfiprintf_r+0x1018>
   16d84:	fd07079b          	addiw	a5,a4,-48
   16d88:	00000493          	li	s1,0
   16d8c:	00080b13          	mv	s6,a6
   16d90:	9cf5e4e3          	bltu	a1,a5,16758 <_vfiprintf_r+0x194>
   16d94:	001b0b13          	addi	s6,s6,1
   16d98:	fffb4703          	lbu	a4,-1(s6)
   16d9c:	00149f9b          	slliw	t6,s1,0x1
   16da0:	0034949b          	slliw	s1,s1,0x3
   16da4:	009f84bb          	addw	s1,t6,s1
   16da8:	00f484bb          	addw	s1,s1,a5
   16dac:	fd07079b          	addiw	a5,a4,-48
   16db0:	fef5f2e3          	bleu	a5,a1,16d94 <_vfiprintf_r+0x7d0>
   16db4:	9a04d2e3          	bgez	s1,16758 <_vfiprintf_r+0x194>
   16db8:	fff00493          	li	s1,-1
   16dbc:	99dff06f          	j	16758 <_vfiprintf_r+0x194>
   16dc0:	040518e3          	bnez	a0,17610 <_vfiprintf_r+0x104c>
   16dc4:	6e070663          	beqz	a4,174b0 <_vfiprintf_r+0xeec>
   16dc8:	00100993          	li	s3,1
   16dcc:	08e10423          	sb	a4,136(sp)
   16dd0:	060103a3          	sb	zero,103(sp)
   16dd4:	00098a13          	mv	s4,s3
   16dd8:	08810b93          	addi	s7,sp,136
   16ddc:	00000493          	li	s1,0
   16de0:	ac5ff06f          	j	168a4 <_vfiprintf_r+0x2e0>
   16de4:	07010613          	addi	a2,sp,112
   16de8:	000d0593          	mv	a1,s10
   16dec:	000a8513          	mv	a0,s5
   16df0:	05f13423          	sd	t6,72(sp)
   16df4:	05e13023          	sd	t5,64(sp)
   16df8:	03d13c23          	sd	t4,56(sp)
   16dfc:	02513823          	sd	t0,48(sp)
   16e00:	02713423          	sd	t2,40(sp)
   16e04:	02613023          	sd	t1,32(sp)
   16e08:	eb8ff0ef          	jal	164c0 <__sprint_r.part.0>
   16e0c:	22051063          	bnez	a0,1702c <_vfiprintf_r+0xa68>
   16e10:	07812503          	lw	a0,120(sp)
   16e14:	08013783          	ld	a5,128(sp)
   16e18:	000c8413          	mv	s0,s9
   16e1c:	0015061b          	addiw	a2,a0,1
   16e20:	04813f83          	ld	t6,72(sp)
   16e24:	04013f03          	ld	t5,64(sp)
   16e28:	03813e83          	ld	t4,56(sp)
   16e2c:	03013283          	ld	t0,48(sp)
   16e30:	02813383          	ld	t2,40(sp)
   16e34:	02013303          	ld	t1,32(sp)
   16e38:	ab9ff06f          	j	168f0 <_vfiprintf_r+0x32c>
   16e3c:	07812603          	lw	a2,120(sp)
   16e40:	08013783          	ld	a5,128(sp)
   16e44:	0016059b          	addiw	a1,a2,1
   16e48:	06714503          	lbu	a0,103(sp)
   16e4c:	b00508e3          	beqz	a0,1695c <_vfiprintf_r+0x398>
   16e50:	00100513          	li	a0,1
   16e54:	06710613          	addi	a2,sp,103
   16e58:	00a787b3          	add	a5,a5,a0
   16e5c:	00c43023          	sd	a2,0(s0)
   16e60:	00a43423          	sd	a0,8(s0)
   16e64:	08f13023          	sd	a5,128(sp)
   16e68:	06b12c23          	sw	a1,120(sp)
   16e6c:	00700613          	li	a2,7
   16e70:	2ab65a63          	ble	a1,a2,17124 <_vfiprintf_r+0xb60>
   16e74:	44079e63          	bnez	a5,172d0 <_vfiprintf_r+0xd0c>
   16e78:	2c039063          	bnez	t2,17138 <_vfiprintf_r+0xb74>
   16e7c:	00000613          	li	a2,0
   16e80:	00050593          	mv	a1,a0
   16e84:	000c8413          	mv	s0,s9
   16e88:	08000513          	li	a0,128
   16e8c:	b0a288e3          	beq	t0,a0,1699c <_vfiprintf_r+0x3d8>
   16e90:	414484bb          	subw	s1,s1,s4
   16e94:	ba9054e3          	blez	s1,16a3c <_vfiprintf_r+0x478>
   16e98:	00019737          	lui	a4,0x19
   16e9c:	01000513          	li	a0,16
   16ea0:	21070d93          	addi	s11,a4,528 # 19210 <zeroes.4137>
   16ea4:	06955263          	ble	s1,a0,16f08 <_vfiprintf_r+0x944>
   16ea8:	01000e93          	li	t4,16
   16eac:	00019737          	lui	a4,0x19
   16eb0:	21070d93          	addi	s11,a4,528 # 19210 <zeroes.4137>
   16eb4:	00700f13          	li	t5,7
   16eb8:	000e8f93          	mv	t6,t4
   16ebc:	0180006f          	j	16ed4 <_vfiprintf_r+0x910>
   16ec0:	0026059b          	addiw	a1,a2,2
   16ec4:	01040413          	addi	s0,s0,16
   16ec8:	00050613          	mv	a2,a0
   16ecc:	ff04849b          	addiw	s1,s1,-16
   16ed0:	029fdc63          	ble	s1,t6,16f08 <_vfiprintf_r+0x944>
   16ed4:	01078793          	addi	a5,a5,16
   16ed8:	0016051b          	addiw	a0,a2,1
   16edc:	01b43023          	sd	s11,0(s0)
   16ee0:	01d43423          	sd	t4,8(s0)
   16ee4:	08f13023          	sd	a5,128(sp)
   16ee8:	06a12c23          	sw	a0,120(sp)
   16eec:	fcaf5ae3          	ble	a0,t5,16ec0 <_vfiprintf_r+0x8fc>
   16ef0:	14079863          	bnez	a5,17040 <_vfiprintf_r+0xa7c>
   16ef4:	ff04849b          	addiw	s1,s1,-16
   16ef8:	00100593          	li	a1,1
   16efc:	00000613          	li	a2,0
   16f00:	000c8413          	mv	s0,s9
   16f04:	fc9fc8e3          	blt	t6,s1,16ed4 <_vfiprintf_r+0x910>
   16f08:	009787b3          	add	a5,a5,s1
   16f0c:	01b43023          	sd	s11,0(s0)
   16f10:	00943423          	sd	s1,8(s0)
   16f14:	08f13023          	sd	a5,128(sp)
   16f18:	06b12c23          	sw	a1,120(sp)
   16f1c:	00700613          	li	a2,7
   16f20:	24b64063          	blt	a2,a1,17160 <_vfiprintf_r+0xb9c>
   16f24:	01040413          	addi	s0,s0,16
   16f28:	0015859b          	addiw	a1,a1,1
   16f2c:	00fa07b3          	add	a5,s4,a5
   16f30:	01743023          	sd	s7,0(s0)
   16f34:	01443423          	sd	s4,8(s0)
   16f38:	08f13023          	sd	a5,128(sp)
   16f3c:	06b12c23          	sw	a1,120(sp)
   16f40:	00700713          	li	a4,7
   16f44:	b0b74ae3          	blt	a4,a1,16a58 <_vfiprintf_r+0x494>
   16f48:	01040413          	addi	s0,s0,16
   16f4c:	00437313          	andi	t1,t1,4
   16f50:	0a030863          	beqz	t1,17000 <_vfiprintf_r+0xa3c>
   16f54:	413904bb          	subw	s1,s2,s3
   16f58:	0a905463          	blez	s1,17000 <_vfiprintf_r+0xa3c>
   16f5c:	01000713          	li	a4,16
   16f60:	62975863          	ble	s1,a4,17590 <_vfiprintf_r+0xfcc>
   16f64:	01000a13          	li	s4,16
   16f68:	07812603          	lw	a2,120(sp)
   16f6c:	05813823          	sd	s8,80(sp)
   16f70:	00700d93          	li	s11,7
   16f74:	000a0b93          	mv	s7,s4
   16f78:	0180006f          	j	16f90 <_vfiprintf_r+0x9cc>
   16f7c:	0026059b          	addiw	a1,a2,2
   16f80:	01040413          	addi	s0,s0,16
   16f84:	00070613          	mv	a2,a4
   16f88:	ff04849b          	addiw	s1,s1,-16
   16f8c:	029bdc63          	ble	s1,s7,16fc4 <_vfiprintf_r+0xa00>
   16f90:	01078793          	addi	a5,a5,16
   16f94:	0016071b          	addiw	a4,a2,1
   16f98:	01843023          	sd	s8,0(s0)
   16f9c:	01443423          	sd	s4,8(s0)
   16fa0:	08f13023          	sd	a5,128(sp)
   16fa4:	06e12c23          	sw	a4,120(sp)
   16fa8:	fceddae3          	ble	a4,s11,16f7c <_vfiprintf_r+0x9b8>
   16fac:	0c079e63          	bnez	a5,17088 <_vfiprintf_r+0xac4>
   16fb0:	ff04849b          	addiw	s1,s1,-16
   16fb4:	00100593          	li	a1,1
   16fb8:	00000613          	li	a2,0
   16fbc:	000c8413          	mv	s0,s9
   16fc0:	fc9bc8e3          	blt	s7,s1,16f90 <_vfiprintf_r+0x9cc>
   16fc4:	05013703          	ld	a4,80(sp)
   16fc8:	009787b3          	add	a5,a5,s1
   16fcc:	00943423          	sd	s1,8(s0)
   16fd0:	00e43023          	sd	a4,0(s0)
   16fd4:	08f13023          	sd	a5,128(sp)
   16fd8:	06b12c23          	sw	a1,120(sp)
   16fdc:	00700713          	li	a4,7
   16fe0:	02b75063          	ble	a1,a4,17000 <_vfiprintf_r+0xa3c>
   16fe4:	a80786e3          	beqz	a5,16a70 <_vfiprintf_r+0x4ac>
   16fe8:	07010613          	addi	a2,sp,112
   16fec:	000d0593          	mv	a1,s10
   16ff0:	000a8513          	mv	a0,s5
   16ff4:	cccff0ef          	jal	164c0 <__sprint_r.part.0>
   16ff8:	02051a63          	bnez	a0,1702c <_vfiprintf_r+0xa68>
   16ffc:	08013783          	ld	a5,128(sp)
   17000:	01395463          	ble	s3,s2,17008 <_vfiprintf_r+0xa44>
   17004:	00098913          	mv	s2,s3
   17008:	05812703          	lw	a4,88(sp)
   1700c:	0127073b          	addw	a4,a4,s2
   17010:	04e12c23          	sw	a4,88(sp)
   17014:	a60788e3          	beqz	a5,16a84 <_vfiprintf_r+0x4c0>
   17018:	07010613          	addi	a2,sp,112
   1701c:	000d0593          	mv	a1,s10
   17020:	000a8513          	mv	a0,s5
   17024:	c9cff0ef          	jal	164c0 <__sprint_r.part.0>
   17028:	a4050ee3          	beqz	a0,16a84 <_vfiprintf_r+0x4c0>
   1702c:	010d5783          	lhu	a5,16(s10)
   17030:	0407f793          	andi	a5,a5,64
   17034:	44079863          	bnez	a5,17484 <_vfiprintf_r+0xec0>
   17038:	05812503          	lw	a0,88(sp)
   1703c:	f94ff06f          	j	167d0 <_vfiprintf_r+0x20c>
   17040:	07010613          	addi	a2,sp,112
   17044:	000d0593          	mv	a1,s10
   17048:	000a8513          	mv	a0,s5
   1704c:	03f13c23          	sd	t6,56(sp)
   17050:	03e13823          	sd	t5,48(sp)
   17054:	03d13423          	sd	t4,40(sp)
   17058:	02613023          	sd	t1,32(sp)
   1705c:	c64ff0ef          	jal	164c0 <__sprint_r.part.0>
   17060:	fc0516e3          	bnez	a0,1702c <_vfiprintf_r+0xa68>
   17064:	07812603          	lw	a2,120(sp)
   17068:	08013783          	ld	a5,128(sp)
   1706c:	000c8413          	mv	s0,s9
   17070:	0016059b          	addiw	a1,a2,1
   17074:	03813f83          	ld	t6,56(sp)
   17078:	03013f03          	ld	t5,48(sp)
   1707c:	02813e83          	ld	t4,40(sp)
   17080:	02013303          	ld	t1,32(sp)
   17084:	e49ff06f          	j	16ecc <_vfiprintf_r+0x908>
   17088:	07010613          	addi	a2,sp,112
   1708c:	000d0593          	mv	a1,s10
   17090:	000a8513          	mv	a0,s5
   17094:	c2cff0ef          	jal	164c0 <__sprint_r.part.0>
   17098:	f8051ae3          	bnez	a0,1702c <_vfiprintf_r+0xa68>
   1709c:	07812603          	lw	a2,120(sp)
   170a0:	08013783          	ld	a5,128(sp)
   170a4:	000c8413          	mv	s0,s9
   170a8:	0016059b          	addiw	a1,a2,1
   170ac:	eddff06f          	j	16f88 <_vfiprintf_r+0x9c4>
   170b0:	07010613          	addi	a2,sp,112
   170b4:	000d0593          	mv	a1,s10
   170b8:	000a8513          	mv	a0,s5
   170bc:	04513023          	sd	t0,64(sp)
   170c0:	03f13c23          	sd	t6,56(sp)
   170c4:	03e13823          	sd	t5,48(sp)
   170c8:	03d13423          	sd	t4,40(sp)
   170cc:	02613023          	sd	t1,32(sp)
   170d0:	bf0ff0ef          	jal	164c0 <__sprint_r.part.0>
   170d4:	f4051ce3          	bnez	a0,1702c <_vfiprintf_r+0xa68>
   170d8:	07812603          	lw	a2,120(sp)
   170dc:	08013783          	ld	a5,128(sp)
   170e0:	000c8413          	mv	s0,s9
   170e4:	0016051b          	addiw	a0,a2,1
   170e8:	04013283          	ld	t0,64(sp)
   170ec:	03813f83          	ld	t6,56(sp)
   170f0:	03013f03          	ld	t5,48(sp)
   170f4:	02813e83          	ld	t4,40(sp)
   170f8:	02013303          	ld	t1,32(sp)
   170fc:	8d5ff06f          	j	169d0 <_vfiprintf_r+0x40c>
   17100:	34079263          	bnez	a5,17444 <_vfiprintf_r+0xe80>
   17104:	06714603          	lbu	a2,103(sp)
   17108:	02060663          	beqz	a2,17134 <_vfiprintf_r+0xb70>
   1710c:	00100793          	li	a5,1
   17110:	06710613          	addi	a2,sp,103
   17114:	0ac13823          	sd	a2,176(sp)
   17118:	0af13c23          	sd	a5,184(sp)
   1711c:	00078593          	mv	a1,a5
   17120:	000c8413          	mv	s0,s9
   17124:	00058613          	mv	a2,a1
   17128:	01040413          	addi	s0,s0,16
   1712c:	0015859b          	addiw	a1,a1,1
   17130:	82dff06f          	j	1695c <_vfiprintf_r+0x398>
   17134:	36038063          	beqz	t2,17494 <_vfiprintf_r+0xed0>
   17138:	00200793          	li	a5,2
   1713c:	06810613          	addi	a2,sp,104
   17140:	0ac13823          	sd	a2,176(sp)
   17144:	0af13c23          	sd	a5,184(sp)
   17148:	00100593          	li	a1,1
   1714c:	000c8413          	mv	s0,s9
   17150:	00058613          	mv	a2,a1
   17154:	01040413          	addi	s0,s0,16
   17158:	0015859b          	addiw	a1,a1,1
   1715c:	d2dff06f          	j	16e88 <_vfiprintf_r+0x8c4>
   17160:	1c079263          	bnez	a5,17324 <_vfiprintf_r+0xd60>
   17164:	00100713          	li	a4,1
   17168:	000a0793          	mv	a5,s4
   1716c:	0b713823          	sd	s7,176(sp)
   17170:	0b413c23          	sd	s4,184(sp)
   17174:	09413023          	sd	s4,128(sp)
   17178:	06e12c23          	sw	a4,120(sp)
   1717c:	000c8413          	mv	s0,s9
   17180:	dc9ff06f          	j	16f48 <_vfiprintf_r+0x984>
   17184:	060103a3          	sb	zero,103(sp)
   17188:	1e04c063          	bltz	s1,17368 <_vfiprintf_r+0xda4>
   1718c:	f7f37313          	andi	t1,t1,-129
   17190:	ee078663          	beqz	a5,1687c <_vfiprintf_r+0x2b8>
   17194:	00000593          	li	a1,0
   17198:	000c8b93          	mv	s7,s9
   1719c:	01813703          	ld	a4,24(sp)
   171a0:	00f7f613          	andi	a2,a5,15
   171a4:	fffb8b93          	addi	s7,s7,-1
   171a8:	00c70633          	add	a2,a4,a2
   171ac:	00064603          	lbu	a2,0(a2)
   171b0:	0047d793          	srli	a5,a5,0x4
   171b4:	00cb8023          	sb	a2,0(s7)
   171b8:	fe0792e3          	bnez	a5,1719c <_vfiprintf_r+0xbd8>
   171bc:	417c8a3b          	subw	s4,s9,s7
   171c0:	ed0ff06f          	j	16890 <_vfiprintf_r+0x2cc>
   171c4:	00813783          	ld	a5,8(sp)
   171c8:	060103a3          	sb	zero,103(sp)
   171cc:	00878713          	addi	a4,a5,8
   171d0:	0007b783          	ld	a5,0(a5)
   171d4:	a204dee3          	bgez	s1,16c10 <_vfiprintf_r+0x64c>
   171d8:	00e13423          	sd	a4,8(sp)
   171dc:	00000593          	li	a1,0
   171e0:	920796e3          	bnez	a5,16b0c <_vfiprintf_r+0x548>
   171e4:	00100793          	li	a5,1
   171e8:	00100713          	li	a4,1
   171ec:	a2e78ce3          	beq	a5,a4,16c24 <_vfiprintf_r+0x660>
   171f0:	00200713          	li	a4,2
   171f4:	08e78e63          	beq	a5,a4,17290 <_vfiprintf_r+0xccc>
   171f8:	00000793          	li	a5,0
   171fc:	97dff06f          	j	16b78 <_vfiprintf_r+0x5b4>
   17200:	07010613          	addi	a2,sp,112
   17204:	000d0593          	mv	a1,s10
   17208:	000a8513          	mv	a0,s5
   1720c:	02613023          	sd	t1,32(sp)
   17210:	ab0ff0ef          	jal	164c0 <__sprint_r.part.0>
   17214:	e0051ce3          	bnez	a0,1702c <_vfiprintf_r+0xa68>
   17218:	08013783          	ld	a5,128(sp)
   1721c:	000c8413          	mv	s0,s9
   17220:	02013303          	ld	t1,32(sp)
   17224:	d29ff06f          	j	16f4c <_vfiprintf_r+0x988>
   17228:	04037793          	andi	a5,t1,64
   1722c:	00813703          	ld	a4,8(sp)
   17230:	20078263          	beqz	a5,17434 <_vfiprintf_r+0xe70>
   17234:	00071783          	lh	a5,0(a4)
   17238:	00870713          	addi	a4,a4,8
   1723c:	00e13423          	sd	a4,8(sp)
   17240:	8b9ff06f          	j	16af8 <_vfiprintf_r+0x534>
   17244:	04037793          	andi	a5,t1,64
   17248:	060103a3          	sb	zero,103(sp)
   1724c:	18078263          	beqz	a5,173d0 <_vfiprintf_r+0xe0c>
   17250:	00813783          	ld	a5,8(sp)
   17254:	00878713          	addi	a4,a5,8
   17258:	0007d783          	lhu	a5,0(a5)
   1725c:	9004d2e3          	bgez	s1,16b60 <_vfiprintf_r+0x59c>
   17260:	00e13423          	sd	a4,8(sp)
   17264:	00000593          	li	a1,0
   17268:	f80780e3          	beqz	a5,171e8 <_vfiprintf_r+0xc24>
   1726c:	00000593          	li	a1,0
   17270:	909ff06f          	j	16b78 <_vfiprintf_r+0x5b4>
   17274:	07010613          	addi	a2,sp,112
   17278:	000d0593          	mv	a1,s10
   1727c:	000a8513          	mv	a0,s5
   17280:	a40ff0ef          	jal	164c0 <__sprint_r.part.0>
   17284:	da0514e3          	bnez	a0,1702c <_vfiprintf_r+0xa68>
   17288:	000c8413          	mv	s0,s9
   1728c:	c88ff06f          	j	16714 <_vfiprintf_r+0x150>
   17290:	00000793          	li	a5,0
   17294:	f05ff06f          	j	17198 <_vfiprintf_r+0xbd4>
   17298:	07010613          	addi	a2,sp,112
   1729c:	000d0593          	mv	a1,s10
   172a0:	000a8513          	mv	a0,s5
   172a4:	02513423          	sd	t0,40(sp)
   172a8:	02613023          	sd	t1,32(sp)
   172ac:	a14ff0ef          	jal	164c0 <__sprint_r.part.0>
   172b0:	d6051ee3          	bnez	a0,1702c <_vfiprintf_r+0xa68>
   172b4:	07812603          	lw	a2,120(sp)
   172b8:	08013783          	ld	a5,128(sp)
   172bc:	000c8413          	mv	s0,s9
   172c0:	0016059b          	addiw	a1,a2,1
   172c4:	02813283          	ld	t0,40(sp)
   172c8:	02013303          	ld	t1,32(sp)
   172cc:	bbdff06f          	j	16e88 <_vfiprintf_r+0x8c4>
   172d0:	07010613          	addi	a2,sp,112
   172d4:	000d0593          	mv	a1,s10
   172d8:	000a8513          	mv	a0,s5
   172dc:	02513823          	sd	t0,48(sp)
   172e0:	02713423          	sd	t2,40(sp)
   172e4:	02613023          	sd	t1,32(sp)
   172e8:	9d8ff0ef          	jal	164c0 <__sprint_r.part.0>
   172ec:	d40510e3          	bnez	a0,1702c <_vfiprintf_r+0xa68>
   172f0:	07812603          	lw	a2,120(sp)
   172f4:	08013783          	ld	a5,128(sp)
   172f8:	000c8413          	mv	s0,s9
   172fc:	0016059b          	addiw	a1,a2,1
   17300:	03013283          	ld	t0,48(sp)
   17304:	02813383          	ld	t2,40(sp)
   17308:	02013303          	ld	t1,32(sp)
   1730c:	e50ff06f          	j	1695c <_vfiprintf_r+0x398>
   17310:	1e079063          	bnez	a5,174f0 <_vfiprintf_r+0xf2c>
   17314:	00100593          	li	a1,1
   17318:	00000613          	li	a2,0
   1731c:	000c8413          	mv	s0,s9
   17320:	b71ff06f          	j	16e90 <_vfiprintf_r+0x8cc>
   17324:	07010613          	addi	a2,sp,112
   17328:	000d0593          	mv	a1,s10
   1732c:	000a8513          	mv	a0,s5
   17330:	02613023          	sd	t1,32(sp)
   17334:	98cff0ef          	jal	164c0 <__sprint_r.part.0>
   17338:	ce051ae3          	bnez	a0,1702c <_vfiprintf_r+0xa68>
   1733c:	07812583          	lw	a1,120(sp)
   17340:	08013783          	ld	a5,128(sp)
   17344:	000c8413          	mv	s0,s9
   17348:	0015859b          	addiw	a1,a1,1
   1734c:	02013303          	ld	t1,32(sp)
   17350:	eecff06f          	j	16a3c <_vfiprintf_r+0x478>
   17354:	00e13423          	sd	a4,8(sp)
   17358:	00019737          	lui	a4,0x19
   1735c:	26070713          	addi	a4,a4,608 # 19260 <zeroes.4137+0x50>
   17360:	00060313          	mv	t1,a2
   17364:	00e13c23          	sd	a4,24(sp)
   17368:	e20796e3          	bnez	a5,17194 <_vfiprintf_r+0xbd0>
   1736c:	00000593          	li	a1,0
   17370:	00200793          	li	a5,2
   17374:	e75ff06f          	j	171e8 <_vfiprintf_r+0xc24>
   17378:	03000613          	li	a2,48
   1737c:	06e104a3          	sb	a4,105(sp)
   17380:	06c10423          	sb	a2,104(sp)
   17384:	060103a3          	sb	zero,103(sp)
   17388:	00236713          	ori	a4,t1,2
   1738c:	1a04c463          	bltz	s1,17534 <_vfiprintf_r+0xf70>
   17390:	f7f37313          	andi	t1,t1,-129
   17394:	00236313          	ori	t1,t1,2
   17398:	00000593          	li	a1,0
   1739c:	dfdff06f          	j	17198 <_vfiprintf_r+0xbd4>
   173a0:	00019737          	lui	a4,0x19
   173a4:	26070713          	addi	a4,a4,608 # 19260 <zeroes.4137+0x50>
   173a8:	00000593          	li	a1,0
   173ac:	00e13c23          	sd	a4,24(sp)
   173b0:	de9ff06f          	j	17198 <_vfiprintf_r+0xbd4>
   173b4:	000b0493          	mv	s1,s6
   173b8:	b68ff06f          	j	16720 <_vfiprintf_r+0x15c>
   173bc:	00813783          	ld	a5,8(sp)
   173c0:	00878713          	addi	a4,a5,8
   173c4:	0007e783          	lwu	a5,0(a5)
   173c8:	8404d4e3          	bgez	s1,16c10 <_vfiprintf_r+0x64c>
   173cc:	e0dff06f          	j	171d8 <_vfiprintf_r+0xc14>
   173d0:	00813783          	ld	a5,8(sp)
   173d4:	00878713          	addi	a4,a5,8
   173d8:	0007e783          	lwu	a5,0(a5)
   173dc:	f804d263          	bgez	s1,16b60 <_vfiprintf_r+0x59c>
   173e0:	e81ff06f          	j	17260 <_vfiprintf_r+0xc9c>
   173e4:	02d00713          	li	a4,45
   173e8:	06e103a3          	sb	a4,103(sp)
   173ec:	40f007b3          	neg	a5,a5
   173f0:	1804c863          	bltz	s1,17580 <_vfiprintf_r+0xfbc>
   173f4:	f7f37313          	andi	t1,t1,-129
   173f8:	02d00593          	li	a1,45
   173fc:	f10ff06f          	j	16b0c <_vfiprintf_r+0x548>
   17400:	0006e783          	lwu	a5,0(a3)
   17404:	00868693          	addi	a3,a3,8
   17408:	00d13423          	sd	a3,8(sp)
   1740c:	905ff06f          	j	16d10 <_vfiprintf_r+0x74c>
   17410:	00813703          	ld	a4,8(sp)
   17414:	04037313          	andi	t1,t1,64
   17418:	00073783          	ld	a5,0(a4)
   1741c:	00870713          	addi	a4,a4,8
   17420:	00e13423          	sd	a4,8(sp)
   17424:	08030063          	beqz	t1,174a4 <_vfiprintf_r+0xee0>
   17428:	05815703          	lhu	a4,88(sp)
   1742c:	00e79023          	sh	a4,0(a5)
   17430:	a84ff06f          	j	166b4 <_vfiprintf_r+0xf0>
   17434:	00072783          	lw	a5,0(a4)
   17438:	00870713          	addi	a4,a4,8
   1743c:	00e13423          	sd	a4,8(sp)
   17440:	eb8ff06f          	j	16af8 <_vfiprintf_r+0x534>
   17444:	07010613          	addi	a2,sp,112
   17448:	000d0593          	mv	a1,s10
   1744c:	000a8513          	mv	a0,s5
   17450:	02513823          	sd	t0,48(sp)
   17454:	02713423          	sd	t2,40(sp)
   17458:	02613023          	sd	t1,32(sp)
   1745c:	864ff0ef          	jal	164c0 <__sprint_r.part.0>
   17460:	bc0516e3          	bnez	a0,1702c <_vfiprintf_r+0xa68>
   17464:	07812603          	lw	a2,120(sp)
   17468:	08013783          	ld	a5,128(sp)
   1746c:	000c8413          	mv	s0,s9
   17470:	0016059b          	addiw	a1,a2,1
   17474:	03013283          	ld	t0,48(sp)
   17478:	02813383          	ld	t2,40(sp)
   1747c:	02013303          	ld	t1,32(sp)
   17480:	9c9ff06f          	j	16e48 <_vfiprintf_r+0x884>
   17484:	fff00513          	li	a0,-1
   17488:	b48ff06f          	j	167d0 <_vfiprintf_r+0x20c>
   1748c:	000c8413          	mv	s0,s9
   17490:	acdff06f          	j	16f5c <_vfiprintf_r+0x998>
   17494:	00000613          	li	a2,0
   17498:	00100593          	li	a1,1
   1749c:	000c8413          	mv	s0,s9
   174a0:	9e9ff06f          	j	16e88 <_vfiprintf_r+0x8c4>
   174a4:	05812703          	lw	a4,88(sp)
   174a8:	00e7a023          	sw	a4,0(a5)
   174ac:	a08ff06f          	j	166b4 <_vfiprintf_r+0xf0>
   174b0:	08013783          	ld	a5,128(sp)
   174b4:	b6078ce3          	beqz	a5,1702c <_vfiprintf_r+0xa68>
   174b8:	07010613          	addi	a2,sp,112
   174bc:	000d0593          	mv	a1,s10
   174c0:	000a8513          	mv	a0,s5
   174c4:	ffdfe0ef          	jal	164c0 <__sprint_r.part.0>
   174c8:	b65ff06f          	j	1702c <_vfiprintf_r+0xa68>
   174cc:	000b8513          	mv	a0,s7
   174d0:	02613023          	sd	t1,32(sp)
   174d4:	f1dfe0ef          	jal	163f0 <strlen>
   174d8:	00050a1b          	sext.w	s4,a0
   174dc:	06714583          	lbu	a1,103(sp)
   174e0:	01b13423          	sd	s11,8(sp)
   174e4:	00000493          	li	s1,0
   174e8:	02013303          	ld	t1,32(sp)
   174ec:	ba4ff06f          	j	16890 <_vfiprintf_r+0x2cc>
   174f0:	07010613          	addi	a2,sp,112
   174f4:	000d0593          	mv	a1,s10
   174f8:	000a8513          	mv	a0,s5
   174fc:	02613023          	sd	t1,32(sp)
   17500:	fc1fe0ef          	jal	164c0 <__sprint_r.part.0>
   17504:	b20514e3          	bnez	a0,1702c <_vfiprintf_r+0xa68>
   17508:	07812603          	lw	a2,120(sp)
   1750c:	08013783          	ld	a5,128(sp)
   17510:	000c8413          	mv	s0,s9
   17514:	0016059b          	addiw	a1,a2,1
   17518:	02013303          	ld	t1,32(sp)
   1751c:	975ff06f          	j	16e90 <_vfiprintf_r+0x8cc>
   17520:	07812603          	lw	a2,120(sp)
   17524:	08013783          	ld	a5,128(sp)
   17528:	05813823          	sd	s8,80(sp)
   1752c:	0016061b          	addiw	a2,a2,1
   17530:	bfcff06f          	j	1692c <_vfiprintf_r+0x368>
   17534:	00000593          	li	a1,0
   17538:	00200613          	li	a2,2
   1753c:	00100513          	li	a0,1
   17540:	08a60263          	beq	a2,a0,175c4 <_vfiprintf_r+0x1000>
   17544:	00200513          	li	a0,2
   17548:	08a61263          	bne	a2,a0,175cc <_vfiprintf_r+0x1008>
   1754c:	00070313          	mv	t1,a4
   17550:	c49ff06f          	j	17198 <_vfiprintf_r+0xbd4>
   17554:	00600793          	li	a5,6
   17558:	0097f463          	bleu	s1,a5,17560 <_vfiprintf_r+0xf9c>
   1755c:	00078493          	mv	s1,a5
   17560:	00048a13          	mv	s4,s1
   17564:	00048993          	mv	s3,s1
   17568:	0604c663          	bltz	s1,175d4 <_vfiprintf_r+0x1010>
   1756c:	00019737          	lui	a4,0x19
   17570:	01b13423          	sd	s11,8(sp)
   17574:	27870b93          	addi	s7,a4,632 # 19278 <zeroes.4137+0x68>
   17578:	00000493          	li	s1,0
   1757c:	b28ff06f          	j	168a4 <_vfiprintf_r+0x2e0>
   17580:	00030713          	mv	a4,t1
   17584:	02d00593          	li	a1,45
   17588:	00100613          	li	a2,1
   1758c:	fb1ff06f          	j	1753c <_vfiprintf_r+0xf78>
   17590:	07812583          	lw	a1,120(sp)
   17594:	05813823          	sd	s8,80(sp)
   17598:	0015859b          	addiw	a1,a1,1
   1759c:	a29ff06f          	j	16fc4 <_vfiprintf_r+0xa00>
   175a0:	00019737          	lui	a4,0x19
   175a4:	00058513          	mv	a0,a1
   175a8:	21070d93          	addi	s11,a4,528 # 19210 <zeroes.4137>
   175ac:	c60ff06f          	j	16a0c <_vfiprintf_r+0x448>
   175b0:	00048a13          	mv	s4,s1
   175b4:	06714583          	lbu	a1,103(sp)
   175b8:	01b13423          	sd	s11,8(sp)
   175bc:	00000493          	li	s1,0
   175c0:	ad0ff06f          	j	16890 <_vfiprintf_r+0x2cc>
   175c4:	00070313          	mv	t1,a4
   175c8:	d44ff06f          	j	16b0c <_vfiprintf_r+0x548>
   175cc:	00070313          	mv	t1,a4
   175d0:	da8ff06f          	j	16b78 <_vfiprintf_r+0x5b4>
   175d4:	00000993          	li	s3,0
   175d8:	f95ff06f          	j	1756c <_vfiprintf_r+0xfa8>
   175dc:	00813783          	ld	a5,8(sp)
   175e0:	00080b13          	mv	s6,a6
   175e4:	0007a483          	lw	s1,0(a5)
   175e8:	00878b93          	addi	s7,a5,8
   175ec:	01713423          	sd	s7,8(sp)
   175f0:	9804de63          	bgez	s1,1678c <_vfiprintf_r+0x1c8>
   175f4:	fff00493          	li	s1,-1
   175f8:	000b0813          	mv	a6,s6
   175fc:	954ff06f          	j	16750 <_vfiprintf_r+0x18c>
   17600:	07d103a3          	sb	t4,103(sp)
   17604:	f44ff06f          	j	16d48 <_vfiprintf_r+0x784>
   17608:	07d103a3          	sb	t4,103(sp)
   1760c:	ee0ff06f          	j	16cec <_vfiprintf_r+0x728>
   17610:	07d103a3          	sb	t4,103(sp)
   17614:	fb0ff06f          	j	16dc4 <_vfiprintf_r+0x800>
   17618:	00137793          	andi	a5,t1,1
   1761c:	00078c63          	beqz	a5,17634 <_vfiprintf_r+0x1070>
   17620:	03000793          	li	a5,48
   17624:	0af107a3          	sb	a5,175(sp)
   17628:	05c12a03          	lw	s4,92(sp)
   1762c:	0af10b93          	addi	s7,sp,175
   17630:	a60ff06f          	j	16890 <_vfiprintf_r+0x2cc>
   17634:	00000a13          	li	s4,0
   17638:	000c8b93          	mv	s7,s9
   1763c:	a54ff06f          	j	16890 <_vfiprintf_r+0x2cc>
   17640:	07d103a3          	sb	t4,103(sp)
   17644:	cfcff06f          	j	16b40 <_vfiprintf_r+0x57c>
   17648:	07d103a3          	sb	t4,103(sp)
   1764c:	c90ff06f          	j	16adc <_vfiprintf_r+0x518>
   17650:	07d103a3          	sb	t4,103(sp)
   17654:	d94ff06f          	j	16be8 <_vfiprintf_r+0x624>
   17658:	07d103a3          	sb	t4,103(sp)
   1765c:	d64ff06f          	j	16bc0 <_vfiprintf_r+0x5fc>

0000000000017660 <vfiprintf>:
   17660:	00060693          	mv	a3,a2
   17664:	00058613          	mv	a2,a1
   17668:	00050593          	mv	a1,a0
   1766c:	8101b503          	ld	a0,-2032(gp) # 1b320 <_impure_ptr>
   17670:	f55fe06f          	j	165c4 <_vfiprintf_r>

0000000000017674 <__sbprintf>:
   17674:	0105d783          	lhu	a5,16(a1)
   17678:	0ac5ae03          	lw	t3,172(a1)
   1767c:	0125d303          	lhu	t1,18(a1)
   17680:	0305b883          	ld	a7,48(a1)
   17684:	0405b803          	ld	a6,64(a1)
   17688:	b3010113          	addi	sp,sp,-1232
   1768c:	ffd7f793          	andi	a5,a5,-3
   17690:	40000713          	li	a4,1024
   17694:	4c813023          	sd	s0,1216(sp)
   17698:	00f11823          	sh	a5,16(sp)
   1769c:	00058413          	mv	s0,a1
   176a0:	0b010793          	addi	a5,sp,176
   176a4:	00010593          	mv	a1,sp
   176a8:	4a913c23          	sd	s1,1208(sp)
   176ac:	4b213823          	sd	s2,1200(sp)
   176b0:	4c113423          	sd	ra,1224(sp)
   176b4:	00050913          	mv	s2,a0
   176b8:	0bc12623          	sw	t3,172(sp)
   176bc:	00611923          	sh	t1,18(sp)
   176c0:	03113823          	sd	a7,48(sp)
   176c4:	05013023          	sd	a6,64(sp)
   176c8:	00f13023          	sd	a5,0(sp)
   176cc:	00f13c23          	sd	a5,24(sp)
   176d0:	00e12623          	sw	a4,12(sp)
   176d4:	02e12023          	sw	a4,32(sp)
   176d8:	02012423          	sw	zero,40(sp)
   176dc:	ee9fe0ef          	jal	165c4 <_vfiprintf_r>
   176e0:	00050493          	mv	s1,a0
   176e4:	00054a63          	bltz	a0,176f8 <__sbprintf+0x84>
   176e8:	00010593          	mv	a1,sp
   176ec:	00090513          	mv	a0,s2
   176f0:	b54fc0ef          	jal	13a44 <_fflush_r>
   176f4:	02051c63          	bnez	a0,1772c <__sbprintf+0xb8>
   176f8:	01015783          	lhu	a5,16(sp)
   176fc:	0407f793          	andi	a5,a5,64
   17700:	00078863          	beqz	a5,17710 <__sbprintf+0x9c>
   17704:	01045783          	lhu	a5,16(s0)
   17708:	0407e793          	ori	a5,a5,64
   1770c:	00f41823          	sh	a5,16(s0)
   17710:	4c813083          	ld	ra,1224(sp)
   17714:	00048513          	mv	a0,s1
   17718:	4c013403          	ld	s0,1216(sp)
   1771c:	4b813483          	ld	s1,1208(sp)
   17720:	4b013903          	ld	s2,1200(sp)
   17724:	4d010113          	addi	sp,sp,1232
   17728:	00008067          	ret
   1772c:	fff00493          	li	s1,-1
   17730:	fc9ff06f          	j	176f8 <__sbprintf+0x84>

0000000000017734 <_calloc_r>:
   17734:	02c585b3          	mul	a1,a1,a2
   17738:	ff010113          	addi	sp,sp,-16
   1773c:	00113423          	sd	ra,8(sp)
   17740:	00813023          	sd	s0,0(sp)
   17744:	ef9fc0ef          	jal	1463c <_malloc_r>
   17748:	08050c63          	beqz	a0,177e0 <_calloc_r+0xac>
   1774c:	ff853603          	ld	a2,-8(a0)
   17750:	04800713          	li	a4,72
   17754:	00050413          	mv	s0,a0
   17758:	ffc67613          	andi	a2,a2,-4
   1775c:	ff860613          	addi	a2,a2,-8
   17760:	04c76e63          	bltu	a4,a2,177bc <_calloc_r+0x88>
   17764:	02700693          	li	a3,39
   17768:	00050793          	mv	a5,a0
   1776c:	02c6f863          	bleu	a2,a3,1779c <_calloc_r+0x68>
   17770:	00053023          	sd	zero,0(a0)
   17774:	00053423          	sd	zero,8(a0)
   17778:	03700793          	li	a5,55
   1777c:	04c7fe63          	bleu	a2,a5,177d8 <_calloc_r+0xa4>
   17780:	00053823          	sd	zero,16(a0)
   17784:	00053c23          	sd	zero,24(a0)
   17788:	02050793          	addi	a5,a0,32
   1778c:	00e61863          	bne	a2,a4,1779c <_calloc_r+0x68>
   17790:	02053023          	sd	zero,32(a0)
   17794:	03050793          	addi	a5,a0,48
   17798:	02053423          	sd	zero,40(a0)
   1779c:	0007b023          	sd	zero,0(a5)
   177a0:	0007b423          	sd	zero,8(a5)
   177a4:	0007b823          	sd	zero,16(a5)
   177a8:	00040513          	mv	a0,s0
   177ac:	00813083          	ld	ra,8(sp)
   177b0:	00013403          	ld	s0,0(sp)
   177b4:	01010113          	addi	sp,sp,16
   177b8:	00008067          	ret
   177bc:	00000593          	li	a1,0
   177c0:	ff4fd0ef          	jal	14fb4 <memset>
   177c4:	00813083          	ld	ra,8(sp)
   177c8:	00040513          	mv	a0,s0
   177cc:	00013403          	ld	s0,0(sp)
   177d0:	01010113          	addi	sp,sp,16
   177d4:	00008067          	ret
   177d8:	01050793          	addi	a5,a0,16
   177dc:	fc1ff06f          	j	1779c <_calloc_r+0x68>
   177e0:	00000513          	li	a0,0
   177e4:	fc9ff06f          	j	177ac <_calloc_r+0x78>

00000000000177e8 <_fclose_r>:
   177e8:	0e058e63          	beqz	a1,178e4 <_fclose_r+0xfc>
   177ec:	fe010113          	addi	sp,sp,-32
   177f0:	00813823          	sd	s0,16(sp)
   177f4:	00913423          	sd	s1,8(sp)
   177f8:	00113c23          	sd	ra,24(sp)
   177fc:	01213023          	sd	s2,0(sp)
   17800:	00050493          	mv	s1,a0
   17804:	00058413          	mv	s0,a1
   17808:	00050663          	beqz	a0,17814 <_fclose_r+0x2c>
   1780c:	05052783          	lw	a5,80(a0)
   17810:	0a078a63          	beqz	a5,178c4 <_fclose_r+0xdc>
   17814:	01041783          	lh	a5,16(s0)
   17818:	00000513          	li	a0,0
   1781c:	00079e63          	bnez	a5,17838 <_fclose_r+0x50>
   17820:	01813083          	ld	ra,24(sp)
   17824:	01013403          	ld	s0,16(sp)
   17828:	00813483          	ld	s1,8(sp)
   1782c:	00013903          	ld	s2,0(sp)
   17830:	02010113          	addi	sp,sp,32
   17834:	00008067          	ret
   17838:	00040593          	mv	a1,s0
   1783c:	00048513          	mv	a0,s1
   17840:	f99fb0ef          	jal	137d8 <__sflush_r>
   17844:	05043783          	ld	a5,80(s0)
   17848:	00050913          	mv	s2,a0
   1784c:	00078a63          	beqz	a5,17860 <_fclose_r+0x78>
   17850:	03043583          	ld	a1,48(s0)
   17854:	00048513          	mv	a0,s1
   17858:	000780e7          	jalr	a5
   1785c:	06054863          	bltz	a0,178cc <_fclose_r+0xe4>
   17860:	01045783          	lhu	a5,16(s0)
   17864:	0807f793          	andi	a5,a5,128
   17868:	06079663          	bnez	a5,178d4 <_fclose_r+0xec>
   1786c:	05843583          	ld	a1,88(s0)
   17870:	00058c63          	beqz	a1,17888 <_fclose_r+0xa0>
   17874:	07440793          	addi	a5,s0,116
   17878:	00f58663          	beq	a1,a5,17884 <_fclose_r+0x9c>
   1787c:	00048513          	mv	a0,s1
   17880:	ec8fc0ef          	jal	13f48 <_free_r>
   17884:	04043c23          	sd	zero,88(s0)
   17888:	07843583          	ld	a1,120(s0)
   1788c:	00058863          	beqz	a1,1789c <_fclose_r+0xb4>
   17890:	00048513          	mv	a0,s1
   17894:	eb4fc0ef          	jal	13f48 <_free_r>
   17898:	06043c23          	sd	zero,120(s0)
   1789c:	d64fc0ef          	jal	13e00 <__sfp_lock_acquire>
   178a0:	00041823          	sh	zero,16(s0)
   178a4:	d60fc0ef          	jal	13e04 <__sfp_lock_release>
   178a8:	01813083          	ld	ra,24(sp)
   178ac:	00090513          	mv	a0,s2
   178b0:	01013403          	ld	s0,16(sp)
   178b4:	00813483          	ld	s1,8(sp)
   178b8:	00013903          	ld	s2,0(sp)
   178bc:	02010113          	addi	sp,sp,32
   178c0:	00008067          	ret
   178c4:	d2cfc0ef          	jal	13df0 <__sinit>
   178c8:	f4dff06f          	j	17814 <_fclose_r+0x2c>
   178cc:	fff00913          	li	s2,-1
   178d0:	f91ff06f          	j	17860 <_fclose_r+0x78>
   178d4:	01843583          	ld	a1,24(s0)
   178d8:	00048513          	mv	a0,s1
   178dc:	e6cfc0ef          	jal	13f48 <_free_r>
   178e0:	f8dff06f          	j	1786c <_fclose_r+0x84>
   178e4:	00000513          	li	a0,0
   178e8:	00008067          	ret

00000000000178ec <fclose>:
   178ec:	00050593          	mv	a1,a0
   178f0:	8101b503          	ld	a0,-2032(gp) # 1b320 <_impure_ptr>
   178f4:	ef5ff06f          	j	177e8 <_fclose_r>

00000000000178f8 <__fputwc>:
   178f8:	fb010113          	addi	sp,sp,-80
   178fc:	04813023          	sd	s0,64(sp)
   17900:	03413023          	sd	s4,32(sp)
   17904:	01513c23          	sd	s5,24(sp)
   17908:	04113423          	sd	ra,72(sp)
   1790c:	02913c23          	sd	s1,56(sp)
   17910:	03213823          	sd	s2,48(sp)
   17914:	03313423          	sd	s3,40(sp)
   17918:	01613823          	sd	s6,16(sp)
   1791c:	00050a93          	mv	s5,a0
   17920:	00058a13          	mv	s4,a1
   17924:	00060413          	mv	s0,a2
   17928:	b25fc0ef          	jal	1444c <__locale_mb_cur_max>
   1792c:	00100793          	li	a5,1
   17930:	10f50663          	beq	a0,a5,17a3c <__fputwc+0x144>
   17934:	00810493          	addi	s1,sp,8
   17938:	0a440693          	addi	a3,s0,164
   1793c:	000a0613          	mv	a2,s4
   17940:	00048593          	mv	a1,s1
   17944:	000a8513          	mv	a0,s5
   17948:	699000ef          	jal	187e0 <_wcrtomb_r>
   1794c:	fff00793          	li	a5,-1
   17950:	00050993          	mv	s3,a0
   17954:	08f50e63          	beq	a0,a5,179f0 <__fputwc+0xf8>
   17958:	10050263          	beqz	a0,17a5c <__fputwc+0x164>
   1795c:	00814583          	lbu	a1,8(sp)
   17960:	00c42783          	lw	a5,12(s0)
   17964:	00000913          	li	s2,0
   17968:	00a00b13          	li	s6,10
   1796c:	fff7879b          	addiw	a5,a5,-1
   17970:	00f42623          	sw	a5,12(s0)
   17974:	0207cc63          	bltz	a5,179ac <__fputwc+0xb4>
   17978:	00043783          	ld	a5,0(s0)
   1797c:	00b78023          	sb	a1,0(a5)
   17980:	00043783          	ld	a5,0(s0)
   17984:	00178793          	addi	a5,a5,1
   17988:	00f43023          	sd	a5,0(s0)
   1798c:	00190913          	addi	s2,s2,1
   17990:	00148493          	addi	s1,s1,1
   17994:	0d397463          	bleu	s3,s2,17a5c <__fputwc+0x164>
   17998:	00c42783          	lw	a5,12(s0)
   1799c:	0004c583          	lbu	a1,0(s1)
   179a0:	fff7879b          	addiw	a5,a5,-1
   179a4:	00f42623          	sw	a5,12(s0)
   179a8:	fc07d8e3          	bgez	a5,17978 <__fputwc+0x80>
   179ac:	02842703          	lw	a4,40(s0)
   179b0:	06e7ca63          	blt	a5,a4,17a24 <__fputwc+0x12c>
   179b4:	00043783          	ld	a5,0(s0)
   179b8:	00b78023          	sb	a1,0(a5)
   179bc:	00043783          	ld	a5,0(s0)
   179c0:	0007c703          	lbu	a4,0(a5)
   179c4:	00178793          	addi	a5,a5,1
   179c8:	fd6710e3          	bne	a4,s6,17988 <__fputwc+0x90>
   179cc:	00040613          	mv	a2,s0
   179d0:	000b0593          	mv	a1,s6
   179d4:	000a8513          	mv	a0,s5
   179d8:	481000ef          	jal	18658 <__swbuf_r>
   179dc:	0015051b          	addiw	a0,a0,1
   179e0:	00153513          	seqz	a0,a0
   179e4:	fa0504e3          	beqz	a0,1798c <__fputwc+0x94>
   179e8:	fff00513          	li	a0,-1
   179ec:	0100006f          	j	179fc <__fputwc+0x104>
   179f0:	01045783          	lhu	a5,16(s0)
   179f4:	0407e793          	ori	a5,a5,64
   179f8:	00f41823          	sh	a5,16(s0)
   179fc:	04813083          	ld	ra,72(sp)
   17a00:	04013403          	ld	s0,64(sp)
   17a04:	03813483          	ld	s1,56(sp)
   17a08:	03013903          	ld	s2,48(sp)
   17a0c:	02813983          	ld	s3,40(sp)
   17a10:	02013a03          	ld	s4,32(sp)
   17a14:	01813a83          	ld	s5,24(sp)
   17a18:	01013b03          	ld	s6,16(sp)
   17a1c:	05010113          	addi	sp,sp,80
   17a20:	00008067          	ret
   17a24:	00040613          	mv	a2,s0
   17a28:	000a8513          	mv	a0,s5
   17a2c:	42d000ef          	jal	18658 <__swbuf_r>
   17a30:	0015051b          	addiw	a0,a0,1
   17a34:	00153513          	seqz	a0,a0
   17a38:	fadff06f          	j	179e4 <__fputwc+0xec>
   17a3c:	fffa079b          	addiw	a5,s4,-1
   17a40:	0fe00713          	li	a4,254
   17a44:	eef768e3          	bltu	a4,a5,17934 <__fputwc+0x3c>
   17a48:	0ffa7593          	andi	a1,s4,255
   17a4c:	00b10423          	sb	a1,8(sp)
   17a50:	00100993          	li	s3,1
   17a54:	00810493          	addi	s1,sp,8
   17a58:	f09ff06f          	j	17960 <__fputwc+0x68>
   17a5c:	000a0513          	mv	a0,s4
   17a60:	f9dff06f          	j	179fc <__fputwc+0x104>

0000000000017a64 <_fputwc_r>:
   17a64:	01061783          	lh	a5,16(a2)
   17a68:	00002737          	lui	a4,0x2
   17a6c:	03279693          	slli	a3,a5,0x32
   17a70:	0006cc63          	bltz	a3,17a88 <_fputwc_r+0x24>
   17a74:	0ac62683          	lw	a3,172(a2)
   17a78:	00e7e7b3          	or	a5,a5,a4
   17a7c:	00f61823          	sh	a5,16(a2)
   17a80:	00e6e733          	or	a4,a3,a4
   17a84:	0ae62623          	sw	a4,172(a2)
   17a88:	e71ff06f          	j	178f8 <__fputwc>

0000000000017a8c <fputwc>:
   17a8c:	fd010113          	addi	sp,sp,-48
   17a90:	02813023          	sd	s0,32(sp)
   17a94:	8101b403          	ld	s0,-2032(gp) # 1b320 <_impure_ptr>
   17a98:	00913c23          	sd	s1,24(sp)
   17a9c:	02113423          	sd	ra,40(sp)
   17aa0:	00050493          	mv	s1,a0
   17aa4:	00058613          	mv	a2,a1
   17aa8:	00040663          	beqz	s0,17ab4 <fputwc+0x28>
   17aac:	05042783          	lw	a5,80(s0)
   17ab0:	04078263          	beqz	a5,17af4 <fputwc+0x68>
   17ab4:	01061783          	lh	a5,16(a2)
   17ab8:	00002737          	lui	a4,0x2
   17abc:	03279693          	slli	a3,a5,0x32
   17ac0:	0006cc63          	bltz	a3,17ad8 <fputwc+0x4c>
   17ac4:	0ac62683          	lw	a3,172(a2)
   17ac8:	00e7e7b3          	or	a5,a5,a4
   17acc:	00f61823          	sh	a5,16(a2)
   17ad0:	00e6e733          	or	a4,a3,a4
   17ad4:	0ae62623          	sw	a4,172(a2)
   17ad8:	00048593          	mv	a1,s1
   17adc:	00040513          	mv	a0,s0
   17ae0:	02813083          	ld	ra,40(sp)
   17ae4:	02013403          	ld	s0,32(sp)
   17ae8:	01813483          	ld	s1,24(sp)
   17aec:	03010113          	addi	sp,sp,48
   17af0:	e09ff06f          	j	178f8 <__fputwc>
   17af4:	00040513          	mv	a0,s0
   17af8:	00b13423          	sd	a1,8(sp)
   17afc:	af4fc0ef          	jal	13df0 <__sinit>
   17b00:	00813603          	ld	a2,8(sp)
   17b04:	fb1ff06f          	j	17ab4 <fputwc+0x28>

0000000000017b08 <__sfvwrite_r>:
   17b08:	01063783          	ld	a5,16(a2)
   17b0c:	26078a63          	beqz	a5,17d80 <__sfvwrite_r+0x278>
   17b10:	0105d703          	lhu	a4,16(a1)
   17b14:	f9010113          	addi	sp,sp,-112
   17b18:	06813023          	sd	s0,96(sp)
   17b1c:	03513c23          	sd	s5,56(sp)
   17b20:	03613823          	sd	s6,48(sp)
   17b24:	06113423          	sd	ra,104(sp)
   17b28:	04913c23          	sd	s1,88(sp)
   17b2c:	05213823          	sd	s2,80(sp)
   17b30:	05313423          	sd	s3,72(sp)
   17b34:	05413023          	sd	s4,64(sp)
   17b38:	03713423          	sd	s7,40(sp)
   17b3c:	03813023          	sd	s8,32(sp)
   17b40:	01913c23          	sd	s9,24(sp)
   17b44:	01a13823          	sd	s10,16(sp)
   17b48:	01b13423          	sd	s11,8(sp)
   17b4c:	00877793          	andi	a5,a4,8
   17b50:	00058413          	mv	s0,a1
   17b54:	00050b13          	mv	s6,a0
   17b58:	00060a93          	mv	s5,a2
   17b5c:	0a078863          	beqz	a5,17c0c <__sfvwrite_r+0x104>
   17b60:	0185b783          	ld	a5,24(a1)
   17b64:	0a078463          	beqz	a5,17c0c <__sfvwrite_r+0x104>
   17b68:	00277793          	andi	a5,a4,2
   17b6c:	000ab483          	ld	s1,0(s5)
   17b70:	0c078063          	beqz	a5,17c30 <__sfvwrite_r+0x128>
   17b74:	80000a37          	lui	s4,0x80000
   17b78:	00000993          	li	s3,0
   17b7c:	00000913          	li	s2,0
   17b80:	c00a4a13          	xori	s4,s4,-1024
   17b84:	00098613          	mv	a2,s3
   17b88:	000b0513          	mv	a0,s6
   17b8c:	1e090263          	beqz	s2,17d70 <__sfvwrite_r+0x268>
   17b90:	00090693          	mv	a3,s2
   17b94:	012a7463          	bleu	s2,s4,17b9c <__sfvwrite_r+0x94>
   17b98:	000a0693          	mv	a3,s4
   17b9c:	04043783          	ld	a5,64(s0)
   17ba0:	03043583          	ld	a1,48(s0)
   17ba4:	0006869b          	sext.w	a3,a3
   17ba8:	000780e7          	jalr	a5
   17bac:	22a05063          	blez	a0,17dcc <__sfvwrite_r+0x2c4>
   17bb0:	010ab783          	ld	a5,16(s5)
   17bb4:	00a989b3          	add	s3,s3,a0
   17bb8:	40a90933          	sub	s2,s2,a0
   17bbc:	40a78533          	sub	a0,a5,a0
   17bc0:	00aab823          	sd	a0,16(s5)
   17bc4:	fc0510e3          	bnez	a0,17b84 <__sfvwrite_r+0x7c>
   17bc8:	00000793          	li	a5,0
   17bcc:	06813083          	ld	ra,104(sp)
   17bd0:	00078513          	mv	a0,a5
   17bd4:	06013403          	ld	s0,96(sp)
   17bd8:	05813483          	ld	s1,88(sp)
   17bdc:	05013903          	ld	s2,80(sp)
   17be0:	04813983          	ld	s3,72(sp)
   17be4:	04013a03          	ld	s4,64(sp)
   17be8:	03813a83          	ld	s5,56(sp)
   17bec:	03013b03          	ld	s6,48(sp)
   17bf0:	02813b83          	ld	s7,40(sp)
   17bf4:	02013c03          	ld	s8,32(sp)
   17bf8:	01813c83          	ld	s9,24(sp)
   17bfc:	01013d03          	ld	s10,16(sp)
   17c00:	00813d83          	ld	s11,8(sp)
   17c04:	07010113          	addi	sp,sp,112
   17c08:	00008067          	ret
   17c0c:	00040593          	mv	a1,s0
   17c10:	000b0513          	mv	a0,s6
   17c14:	cd0fa0ef          	jal	120e4 <__swsetup_r>
   17c18:	fff00793          	li	a5,-1
   17c1c:	fa0518e3          	bnez	a0,17bcc <__sfvwrite_r+0xc4>
   17c20:	01045703          	lhu	a4,16(s0)
   17c24:	000ab483          	ld	s1,0(s5)
   17c28:	00277793          	andi	a5,a4,2
   17c2c:	f40794e3          	bnez	a5,17b74 <__sfvwrite_r+0x6c>
   17c30:	00177793          	andi	a5,a4,1
   17c34:	1a079663          	bnez	a5,17de0 <__sfvwrite_r+0x2d8>
   17c38:	80000bb7          	lui	s7,0x80000
   17c3c:	ffebcc13          	xori	s8,s7,-2
   17c40:	00000c93          	li	s9,0
   17c44:	00000913          	li	s2,0
   17c48:	fffbcb93          	not	s7,s7
   17c4c:	10090a63          	beqz	s2,17d60 <__sfvwrite_r+0x258>
   17c50:	00c42983          	lw	s3,12(s0)
   17c54:	20077793          	andi	a5,a4,512
   17c58:	00098a13          	mv	s4,s3
   17c5c:	26078863          	beqz	a5,17ecc <__sfvwrite_r+0x3c4>
   17c60:	2b396a63          	bltu	s2,s3,17f14 <__sfvwrite_r+0x40c>
   17c64:	48077793          	andi	a5,a4,1152
   17c68:	2a078663          	beqz	a5,17f14 <__sfvwrite_r+0x40c>
   17c6c:	02042a03          	lw	s4,32(s0)
   17c70:	01843583          	ld	a1,24(s0)
   17c74:	00043d03          	ld	s10,0(s0)
   17c78:	001a179b          	slliw	a5,s4,0x1
   17c7c:	01478a3b          	addw	s4,a5,s4
   17c80:	01fa579b          	srliw	a5,s4,0x1f
   17c84:	40bd0d3b          	subw	s10,s10,a1
   17c88:	01478a3b          	addw	s4,a5,s4
   17c8c:	000d0993          	mv	s3,s10
   17c90:	401a5a1b          	sraiw	s4,s4,0x1
   17c94:	00198793          	addi	a5,s3,1
   17c98:	000a0613          	mv	a2,s4
   17c9c:	012787b3          	add	a5,a5,s2
   17ca0:	00f67863          	bleu	a5,a2,17cb0 <__sfvwrite_r+0x1a8>
   17ca4:	001d0a1b          	addiw	s4,s10,1
   17ca8:	01490a3b          	addw	s4,s2,s4
   17cac:	000a0613          	mv	a2,s4
   17cb0:	40077713          	andi	a4,a4,1024
   17cb4:	2a070a63          	beqz	a4,17f68 <__sfvwrite_r+0x460>
   17cb8:	00060593          	mv	a1,a2
   17cbc:	000b0513          	mv	a0,s6
   17cc0:	97dfc0ef          	jal	1463c <_malloc_r>
   17cc4:	00050d93          	mv	s11,a0
   17cc8:	2e050263          	beqz	a0,17fac <__sfvwrite_r+0x4a4>
   17ccc:	01843583          	ld	a1,24(s0)
   17cd0:	00098613          	mv	a2,s3
   17cd4:	9c0fd0ef          	jal	14e94 <memcpy>
   17cd8:	01045783          	lhu	a5,16(s0)
   17cdc:	b7f7f793          	andi	a5,a5,-1153
   17ce0:	0807e793          	ori	a5,a5,128
   17ce4:	00f41823          	sh	a5,16(s0)
   17ce8:	41aa0d3b          	subw	s10,s4,s10
   17cec:	013d8533          	add	a0,s11,s3
   17cf0:	03442023          	sw	s4,32(s0)
   17cf4:	01b43c23          	sd	s11,24(s0)
   17cf8:	00a43023          	sd	a0,0(s0)
   17cfc:	00090a13          	mv	s4,s2
   17d00:	01a42623          	sw	s10,12(s0)
   17d04:	000a0d13          	mv	s10,s4
   17d08:	00090993          	mv	s3,s2
   17d0c:	01497863          	bleu	s4,s2,17d1c <__sfvwrite_r+0x214>
   17d10:	00090d13          	mv	s10,s2
   17d14:	00090993          	mv	s3,s2
   17d18:	00090a13          	mv	s4,s2
   17d1c:	000d0613          	mv	a2,s10
   17d20:	000c8593          	mv	a1,s9
   17d24:	298000ef          	jal	17fbc <memmove>
   17d28:	00c42783          	lw	a5,12(s0)
   17d2c:	00043603          	ld	a2,0(s0)
   17d30:	41478a3b          	subw	s4,a5,s4
   17d34:	01a60633          	add	a2,a2,s10
   17d38:	01442623          	sw	s4,12(s0)
   17d3c:	00c43023          	sd	a2,0(s0)
   17d40:	010ab503          	ld	a0,16(s5)
   17d44:	013c8cb3          	add	s9,s9,s3
   17d48:	41390933          	sub	s2,s2,s3
   17d4c:	413509b3          	sub	s3,a0,s3
   17d50:	013ab823          	sd	s3,16(s5)
   17d54:	e6098ae3          	beqz	s3,17bc8 <__sfvwrite_r+0xc0>
   17d58:	01045703          	lhu	a4,16(s0)
   17d5c:	ee091ae3          	bnez	s2,17c50 <__sfvwrite_r+0x148>
   17d60:	0004bc83          	ld	s9,0(s1)
   17d64:	0084b903          	ld	s2,8(s1)
   17d68:	01048493          	addi	s1,s1,16
   17d6c:	ee1ff06f          	j	17c4c <__sfvwrite_r+0x144>
   17d70:	0004b983          	ld	s3,0(s1)
   17d74:	0084b903          	ld	s2,8(s1)
   17d78:	01048493          	addi	s1,s1,16
   17d7c:	e09ff06f          	j	17b84 <__sfvwrite_r+0x7c>
   17d80:	00000793          	li	a5,0
   17d84:	00078513          	mv	a0,a5
   17d88:	00008067          	ret
   17d8c:	01397463          	bleu	s3,s2,17d94 <__sfvwrite_r+0x28c>
   17d90:	00090993          	mv	s3,s2
   17d94:	00098613          	mv	a2,s3
   17d98:	000c8593          	mv	a1,s9
   17d9c:	220000ef          	jal	17fbc <memmove>
   17da0:	00c42783          	lw	a5,12(s0)
   17da4:	00043703          	ld	a4,0(s0)
   17da8:	413787bb          	subw	a5,a5,s3
   17dac:	01370733          	add	a4,a4,s3
   17db0:	00f42623          	sw	a5,12(s0)
   17db4:	00e43023          	sd	a4,0(s0)
   17db8:	f80794e3          	bnez	a5,17d40 <__sfvwrite_r+0x238>
   17dbc:	00040593          	mv	a1,s0
   17dc0:	000b0513          	mv	a0,s6
   17dc4:	c81fb0ef          	jal	13a44 <_fflush_r>
   17dc8:	f6050ce3          	beqz	a0,17d40 <__sfvwrite_r+0x238>
   17dcc:	01041783          	lh	a5,16(s0)
   17dd0:	0407e793          	ori	a5,a5,64
   17dd4:	00f41823          	sh	a5,16(s0)
   17dd8:	fff00793          	li	a5,-1
   17ddc:	df1ff06f          	j	17bcc <__sfvwrite_r+0xc4>
   17de0:	00000a13          	li	s4,0
   17de4:	00000c13          	li	s8,0
   17de8:	00000d13          	li	s10,0
   17dec:	00000913          	li	s2,0
   17df0:	06090e63          	beqz	s2,17e6c <__sfvwrite_r+0x364>
   17df4:	140c0863          	beqz	s8,17f44 <__sfvwrite_r+0x43c>
   17df8:	000a0993          	mv	s3,s4
   17dfc:	01497463          	bleu	s4,s2,17e04 <__sfvwrite_r+0x2fc>
   17e00:	00090993          	mv	s3,s2
   17e04:	00043503          	ld	a0,0(s0)
   17e08:	01843783          	ld	a5,24(s0)
   17e0c:	00098b93          	mv	s7,s3
   17e10:	02042683          	lw	a3,32(s0)
   17e14:	00a7fa63          	bleu	a0,a5,17e28 <__sfvwrite_r+0x320>
   17e18:	00c42c83          	lw	s9,12(s0)
   17e1c:	01968cbb          	addw	s9,a3,s9
   17e20:	000c8d93          	mv	s11,s9
   17e24:	053dce63          	blt	s11,s3,17e80 <__sfvwrite_r+0x378>
   17e28:	0ed9ca63          	blt	s3,a3,17f1c <__sfvwrite_r+0x414>
   17e2c:	04043783          	ld	a5,64(s0)
   17e30:	03043583          	ld	a1,48(s0)
   17e34:	000d0613          	mv	a2,s10
   17e38:	000b0513          	mv	a0,s6
   17e3c:	000780e7          	jalr	a5
   17e40:	00050b93          	mv	s7,a0
   17e44:	f8a054e3          	blez	a0,17dcc <__sfvwrite_r+0x2c4>
   17e48:	417a0a3b          	subw	s4,s4,s7
   17e4c:	060a0463          	beqz	s4,17eb4 <__sfvwrite_r+0x3ac>
   17e50:	010ab783          	ld	a5,16(s5)
   17e54:	017d0d33          	add	s10,s10,s7
   17e58:	41790933          	sub	s2,s2,s7
   17e5c:	41778bb3          	sub	s7,a5,s7
   17e60:	017ab823          	sd	s7,16(s5)
   17e64:	d60b82e3          	beqz	s7,17bc8 <__sfvwrite_r+0xc0>
   17e68:	f80916e3          	bnez	s2,17df4 <__sfvwrite_r+0x2ec>
   17e6c:	0004bd03          	ld	s10,0(s1)
   17e70:	0084b903          	ld	s2,8(s1)
   17e74:	00000c13          	li	s8,0
   17e78:	01048493          	addi	s1,s1,16
   17e7c:	f75ff06f          	j	17df0 <__sfvwrite_r+0x2e8>
   17e80:	000d0593          	mv	a1,s10
   17e84:	000c8613          	mv	a2,s9
   17e88:	134000ef          	jal	17fbc <memmove>
   17e8c:	00043783          	ld	a5,0(s0)
   17e90:	00040593          	mv	a1,s0
   17e94:	000b0513          	mv	a0,s6
   17e98:	01b78db3          	add	s11,a5,s11
   17e9c:	01b43023          	sd	s11,0(s0)
   17ea0:	ba5fb0ef          	jal	13a44 <_fflush_r>
   17ea4:	f20514e3          	bnez	a0,17dcc <__sfvwrite_r+0x2c4>
   17ea8:	000c8b93          	mv	s7,s9
   17eac:	417a0a3b          	subw	s4,s4,s7
   17eb0:	fa0a10e3          	bnez	s4,17e50 <__sfvwrite_r+0x348>
   17eb4:	00040593          	mv	a1,s0
   17eb8:	000b0513          	mv	a0,s6
   17ebc:	b89fb0ef          	jal	13a44 <_fflush_r>
   17ec0:	f00516e3          	bnez	a0,17dcc <__sfvwrite_r+0x2c4>
   17ec4:	00000c13          	li	s8,0
   17ec8:	f89ff06f          	j	17e50 <__sfvwrite_r+0x348>
   17ecc:	00043503          	ld	a0,0(s0)
   17ed0:	01843783          	ld	a5,24(s0)
   17ed4:	eaa7ece3          	bltu	a5,a0,17d8c <__sfvwrite_r+0x284>
   17ed8:	02042783          	lw	a5,32(s0)
   17edc:	eaf968e3          	bltu	s2,a5,17d8c <__sfvwrite_r+0x284>
   17ee0:	000b8693          	mv	a3,s7
   17ee4:	012c6463          	bltu	s8,s2,17eec <__sfvwrite_r+0x3e4>
   17ee8:	0009069b          	sext.w	a3,s2
   17eec:	02f6c6bb          	divw	a3,a3,a5
   17ef0:	04043703          	ld	a4,64(s0)
   17ef4:	03043583          	ld	a1,48(s0)
   17ef8:	000c8613          	mv	a2,s9
   17efc:	000b0513          	mv	a0,s6
   17f00:	02f686bb          	mulw	a3,a3,a5
   17f04:	000700e7          	jalr	a4
   17f08:	eca052e3          	blez	a0,17dcc <__sfvwrite_r+0x2c4>
   17f0c:	00050993          	mv	s3,a0
   17f10:	e31ff06f          	j	17d40 <__sfvwrite_r+0x238>
   17f14:	00043503          	ld	a0,0(s0)
   17f18:	dedff06f          	j	17d04 <__sfvwrite_r+0x1fc>
   17f1c:	00098613          	mv	a2,s3
   17f20:	000d0593          	mv	a1,s10
   17f24:	098000ef          	jal	17fbc <memmove>
   17f28:	00c42703          	lw	a4,12(s0)
   17f2c:	00043783          	ld	a5,0(s0)
   17f30:	4137073b          	subw	a4,a4,s3
   17f34:	013789b3          	add	s3,a5,s3
   17f38:	00e42623          	sw	a4,12(s0)
   17f3c:	01343023          	sd	s3,0(s0)
   17f40:	f09ff06f          	j	17e48 <__sfvwrite_r+0x340>
   17f44:	00090613          	mv	a2,s2
   17f48:	00a00593          	li	a1,10
   17f4c:	000d0513          	mv	a0,s10
   17f50:	e5dfc0ef          	jal	14dac <memchr>
   17f54:	04050663          	beqz	a0,17fa0 <__sfvwrite_r+0x498>
   17f58:	00150a13          	addi	s4,a0,1
   17f5c:	41aa0a3b          	subw	s4,s4,s10
   17f60:	00100c13          	li	s8,1
   17f64:	e95ff06f          	j	17df8 <__sfvwrite_r+0x2f0>
   17f68:	000b0513          	mv	a0,s6
   17f6c:	170000ef          	jal	180dc <_realloc_r>
   17f70:	00050d93          	mv	s11,a0
   17f74:	d6051ae3          	bnez	a0,17ce8 <__sfvwrite_r+0x1e0>
   17f78:	01843583          	ld	a1,24(s0)
   17f7c:	000b0513          	mv	a0,s6
   17f80:	fc9fb0ef          	jal	13f48 <_free_r>
   17f84:	01045783          	lhu	a5,16(s0)
   17f88:	00c00713          	li	a4,12
   17f8c:	00eb2023          	sw	a4,0(s6)
   17f90:	f7f7f793          	andi	a5,a5,-129
   17f94:	0107979b          	slliw	a5,a5,0x10
   17f98:	4107d79b          	sraiw	a5,a5,0x10
   17f9c:	e35ff06f          	j	17dd0 <__sfvwrite_r+0x2c8>
   17fa0:	00190a1b          	addiw	s4,s2,1
   17fa4:	00100c13          	li	s8,1
   17fa8:	e51ff06f          	j	17df8 <__sfvwrite_r+0x2f0>
   17fac:	00c00793          	li	a5,12
   17fb0:	00fb2023          	sw	a5,0(s6)
   17fb4:	01041783          	lh	a5,16(s0)
   17fb8:	e19ff06f          	j	17dd0 <__sfvwrite_r+0x2c8>

0000000000017fbc <memmove>:
   17fbc:	02a5f863          	bleu	a0,a1,17fec <memmove+0x30>
   17fc0:	00c58733          	add	a4,a1,a2
   17fc4:	02e57463          	bleu	a4,a0,17fec <memmove+0x30>
   17fc8:	00c507b3          	add	a5,a0,a2
   17fcc:	40c785b3          	sub	a1,a5,a2
   17fd0:	0e060263          	beqz	a2,180b4 <memmove+0xf8>
   17fd4:	fff70713          	addi	a4,a4,-1 # 1fff <_ftext-0xe001>
   17fd8:	00074683          	lbu	a3,0(a4)
   17fdc:	fff78793          	addi	a5,a5,-1
   17fe0:	00d78023          	sb	a3,0(a5)
   17fe4:	fef598e3          	bne	a1,a5,17fd4 <memmove+0x18>
   17fe8:	00008067          	ret
   17fec:	01f00893          	li	a7,31
   17ff0:	0cc8f463          	bleu	a2,a7,180b8 <memmove+0xfc>
   17ff4:	00a5e7b3          	or	a5,a1,a0
   17ff8:	0077f793          	andi	a5,a5,7
   17ffc:	0c079463          	bnez	a5,180c4 <memmove+0x108>
   18000:	00058713          	mv	a4,a1
   18004:	00050793          	mv	a5,a0
   18008:	00060693          	mv	a3,a2
   1800c:	00073803          	ld	a6,0(a4)
   18010:	02078793          	addi	a5,a5,32
   18014:	02070713          	addi	a4,a4,32
   18018:	ff07b023          	sd	a6,-32(a5)
   1801c:	fe873803          	ld	a6,-24(a4)
   18020:	fe068693          	addi	a3,a3,-32
   18024:	ff07b423          	sd	a6,-24(a5)
   18028:	ff073803          	ld	a6,-16(a4)
   1802c:	ff07b823          	sd	a6,-16(a5)
   18030:	ff873803          	ld	a6,-8(a4)
   18034:	ff07bc23          	sd	a6,-8(a5)
   18038:	fcd8eae3          	bltu	a7,a3,1800c <memmove+0x50>
   1803c:	fe060713          	addi	a4,a2,-32
   18040:	fe077713          	andi	a4,a4,-32
   18044:	02070713          	addi	a4,a4,32
   18048:	01f67e13          	andi	t3,a2,31
   1804c:	00700313          	li	t1,7
   18050:	00e507b3          	add	a5,a0,a4
   18054:	00e585b3          	add	a1,a1,a4
   18058:	07c37c63          	bleu	t3,t1,180d0 <memmove+0x114>
   1805c:	00058813          	mv	a6,a1
   18060:	00078693          	mv	a3,a5
   18064:	000e0713          	mv	a4,t3
   18068:	00880813          	addi	a6,a6,8
   1806c:	ff883883          	ld	a7,-8(a6)
   18070:	00868693          	addi	a3,a3,8
   18074:	ff870713          	addi	a4,a4,-8
   18078:	ff16bc23          	sd	a7,-8(a3)
   1807c:	fee366e3          	bltu	t1,a4,18068 <memmove+0xac>
   18080:	ff8e0713          	addi	a4,t3,-8
   18084:	ff877713          	andi	a4,a4,-8
   18088:	00870713          	addi	a4,a4,8
   1808c:	00767613          	andi	a2,a2,7
   18090:	00e787b3          	add	a5,a5,a4
   18094:	00e585b3          	add	a1,a1,a4
   18098:	02060a63          	beqz	a2,180cc <memmove+0x110>
   1809c:	00c78633          	add	a2,a5,a2
   180a0:	00158593          	addi	a1,a1,1
   180a4:	fff5c703          	lbu	a4,-1(a1)
   180a8:	00178793          	addi	a5,a5,1
   180ac:	fee78fa3          	sb	a4,-1(a5)
   180b0:	fec798e3          	bne	a5,a2,180a0 <memmove+0xe4>
   180b4:	00008067          	ret
   180b8:	00050793          	mv	a5,a0
   180bc:	fe0610e3          	bnez	a2,1809c <memmove+0xe0>
   180c0:	00c0006f          	j	180cc <memmove+0x110>
   180c4:	00050793          	mv	a5,a0
   180c8:	fd5ff06f          	j	1809c <memmove+0xe0>
   180cc:	00008067          	ret
   180d0:	000e0613          	mv	a2,t3
   180d4:	fc0614e3          	bnez	a2,1809c <memmove+0xe0>
   180d8:	ff5ff06f          	j	180cc <memmove+0x110>

00000000000180dc <_realloc_r>:
   180dc:	fb010113          	addi	sp,sp,-80
   180e0:	02913c23          	sd	s1,56(sp)
   180e4:	04113423          	sd	ra,72(sp)
   180e8:	04813023          	sd	s0,64(sp)
   180ec:	03213823          	sd	s2,48(sp)
   180f0:	03313423          	sd	s3,40(sp)
   180f4:	03413023          	sd	s4,32(sp)
   180f8:	01513c23          	sd	s5,24(sp)
   180fc:	01613823          	sd	s6,16(sp)
   18100:	01713423          	sd	s7,8(sp)
   18104:	01813023          	sd	s8,0(sp)
   18108:	00060493          	mv	s1,a2
   1810c:	1c058a63          	beqz	a1,182e0 <_realloc_r+0x204>
   18110:	00058993          	mv	s3,a1
   18114:	00050913          	mv	s2,a0
   18118:	f79fc0ef          	jal	15090 <__malloc_lock>
   1811c:	ff89b783          	ld	a5,-8(s3)
   18120:	01748413          	addi	s0,s1,23
   18124:	02e00713          	li	a4,46
   18128:	ff098a93          	addi	s5,s3,-16
   1812c:	ffc7fa13          	andi	s4,a5,-4
   18130:	0c877463          	bleu	s0,a4,181f8 <_realloc_r+0x11c>
   18134:	80000737          	lui	a4,0x80000
   18138:	ff047413          	andi	s0,s0,-16
   1813c:	fff74713          	not	a4,a4
   18140:	14876a63          	bltu	a4,s0,18294 <_realloc_r+0x1b8>
   18144:	14946863          	bltu	s0,s1,18294 <_realloc_r+0x1b8>
   18148:	0a8a5c63          	ble	s0,s4,18200 <_realloc_r+0x124>
   1814c:	0001bb37          	lui	s6,0x1b
   18150:	af8b0b13          	addi	s6,s6,-1288 # 1aaf8 <__malloc_av_>
   18154:	010b3703          	ld	a4,16(s6)
   18158:	014a86b3          	add	a3,s5,s4
   1815c:	2ee68e63          	beq	a3,a4,18458 <_realloc_r+0x37c>
   18160:	0086b703          	ld	a4,8(a3)
   18164:	ffe77613          	andi	a2,a4,-2
   18168:	00c68633          	add	a2,a3,a2
   1816c:	00863603          	ld	a2,8(a2)
   18170:	00167613          	andi	a2,a2,1
   18174:	0e060c63          	beqz	a2,1826c <_realloc_r+0x190>
   18178:	0017f793          	andi	a5,a5,1
   1817c:	26078063          	beqz	a5,183dc <_realloc_r+0x300>
   18180:	00048593          	mv	a1,s1
   18184:	00090513          	mv	a0,s2
   18188:	cb4fc0ef          	jal	1463c <_malloc_r>
   1818c:	00050493          	mv	s1,a0
   18190:	48050e63          	beqz	a0,1862c <_realloc_r+0x550>
   18194:	ff89b783          	ld	a5,-8(s3)
   18198:	ff050713          	addi	a4,a0,-16
   1819c:	ffe7f793          	andi	a5,a5,-2
   181a0:	00fa87b3          	add	a5,s5,a5
   181a4:	40f70e63          	beq	a4,a5,185c0 <_realloc_r+0x4e4>
   181a8:	ff8a0613          	addi	a2,s4,-8 # ffffffff7ffffff8 <_gp+0xffffffff7ffe44e8>
   181ac:	04800793          	li	a5,72
   181b0:	3ec7e263          	bltu	a5,a2,18594 <_realloc_r+0x4b8>
   181b4:	02700713          	li	a4,39
   181b8:	36c76663          	bltu	a4,a2,18524 <_realloc_r+0x448>
   181bc:	00050793          	mv	a5,a0
   181c0:	00098713          	mv	a4,s3
   181c4:	00073683          	ld	a3,0(a4) # ffffffff80000000 <_gp+0xffffffff7ffe44f0>
   181c8:	00d7b023          	sd	a3,0(a5)
   181cc:	00873683          	ld	a3,8(a4)
   181d0:	00d7b423          	sd	a3,8(a5)
   181d4:	01073703          	ld	a4,16(a4)
   181d8:	00e7b823          	sd	a4,16(a5)
   181dc:	00098593          	mv	a1,s3
   181e0:	00090513          	mv	a0,s2
   181e4:	d65fb0ef          	jal	13f48 <_free_r>
   181e8:	00090513          	mv	a0,s2
   181ec:	ea9fc0ef          	jal	15094 <__malloc_unlock>
   181f0:	00048513          	mv	a0,s1
   181f4:	0480006f          	j	1823c <_realloc_r+0x160>
   181f8:	02000413          	li	s0,32
   181fc:	f49ff06f          	j	18144 <_realloc_r+0x68>
   18200:	00098493          	mv	s1,s3
   18204:	408a07b3          	sub	a5,s4,s0
   18208:	01f00713          	li	a4,31
   1820c:	08f76c63          	bltu	a4,a5,182a4 <_realloc_r+0x1c8>
   18210:	008ab783          	ld	a5,8(s5)
   18214:	014a8733          	add	a4,s5,s4
   18218:	0017f793          	andi	a5,a5,1
   1821c:	0147e633          	or	a2,a5,s4
   18220:	00cab423          	sd	a2,8(s5)
   18224:	00873783          	ld	a5,8(a4)
   18228:	0017e793          	ori	a5,a5,1
   1822c:	00f73423          	sd	a5,8(a4)
   18230:	00090513          	mv	a0,s2
   18234:	e61fc0ef          	jal	15094 <__malloc_unlock>
   18238:	00048513          	mv	a0,s1
   1823c:	04813083          	ld	ra,72(sp)
   18240:	04013403          	ld	s0,64(sp)
   18244:	03813483          	ld	s1,56(sp)
   18248:	03013903          	ld	s2,48(sp)
   1824c:	02813983          	ld	s3,40(sp)
   18250:	02013a03          	ld	s4,32(sp)
   18254:	01813a83          	ld	s5,24(sp)
   18258:	01013b03          	ld	s6,16(sp)
   1825c:	00813b83          	ld	s7,8(sp)
   18260:	00013c03          	ld	s8,0(sp)
   18264:	05010113          	addi	sp,sp,80
   18268:	00008067          	ret
   1826c:	ffc77713          	andi	a4,a4,-4
   18270:	01470733          	add	a4,a4,s4
   18274:	0a874063          	blt	a4,s0,18314 <_realloc_r+0x238>
   18278:	0186b783          	ld	a5,24(a3)
   1827c:	0106b683          	ld	a3,16(a3)
   18280:	00098493          	mv	s1,s3
   18284:	00070a13          	mv	s4,a4
   18288:	00f6bc23          	sd	a5,24(a3)
   1828c:	00d7b823          	sd	a3,16(a5)
   18290:	f75ff06f          	j	18204 <_realloc_r+0x128>
   18294:	00c00793          	li	a5,12
   18298:	00f92023          	sw	a5,0(s2)
   1829c:	00000513          	li	a0,0
   182a0:	f9dff06f          	j	1823c <_realloc_r+0x160>
   182a4:	008ab703          	ld	a4,8(s5)
   182a8:	008a85b3          	add	a1,s5,s0
   182ac:	0017e693          	ori	a3,a5,1
   182b0:	00177713          	andi	a4,a4,1
   182b4:	00876433          	or	s0,a4,s0
   182b8:	008ab423          	sd	s0,8(s5)
   182bc:	00d5b423          	sd	a3,8(a1)
   182c0:	00f587b3          	add	a5,a1,a5
   182c4:	0087b703          	ld	a4,8(a5)
   182c8:	01058593          	addi	a1,a1,16
   182cc:	00090513          	mv	a0,s2
   182d0:	00176713          	ori	a4,a4,1
   182d4:	00e7b423          	sd	a4,8(a5)
   182d8:	c71fb0ef          	jal	13f48 <_free_r>
   182dc:	f55ff06f          	j	18230 <_realloc_r+0x154>
   182e0:	04813083          	ld	ra,72(sp)
   182e4:	04013403          	ld	s0,64(sp)
   182e8:	03813483          	ld	s1,56(sp)
   182ec:	03013903          	ld	s2,48(sp)
   182f0:	02813983          	ld	s3,40(sp)
   182f4:	02013a03          	ld	s4,32(sp)
   182f8:	01813a83          	ld	s5,24(sp)
   182fc:	01013b03          	ld	s6,16(sp)
   18300:	00813b83          	ld	s7,8(sp)
   18304:	00013c03          	ld	s8,0(sp)
   18308:	00060593          	mv	a1,a2
   1830c:	05010113          	addi	sp,sp,80
   18310:	b2cfc06f          	j	1463c <_malloc_r>
   18314:	0017f793          	andi	a5,a5,1
   18318:	e60794e3          	bnez	a5,18180 <_realloc_r+0xa4>
   1831c:	ff09bb83          	ld	s7,-16(s3)
   18320:	417a8bb3          	sub	s7,s5,s7
   18324:	008bb783          	ld	a5,8(s7) # ffffffff80000008 <_gp+0xffffffff7ffe44f8>
   18328:	ffc7f793          	andi	a5,a5,-4
   1832c:	00f70b33          	add	s6,a4,a5
   18330:	0a8b4e63          	blt	s6,s0,183ec <_realloc_r+0x310>
   18334:	0186b783          	ld	a5,24(a3)
   18338:	0106b703          	ld	a4,16(a3)
   1833c:	ff8a0613          	addi	a2,s4,-8
   18340:	010b8493          	addi	s1,s7,16
   18344:	00f73c23          	sd	a5,24(a4)
   18348:	00e7b823          	sd	a4,16(a5)
   1834c:	010bb703          	ld	a4,16(s7)
   18350:	018bb783          	ld	a5,24(s7)
   18354:	00f73c23          	sd	a5,24(a4)
   18358:	00e7b823          	sd	a4,16(a5)
   1835c:	04800793          	li	a5,72
   18360:	1ec7e463          	bltu	a5,a2,18548 <_realloc_r+0x46c>
   18364:	02700713          	li	a4,39
   18368:	00048793          	mv	a5,s1
   1836c:	04c77663          	bleu	a2,a4,183b8 <_realloc_r+0x2dc>
   18370:	0009b783          	ld	a5,0(s3)
   18374:	00fbb823          	sd	a5,16(s7)
   18378:	0089b783          	ld	a5,8(s3)
   1837c:	00fbbc23          	sd	a5,24(s7)
   18380:	03700793          	li	a5,55
   18384:	24c7f863          	bleu	a2,a5,185d4 <_realloc_r+0x4f8>
   18388:	0109b783          	ld	a5,16(s3)
   1838c:	02fbb023          	sd	a5,32(s7)
   18390:	0189b783          	ld	a5,24(s3)
   18394:	02fbb423          	sd	a5,40(s7)
   18398:	04800793          	li	a5,72
   1839c:	0af61863          	bne	a2,a5,1844c <_realloc_r+0x370>
   183a0:	0209b703          	ld	a4,32(s3)
   183a4:	040b8793          	addi	a5,s7,64
   183a8:	03098993          	addi	s3,s3,48
   183ac:	02ebb823          	sd	a4,48(s7)
   183b0:	ff89b703          	ld	a4,-8(s3)
   183b4:	02ebbc23          	sd	a4,56(s7)
   183b8:	0009b703          	ld	a4,0(s3)
   183bc:	000b0a13          	mv	s4,s6
   183c0:	000b8a93          	mv	s5,s7
   183c4:	00e7b023          	sd	a4,0(a5)
   183c8:	0089b703          	ld	a4,8(s3)
   183cc:	00e7b423          	sd	a4,8(a5)
   183d0:	0109b703          	ld	a4,16(s3)
   183d4:	00e7b823          	sd	a4,16(a5)
   183d8:	e2dff06f          	j	18204 <_realloc_r+0x128>
   183dc:	ff09bb83          	ld	s7,-16(s3)
   183e0:	417a8bb3          	sub	s7,s5,s7
   183e4:	008bb783          	ld	a5,8(s7)
   183e8:	ffc7f793          	andi	a5,a5,-4
   183ec:	00fa0b33          	add	s6,s4,a5
   183f0:	d88b48e3          	blt	s6,s0,18180 <_realloc_r+0xa4>
   183f4:	018bb783          	ld	a5,24(s7)
   183f8:	010bb703          	ld	a4,16(s7)
   183fc:	ff8a0613          	addi	a2,s4,-8
   18400:	04800693          	li	a3,72
   18404:	00f73c23          	sd	a5,24(a4)
   18408:	00e7b823          	sd	a4,16(a5)
   1840c:	010b8493          	addi	s1,s7,16
   18410:	12c6ec63          	bltu	a3,a2,18548 <_realloc_r+0x46c>
   18414:	02700713          	li	a4,39
   18418:	00048793          	mv	a5,s1
   1841c:	f8c77ee3          	bleu	a2,a4,183b8 <_realloc_r+0x2dc>
   18420:	0009b783          	ld	a5,0(s3)
   18424:	00fbb823          	sd	a5,16(s7)
   18428:	0089b783          	ld	a5,8(s3)
   1842c:	00fbbc23          	sd	a5,24(s7)
   18430:	03700793          	li	a5,55
   18434:	1ac7f063          	bleu	a2,a5,185d4 <_realloc_r+0x4f8>
   18438:	0109b783          	ld	a5,16(s3)
   1843c:	02fbb023          	sd	a5,32(s7)
   18440:	0189b783          	ld	a5,24(s3)
   18444:	02fbb423          	sd	a5,40(s7)
   18448:	f4d60ce3          	beq	a2,a3,183a0 <_realloc_r+0x2c4>
   1844c:	030b8793          	addi	a5,s7,48
   18450:	02098993          	addi	s3,s3,32
   18454:	f65ff06f          	j	183b8 <_realloc_r+0x2dc>
   18458:	0086b703          	ld	a4,8(a3)
   1845c:	02040693          	addi	a3,s0,32
   18460:	ffc77713          	andi	a4,a4,-4
   18464:	01470733          	add	a4,a4,s4
   18468:	0ed75c63          	ble	a3,a4,18560 <_realloc_r+0x484>
   1846c:	0017f793          	andi	a5,a5,1
   18470:	d00798e3          	bnez	a5,18180 <_realloc_r+0xa4>
   18474:	ff09bb83          	ld	s7,-16(s3)
   18478:	417a8bb3          	sub	s7,s5,s7
   1847c:	008bb783          	ld	a5,8(s7)
   18480:	ffc7f793          	andi	a5,a5,-4
   18484:	00e78c33          	add	s8,a5,a4
   18488:	f6dc42e3          	blt	s8,a3,183ec <_realloc_r+0x310>
   1848c:	018bb783          	ld	a5,24(s7)
   18490:	010bb703          	ld	a4,16(s7)
   18494:	ff8a0613          	addi	a2,s4,-8
   18498:	04800693          	li	a3,72
   1849c:	00f73c23          	sd	a5,24(a4)
   184a0:	00e7b823          	sd	a4,16(a5)
   184a4:	010b8493          	addi	s1,s7,16
   184a8:	14c6ea63          	bltu	a3,a2,185fc <_realloc_r+0x520>
   184ac:	02700713          	li	a4,39
   184b0:	00048793          	mv	a5,s1
   184b4:	02c77263          	bleu	a2,a4,184d8 <_realloc_r+0x3fc>
   184b8:	0009b783          	ld	a5,0(s3)
   184bc:	00fbb823          	sd	a5,16(s7)
   184c0:	0089b783          	ld	a5,8(s3)
   184c4:	00fbbc23          	sd	a5,24(s7)
   184c8:	03700793          	li	a5,55
   184cc:	14c7e063          	bltu	a5,a2,1860c <_realloc_r+0x530>
   184d0:	020b8793          	addi	a5,s7,32
   184d4:	01098993          	addi	s3,s3,16
   184d8:	0009b703          	ld	a4,0(s3)
   184dc:	00e7b023          	sd	a4,0(a5)
   184e0:	0089b703          	ld	a4,8(s3)
   184e4:	00e7b423          	sd	a4,8(a5)
   184e8:	0109b703          	ld	a4,16(s3)
   184ec:	00e7b823          	sd	a4,16(a5)
   184f0:	008b8733          	add	a4,s7,s0
   184f4:	408c07b3          	sub	a5,s8,s0
   184f8:	00eb3823          	sd	a4,16(s6)
   184fc:	0017e793          	ori	a5,a5,1
   18500:	00f73423          	sd	a5,8(a4)
   18504:	008bb783          	ld	a5,8(s7)
   18508:	00090513          	mv	a0,s2
   1850c:	0017f793          	andi	a5,a5,1
   18510:	0087e433          	or	s0,a5,s0
   18514:	008bb423          	sd	s0,8(s7)
   18518:	b7dfc0ef          	jal	15094 <__malloc_unlock>
   1851c:	00048513          	mv	a0,s1
   18520:	d1dff06f          	j	1823c <_realloc_r+0x160>
   18524:	0009b703          	ld	a4,0(s3)
   18528:	00e53023          	sd	a4,0(a0)
   1852c:	0089b703          	ld	a4,8(s3)
   18530:	00e53423          	sd	a4,8(a0)
   18534:	03700713          	li	a4,55
   18538:	06c76463          	bltu	a4,a2,185a0 <_realloc_r+0x4c4>
   1853c:	01050793          	addi	a5,a0,16
   18540:	01098713          	addi	a4,s3,16
   18544:	c81ff06f          	j	181c4 <_realloc_r+0xe8>
   18548:	00098593          	mv	a1,s3
   1854c:	00048513          	mv	a0,s1
   18550:	a6dff0ef          	jal	17fbc <memmove>
   18554:	000b0a13          	mv	s4,s6
   18558:	000b8a93          	mv	s5,s7
   1855c:	ca9ff06f          	j	18204 <_realloc_r+0x128>
   18560:	008a8ab3          	add	s5,s5,s0
   18564:	408707b3          	sub	a5,a4,s0
   18568:	015b3823          	sd	s5,16(s6)
   1856c:	0017e793          	ori	a5,a5,1
   18570:	00fab423          	sd	a5,8(s5)
   18574:	ff89b783          	ld	a5,-8(s3)
   18578:	00090513          	mv	a0,s2
   1857c:	0017f793          	andi	a5,a5,1
   18580:	0087e433          	or	s0,a5,s0
   18584:	fe89bc23          	sd	s0,-8(s3)
   18588:	b0dfc0ef          	jal	15094 <__malloc_unlock>
   1858c:	00098513          	mv	a0,s3
   18590:	cadff06f          	j	1823c <_realloc_r+0x160>
   18594:	00098593          	mv	a1,s3
   18598:	a25ff0ef          	jal	17fbc <memmove>
   1859c:	c41ff06f          	j	181dc <_realloc_r+0x100>
   185a0:	0109b703          	ld	a4,16(s3)
   185a4:	00e53823          	sd	a4,16(a0)
   185a8:	0189b703          	ld	a4,24(s3)
   185ac:	00e53c23          	sd	a4,24(a0)
   185b0:	02f60863          	beq	a2,a5,185e0 <_realloc_r+0x504>
   185b4:	02050793          	addi	a5,a0,32
   185b8:	02098713          	addi	a4,s3,32
   185bc:	c09ff06f          	j	181c4 <_realloc_r+0xe8>
   185c0:	ff853783          	ld	a5,-8(a0)
   185c4:	00098493          	mv	s1,s3
   185c8:	ffc7f793          	andi	a5,a5,-4
   185cc:	00fa0a33          	add	s4,s4,a5
   185d0:	c35ff06f          	j	18204 <_realloc_r+0x128>
   185d4:	020b8793          	addi	a5,s7,32
   185d8:	01098993          	addi	s3,s3,16
   185dc:	dddff06f          	j	183b8 <_realloc_r+0x2dc>
   185e0:	0209b683          	ld	a3,32(s3)
   185e4:	03050793          	addi	a5,a0,48
   185e8:	03098713          	addi	a4,s3,48
   185ec:	02d53023          	sd	a3,32(a0)
   185f0:	0289b683          	ld	a3,40(s3)
   185f4:	02d53423          	sd	a3,40(a0)
   185f8:	bcdff06f          	j	181c4 <_realloc_r+0xe8>
   185fc:	00098593          	mv	a1,s3
   18600:	00048513          	mv	a0,s1
   18604:	9b9ff0ef          	jal	17fbc <memmove>
   18608:	ee9ff06f          	j	184f0 <_realloc_r+0x414>
   1860c:	0109b783          	ld	a5,16(s3)
   18610:	02fbb023          	sd	a5,32(s7)
   18614:	0189b783          	ld	a5,24(s3)
   18618:	02fbb423          	sd	a5,40(s7)
   1861c:	02d60063          	beq	a2,a3,1863c <_realloc_r+0x560>
   18620:	030b8793          	addi	a5,s7,48
   18624:	02098993          	addi	s3,s3,32
   18628:	eb1ff06f          	j	184d8 <_realloc_r+0x3fc>
   1862c:	00090513          	mv	a0,s2
   18630:	a65fc0ef          	jal	15094 <__malloc_unlock>
   18634:	00000513          	li	a0,0
   18638:	c05ff06f          	j	1823c <_realloc_r+0x160>
   1863c:	0209b703          	ld	a4,32(s3)
   18640:	040b8793          	addi	a5,s7,64
   18644:	03098993          	addi	s3,s3,48
   18648:	02ebb823          	sd	a4,48(s7)
   1864c:	ff89b703          	ld	a4,-8(s3)
   18650:	02ebbc23          	sd	a4,56(s7)
   18654:	e85ff06f          	j	184d8 <_realloc_r+0x3fc>

0000000000018658 <__swbuf_r>:
   18658:	fd010113          	addi	sp,sp,-48
   1865c:	02813023          	sd	s0,32(sp)
   18660:	00913c23          	sd	s1,24(sp)
   18664:	01313423          	sd	s3,8(sp)
   18668:	02113423          	sd	ra,40(sp)
   1866c:	01213823          	sd	s2,16(sp)
   18670:	00050493          	mv	s1,a0
   18674:	00058993          	mv	s3,a1
   18678:	00060413          	mv	s0,a2
   1867c:	00050663          	beqz	a0,18688 <__swbuf_r+0x30>
   18680:	05052783          	lw	a5,80(a0)
   18684:	12078e63          	beqz	a5,187c0 <__swbuf_r+0x168>
   18688:	01041683          	lh	a3,16(s0)
   1868c:	02842783          	lw	a5,40(s0)
   18690:	03069713          	slli	a4,a3,0x30
   18694:	03075713          	srli	a4,a4,0x30
   18698:	00f42623          	sw	a5,12(s0)
   1869c:	00877793          	andi	a5,a4,8
   186a0:	0e078e63          	beqz	a5,1879c <__swbuf_r+0x144>
   186a4:	01843783          	ld	a5,24(s0)
   186a8:	0e078a63          	beqz	a5,1879c <__swbuf_r+0x144>
   186ac:	03271613          	slli	a2,a4,0x32
   186b0:	0ff9f913          	andi	s2,s3,255
   186b4:	06065663          	bgez	a2,18720 <__swbuf_r+0xc8>
   186b8:	00043703          	ld	a4,0(s0)
   186bc:	02042683          	lw	a3,32(s0)
   186c0:	40f707bb          	subw	a5,a4,a5
   186c4:	08d7d663          	ble	a3,a5,18750 <__swbuf_r+0xf8>
   186c8:	0017879b          	addiw	a5,a5,1
   186cc:	00c42683          	lw	a3,12(s0)
   186d0:	00170613          	addi	a2,a4,1
   186d4:	00c43023          	sd	a2,0(s0)
   186d8:	fff6869b          	addiw	a3,a3,-1
   186dc:	00d42623          	sw	a3,12(s0)
   186e0:	01370023          	sb	s3,0(a4)
   186e4:	02042703          	lw	a4,32(s0)
   186e8:	08f70263          	beq	a4,a5,1876c <__swbuf_r+0x114>
   186ec:	01045783          	lhu	a5,16(s0)
   186f0:	00090513          	mv	a0,s2
   186f4:	0017f793          	andi	a5,a5,1
   186f8:	00078663          	beqz	a5,18704 <__swbuf_r+0xac>
   186fc:	00a00793          	li	a5,10
   18700:	06f90663          	beq	s2,a5,1876c <__swbuf_r+0x114>
   18704:	02813083          	ld	ra,40(sp)
   18708:	02013403          	ld	s0,32(sp)
   1870c:	01813483          	ld	s1,24(sp)
   18710:	01013903          	ld	s2,16(sp)
   18714:	00813983          	ld	s3,8(sp)
   18718:	03010113          	addi	sp,sp,48
   1871c:	00008067          	ret
   18720:	0ac42583          	lw	a1,172(s0)
   18724:	ffffe737          	lui	a4,0xffffe
   18728:	fff7071b          	addiw	a4,a4,-1
   1872c:	00e5f733          	and	a4,a1,a4
   18730:	00002637          	lui	a2,0x2
   18734:	00c6e6b3          	or	a3,a3,a2
   18738:	0ae42623          	sw	a4,172(s0)
   1873c:	00043703          	ld	a4,0(s0)
   18740:	00d41823          	sh	a3,16(s0)
   18744:	02042683          	lw	a3,32(s0)
   18748:	40f707bb          	subw	a5,a4,a5
   1874c:	f6d7cee3          	blt	a5,a3,186c8 <__swbuf_r+0x70>
   18750:	00040593          	mv	a1,s0
   18754:	00048513          	mv	a0,s1
   18758:	aecfb0ef          	jal	13a44 <_fflush_r>
   1875c:	06051663          	bnez	a0,187c8 <__swbuf_r+0x170>
   18760:	00043703          	ld	a4,0(s0)
   18764:	00100793          	li	a5,1
   18768:	f65ff06f          	j	186cc <__swbuf_r+0x74>
   1876c:	00040593          	mv	a1,s0
   18770:	00048513          	mv	a0,s1
   18774:	ad0fb0ef          	jal	13a44 <_fflush_r>
   18778:	04051863          	bnez	a0,187c8 <__swbuf_r+0x170>
   1877c:	02813083          	ld	ra,40(sp)
   18780:	00090513          	mv	a0,s2
   18784:	02013403          	ld	s0,32(sp)
   18788:	01813483          	ld	s1,24(sp)
   1878c:	01013903          	ld	s2,16(sp)
   18790:	00813983          	ld	s3,8(sp)
   18794:	03010113          	addi	sp,sp,48
   18798:	00008067          	ret
   1879c:	00040593          	mv	a1,s0
   187a0:	00048513          	mv	a0,s1
   187a4:	941f90ef          	jal	120e4 <__swsetup_r>
   187a8:	02051063          	bnez	a0,187c8 <__swbuf_r+0x170>
   187ac:	01041683          	lh	a3,16(s0)
   187b0:	01843783          	ld	a5,24(s0)
   187b4:	03069713          	slli	a4,a3,0x30
   187b8:	03075713          	srli	a4,a4,0x30
   187bc:	ef1ff06f          	j	186ac <__swbuf_r+0x54>
   187c0:	e30fb0ef          	jal	13df0 <__sinit>
   187c4:	ec5ff06f          	j	18688 <__swbuf_r+0x30>
   187c8:	fff00513          	li	a0,-1
   187cc:	f39ff06f          	j	18704 <__swbuf_r+0xac>

00000000000187d0 <__swbuf>:
   187d0:	00058613          	mv	a2,a1
   187d4:	00050593          	mv	a1,a0
   187d8:	8101b503          	ld	a0,-2032(gp) # 1b320 <_impure_ptr>
   187dc:	e7dff06f          	j	18658 <__swbuf_r>

00000000000187e0 <_wcrtomb_r>:
   187e0:	fc010113          	addi	sp,sp,-64
   187e4:	02913423          	sd	s1,40(sp)
   187e8:	03213023          	sd	s2,32(sp)
   187ec:	02113c23          	sd	ra,56(sp)
   187f0:	02813823          	sd	s0,48(sp)
   187f4:	01313c23          	sd	s3,24(sp)
   187f8:	01413823          	sd	s4,16(sp)
   187fc:	00050493          	mv	s1,a0
   18800:	00068913          	mv	s2,a3
   18804:	06058663          	beqz	a1,18870 <_wcrtomb_r+0x90>
   18808:	8301ba03          	ld	s4,-2000(gp) # 1b340 <__wctomb>
   1880c:	00058413          	mv	s0,a1
   18810:	00060993          	mv	s3,a2
   18814:	c2dfb0ef          	jal	14440 <__locale_charset>
   18818:	00050693          	mv	a3,a0
   1881c:	00090713          	mv	a4,s2
   18820:	00098613          	mv	a2,s3
   18824:	00040593          	mv	a1,s0
   18828:	00048513          	mv	a0,s1
   1882c:	000a00e7          	jalr	s4
   18830:	00050793          	mv	a5,a0
   18834:	fff00713          	li	a4,-1
   18838:	00078513          	mv	a0,a5
   1883c:	00e79a63          	bne	a5,a4,18850 <_wcrtomb_r+0x70>
   18840:	00092023          	sw	zero,0(s2)
   18844:	08a00793          	li	a5,138
   18848:	00f4a023          	sw	a5,0(s1)
   1884c:	fff00513          	li	a0,-1
   18850:	03813083          	ld	ra,56(sp)
   18854:	03013403          	ld	s0,48(sp)
   18858:	02813483          	ld	s1,40(sp)
   1885c:	02013903          	ld	s2,32(sp)
   18860:	01813983          	ld	s3,24(sp)
   18864:	01013a03          	ld	s4,16(sp)
   18868:	04010113          	addi	sp,sp,64
   1886c:	00008067          	ret
   18870:	8301b403          	ld	s0,-2000(gp) # 1b340 <__wctomb>
   18874:	bcdfb0ef          	jal	14440 <__locale_charset>
   18878:	00050693          	mv	a3,a0
   1887c:	00090713          	mv	a4,s2
   18880:	00000613          	li	a2,0
   18884:	00010593          	mv	a1,sp
   18888:	00048513          	mv	a0,s1
   1888c:	000400e7          	jalr	s0
   18890:	00050793          	mv	a5,a0
   18894:	fa1ff06f          	j	18834 <_wcrtomb_r+0x54>

0000000000018898 <wcrtomb>:
   18898:	fc010113          	addi	sp,sp,-64
   1889c:	02913423          	sd	s1,40(sp)
   188a0:	03213023          	sd	s2,32(sp)
   188a4:	02113c23          	sd	ra,56(sp)
   188a8:	02813823          	sd	s0,48(sp)
   188ac:	01313c23          	sd	s3,24(sp)
   188b0:	01413823          	sd	s4,16(sp)
   188b4:	00060913          	mv	s2,a2
   188b8:	8101b483          	ld	s1,-2032(gp) # 1b320 <_impure_ptr>
   188bc:	06050663          	beqz	a0,18928 <wcrtomb+0x90>
   188c0:	8301ba03          	ld	s4,-2000(gp) # 1b340 <__wctomb>
   188c4:	00058993          	mv	s3,a1
   188c8:	00050413          	mv	s0,a0
   188cc:	b75fb0ef          	jal	14440 <__locale_charset>
   188d0:	00050693          	mv	a3,a0
   188d4:	00090713          	mv	a4,s2
   188d8:	00098613          	mv	a2,s3
   188dc:	00040593          	mv	a1,s0
   188e0:	00048513          	mv	a0,s1
   188e4:	000a00e7          	jalr	s4
   188e8:	00050793          	mv	a5,a0
   188ec:	fff00713          	li	a4,-1
   188f0:	00078513          	mv	a0,a5
   188f4:	00e79a63          	bne	a5,a4,18908 <wcrtomb+0x70>
   188f8:	00092023          	sw	zero,0(s2)
   188fc:	08a00793          	li	a5,138
   18900:	00f4a023          	sw	a5,0(s1)
   18904:	fff00513          	li	a0,-1
   18908:	03813083          	ld	ra,56(sp)
   1890c:	03013403          	ld	s0,48(sp)
   18910:	02813483          	ld	s1,40(sp)
   18914:	02013903          	ld	s2,32(sp)
   18918:	01813983          	ld	s3,24(sp)
   1891c:	01013a03          	ld	s4,16(sp)
   18920:	04010113          	addi	sp,sp,64
   18924:	00008067          	ret
   18928:	8301b403          	ld	s0,-2000(gp) # 1b340 <__wctomb>
   1892c:	b15fb0ef          	jal	14440 <__locale_charset>
   18930:	00050693          	mv	a3,a0
   18934:	00090713          	mv	a4,s2
   18938:	00000613          	li	a2,0
   1893c:	00010593          	mv	a1,sp
   18940:	00048513          	mv	a0,s1
   18944:	000400e7          	jalr	s0
   18948:	00050793          	mv	a5,a0
   1894c:	fa1ff06f          	j	188ec <wcrtomb+0x54>

0000000000018950 <__ascii_wctomb>:
   18950:	00058c63          	beqz	a1,18968 <__ascii_wctomb+0x18>
   18954:	0ff00793          	li	a5,255
   18958:	00c7ec63          	bltu	a5,a2,18970 <__ascii_wctomb+0x20>
   1895c:	00c58023          	sb	a2,0(a1)
   18960:	00100513          	li	a0,1
   18964:	00008067          	ret
   18968:	00000513          	li	a0,0
   1896c:	00008067          	ret
   18970:	08a00793          	li	a5,138
   18974:	00f52023          	sw	a5,0(a0)
   18978:	fff00513          	li	a0,-1
   1897c:	00008067          	ret

0000000000018980 <_wctomb_r>:
   18980:	fd010113          	addi	sp,sp,-48
   18984:	02813023          	sd	s0,32(sp)
   18988:	8301b403          	ld	s0,-2000(gp) # 1b340 <__wctomb>
   1898c:	02113423          	sd	ra,40(sp)
   18990:	00913c23          	sd	s1,24(sp)
   18994:	01213823          	sd	s2,16(sp)
   18998:	01313423          	sd	s3,8(sp)
   1899c:	01413023          	sd	s4,0(sp)
   189a0:	00050493          	mv	s1,a0
   189a4:	00068a13          	mv	s4,a3
   189a8:	00058913          	mv	s2,a1
   189ac:	00060993          	mv	s3,a2
   189b0:	a91fb0ef          	jal	14440 <__locale_charset>
   189b4:	000a0713          	mv	a4,s4
   189b8:	00050693          	mv	a3,a0
   189bc:	00098613          	mv	a2,s3
   189c0:	00090593          	mv	a1,s2
   189c4:	00048513          	mv	a0,s1
   189c8:	00040313          	mv	t1,s0
   189cc:	02813083          	ld	ra,40(sp)
   189d0:	02013403          	ld	s0,32(sp)
   189d4:	01813483          	ld	s1,24(sp)
   189d8:	01013903          	ld	s2,16(sp)
   189dc:	00813983          	ld	s3,8(sp)
   189e0:	00013a03          	ld	s4,0(sp)
   189e4:	03010113          	addi	sp,sp,48
   189e8:	00030067          	jr	t1

00000000000189ec <__syscall_error>:
   189ec:	ff010113          	addi	sp,sp,-16
   189f0:	00113423          	sd	ra,8(sp)
   189f4:	00813023          	sd	s0,0(sp)
   189f8:	00050413          	mv	s0,a0
   189fc:	3c0000ef          	jal	18dbc <__errno>
   18a00:	00813083          	ld	ra,8(sp)
   18a04:	408007bb          	negw	a5,s0
   18a08:	00f52023          	sw	a5,0(a0)
   18a0c:	00013403          	ld	s0,0(sp)
   18a10:	fff00513          	li	a0,-1
   18a14:	01010113          	addi	sp,sp,16
   18a18:	00008067          	ret

0000000000018a1c <open>:
   18a1c:	00000693          	li	a3,0
   18a20:	40000893          	li	a7,1024
   18a24:	00000073          	ecall
   18a28:	fc0542e3          	bltz	a0,189ec <__syscall_error>
   18a2c:	0005051b          	sext.w	a0,a0
   18a30:	00008067          	ret

0000000000018a34 <openat>:
   18a34:	03800893          	li	a7,56
   18a38:	00000073          	ecall
   18a3c:	fa0548e3          	bltz	a0,189ec <__syscall_error>
   18a40:	0005051b          	sext.w	a0,a0
   18a44:	00008067          	ret

0000000000018a48 <lseek>:
   18a48:	00000693          	li	a3,0
   18a4c:	03e00893          	li	a7,62
   18a50:	00000073          	ecall
   18a54:	f8054ce3          	bltz	a0,189ec <__syscall_error>
   18a58:	00008067          	ret

0000000000018a5c <read>:
   18a5c:	00000693          	li	a3,0
   18a60:	03f00893          	li	a7,63
   18a64:	00000073          	ecall
   18a68:	f80542e3          	bltz	a0,189ec <__syscall_error>
   18a6c:	00008067          	ret

0000000000018a70 <write>:
   18a70:	00000693          	li	a3,0
   18a74:	04000893          	li	a7,64
   18a78:	00000073          	ecall
   18a7c:	f60548e3          	bltz	a0,189ec <__syscall_error>
   18a80:	00008067          	ret

0000000000018a84 <fstat>:
   18a84:	00000613          	li	a2,0
   18a88:	00000693          	li	a3,0
   18a8c:	05000893          	li	a7,80
   18a90:	00000073          	ecall
   18a94:	f4054ce3          	bltz	a0,189ec <__syscall_error>
   18a98:	0005051b          	sext.w	a0,a0
   18a9c:	00008067          	ret

0000000000018aa0 <stat>:
   18aa0:	00000613          	li	a2,0
   18aa4:	00000693          	li	a3,0
   18aa8:	40e00893          	li	a7,1038
   18aac:	00000073          	ecall
   18ab0:	f2054ee3          	bltz	a0,189ec <__syscall_error>
   18ab4:	0005051b          	sext.w	a0,a0
   18ab8:	00008067          	ret

0000000000018abc <lstat>:
   18abc:	00000613          	li	a2,0
   18ac0:	00000693          	li	a3,0
   18ac4:	40f00893          	li	a7,1039
   18ac8:	00000073          	ecall
   18acc:	f20540e3          	bltz	a0,189ec <__syscall_error>
   18ad0:	0005051b          	sext.w	a0,a0
   18ad4:	00008067          	ret

0000000000018ad8 <fstatat>:
   18ad8:	04f00893          	li	a7,79
   18adc:	00000073          	ecall
   18ae0:	f00546e3          	bltz	a0,189ec <__syscall_error>
   18ae4:	0005051b          	sext.w	a0,a0
   18ae8:	00008067          	ret

0000000000018aec <access>:
   18aec:	00000613          	li	a2,0
   18af0:	00000693          	li	a3,0
   18af4:	40900893          	li	a7,1033
   18af8:	00000073          	ecall
   18afc:	ee0548e3          	bltz	a0,189ec <__syscall_error>
   18b00:	0005051b          	sext.w	a0,a0
   18b04:	00008067          	ret

0000000000018b08 <faccessat>:
   18b08:	03000893          	li	a7,48
   18b0c:	00000073          	ecall
   18b10:	ec054ee3          	bltz	a0,189ec <__syscall_error>
   18b14:	0005051b          	sext.w	a0,a0
   18b18:	00008067          	ret

0000000000018b1c <close>:
   18b1c:	00000593          	li	a1,0
   18b20:	00000613          	li	a2,0
   18b24:	00000693          	li	a3,0
   18b28:	03900893          	li	a7,57
   18b2c:	00000073          	ecall
   18b30:	ea054ee3          	bltz	a0,189ec <__syscall_error>
   18b34:	0005051b          	sext.w	a0,a0
   18b38:	00008067          	ret

0000000000018b3c <link>:
   18b3c:	00000613          	li	a2,0
   18b40:	00000693          	li	a3,0
   18b44:	40100893          	li	a7,1025
   18b48:	00000073          	ecall
   18b4c:	ea0540e3          	bltz	a0,189ec <__syscall_error>
   18b50:	0005051b          	sext.w	a0,a0
   18b54:	00008067          	ret

0000000000018b58 <unlink>:
   18b58:	00000593          	li	a1,0
   18b5c:	00000613          	li	a2,0
   18b60:	00000693          	li	a3,0
   18b64:	40200893          	li	a7,1026
   18b68:	00000073          	ecall
   18b6c:	e80540e3          	bltz	a0,189ec <__syscall_error>
   18b70:	0005051b          	sext.w	a0,a0
   18b74:	00008067          	ret

0000000000018b78 <execve>:
   18b78:	ff010113          	addi	sp,sp,-16
   18b7c:	00113423          	sd	ra,8(sp)
   18b80:	23c000ef          	jal	18dbc <__errno>
   18b84:	00813083          	ld	ra,8(sp)
   18b88:	00c00793          	li	a5,12
   18b8c:	00f52023          	sw	a5,0(a0)
   18b90:	01010113          	addi	sp,sp,16
   18b94:	fff00513          	li	a0,-1
   18b98:	00008067          	ret

0000000000018b9c <fork>:
   18b9c:	ff010113          	addi	sp,sp,-16
   18ba0:	00113423          	sd	ra,8(sp)
   18ba4:	218000ef          	jal	18dbc <__errno>
   18ba8:	00813083          	ld	ra,8(sp)
   18bac:	00b00793          	li	a5,11
   18bb0:	00f52023          	sw	a5,0(a0)
   18bb4:	01010113          	addi	sp,sp,16
   18bb8:	fff00513          	li	a0,-1
   18bbc:	00008067          	ret

0000000000018bc0 <getpid>:
   18bc0:	00100513          	li	a0,1
   18bc4:	00008067          	ret

0000000000018bc8 <kill>:
   18bc8:	ff010113          	addi	sp,sp,-16
   18bcc:	00113423          	sd	ra,8(sp)
   18bd0:	1ec000ef          	jal	18dbc <__errno>
   18bd4:	00813083          	ld	ra,8(sp)
   18bd8:	01600793          	li	a5,22
   18bdc:	00f52023          	sw	a5,0(a0)
   18be0:	01010113          	addi	sp,sp,16
   18be4:	fff00513          	li	a0,-1
   18be8:	00008067          	ret

0000000000018bec <wait>:
   18bec:	ff010113          	addi	sp,sp,-16
   18bf0:	00113423          	sd	ra,8(sp)
   18bf4:	1c8000ef          	jal	18dbc <__errno>
   18bf8:	00813083          	ld	ra,8(sp)
   18bfc:	00a00793          	li	a5,10
   18c00:	00f52023          	sw	a5,0(a0)
   18c04:	01010113          	addi	sp,sp,16
   18c08:	fff00513          	li	a0,-1
   18c0c:	00008067          	ret

0000000000018c10 <isatty>:
   18c10:	f8010113          	addi	sp,sp,-128
   18c14:	00010593          	mv	a1,sp
   18c18:	00000613          	li	a2,0
   18c1c:	00000693          	li	a3,0
   18c20:	05000893          	li	a7,80
   18c24:	00000073          	ecall
   18c28:	dc0542e3          	bltz	a0,189ec <__syscall_error>
   18c2c:	fff00793          	li	a5,-1
   18c30:	0005051b          	sext.w	a0,a0
   18c34:	00f50863          	beq	a0,a5,18c44 <isatty+0x34>
   18c38:	01012503          	lw	a0,16(sp)
   18c3c:	40d5551b          	sraiw	a0,a0,0xd
   18c40:	00157513          	andi	a0,a0,1
   18c44:	08010113          	addi	sp,sp,128
   18c48:	00008067          	ret

0000000000018c4c <times>:
   18c4c:	92818313          	addi	t1,gp,-1752 # 1b438 <t0.2343>
   18c50:	00033703          	ld	a4,0(t1)
   18c54:	ff010113          	addi	sp,sp,-16
   18c58:	00050813          	mv	a6,a0
   18c5c:	02071063          	bnez	a4,18c7c <times+0x30>
   18c60:	92818513          	addi	a0,gp,-1752 # 1b438 <t0.2343>
   18c64:	00000593          	li	a1,0
   18c68:	00000613          	li	a2,0
   18c6c:	00000693          	li	a3,0
   18c70:	0a900893          	li	a7,169
   18c74:	00000073          	ecall
   18c78:	d6054ae3          	bltz	a0,189ec <__syscall_error>
   18c7c:	00010513          	mv	a0,sp
   18c80:	00000593          	li	a1,0
   18c84:	00000613          	li	a2,0
   18c88:	00000693          	li	a3,0
   18c8c:	0a900893          	li	a7,169
   18c90:	00000073          	ecall
   18c94:	d4054ce3          	bltz	a0,189ec <__syscall_error>
   18c98:	00033703          	ld	a4,0(t1)
   18c9c:	00013783          	ld	a5,0(sp)
   18ca0:	fff00513          	li	a0,-1
   18ca4:	00083823          	sd	zero,16(a6)
   18ca8:	40e786b3          	sub	a3,a5,a4
   18cac:	000f47b7          	lui	a5,0xf4
   18cb0:	24078793          	addi	a5,a5,576 # f4240 <_gp+0xd8730>
   18cb4:	02f68733          	mul	a4,a3,a5
   18cb8:	00833683          	ld	a3,8(t1)
   18cbc:	00813783          	ld	a5,8(sp)
   18cc0:	00083c23          	sd	zero,24(a6)
   18cc4:	00083423          	sd	zero,8(a6)
   18cc8:	40d787b3          	sub	a5,a5,a3
   18ccc:	01010113          	addi	sp,sp,16
   18cd0:	00f707b3          	add	a5,a4,a5
   18cd4:	00f83023          	sd	a5,0(a6)
   18cd8:	00008067          	ret

0000000000018cdc <gettimeofday>:
   18cdc:	00000593          	li	a1,0
   18ce0:	00000613          	li	a2,0
   18ce4:	00000693          	li	a3,0
   18ce8:	0a900893          	li	a7,169
   18cec:	00000073          	ecall
   18cf0:	ce054ee3          	bltz	a0,189ec <__syscall_error>
   18cf4:	0005051b          	sext.w	a0,a0
   18cf8:	00008067          	ret

0000000000018cfc <ftime>:
   18cfc:	00051423          	sh	zero,8(a0)
   18d00:	00053023          	sd	zero,0(a0)
   18d04:	00000513          	li	a0,0
   18d08:	00008067          	ret

0000000000018d0c <utime>:
   18d0c:	fff00513          	li	a0,-1
   18d10:	00008067          	ret

0000000000018d14 <chown>:
   18d14:	fff00513          	li	a0,-1
   18d18:	00008067          	ret

0000000000018d1c <chmod>:
   18d1c:	fff00513          	li	a0,-1
   18d20:	00008067          	ret

0000000000018d24 <chdir>:
   18d24:	fff00513          	li	a0,-1
   18d28:	00008067          	ret

0000000000018d2c <getcwd>:
   18d2c:	00000513          	li	a0,0
   18d30:	00008067          	ret

0000000000018d34 <sysconf>:
   18d34:	00200793          	li	a5,2
   18d38:	00f51863          	bne	a0,a5,18d48 <sysconf+0x14>
   18d3c:	000f4537          	lui	a0,0xf4
   18d40:	24050513          	addi	a0,a0,576 # f4240 <_gp+0xd8730>
   18d44:	00008067          	ret
   18d48:	fff00513          	li	a0,-1
   18d4c:	00008067          	ret

0000000000018d50 <sbrk>:
   18d50:	8c01b703          	ld	a4,-1856(gp) # 1b3d0 <heap_end.2381>
   18d54:	00050793          	mv	a5,a0
   18d58:	00071663          	bnez	a4,18d64 <sbrk+0x14>
   18d5c:	93818713          	addi	a4,gp,-1736 # 1b448 <_end>
   18d60:	8ce1b023          	sd	a4,-1856(gp) # 1b3d0 <heap_end.2381>
   18d64:	00e78533          	add	a0,a5,a4
   18d68:	00000593          	li	a1,0
   18d6c:	00000613          	li	a2,0
   18d70:	00000693          	li	a3,0
   18d74:	0d600893          	li	a7,214
   18d78:	00000073          	ecall
   18d7c:	c60548e3          	bltz	a0,189ec <__syscall_error>
   18d80:	8c01b683          	ld	a3,-1856(gp) # 1b3d0 <heap_end.2381>
   18d84:	fff00713          	li	a4,-1
   18d88:	00d787b3          	add	a5,a5,a3
   18d8c:	00f51663          	bne	a0,a5,18d98 <sbrk+0x48>
   18d90:	8ca1b023          	sd	a0,-1856(gp) # 1b3d0 <heap_end.2381>
   18d94:	00068713          	mv	a4,a3
   18d98:	00070513          	mv	a0,a4
   18d9c:	00008067          	ret

0000000000018da0 <_exit>:
   18da0:	00000593          	li	a1,0
   18da4:	00000613          	li	a2,0
   18da8:	00000693          	li	a3,0
   18dac:	05d00893          	li	a7,93
   18db0:	00000073          	ecall
   18db4:	c2054ce3          	bltz	a0,189ec <__syscall_error>
   18db8:	0000006f          	j	18db8 <_exit+0x18>

0000000000018dbc <__errno>:
   18dbc:	8101b503          	ld	a0,-2032(gp) # 1b320 <_impure_ptr>
   18dc0:	00008067          	ret
