
dry2:     file format elf64-littleriscv


Disassembly of section .text:

0000000000010000 <_ftext>:
_ftext():
   10000:	00015197          	auipc	gp,0x15
   10004:	c4018193          	addi	gp,gp,-960 # 24c40 <_gp>
   10008:	00014297          	auipc	t0,0x14
   1000c:	53028293          	addi	t0,t0,1328 # 24538 <Reg>
   10010:	00017317          	auipc	t1,0x17
   10014:	e0830313          	addi	t1,t1,-504 # 26e18 <_end>
   10018:	0002b023          	sd	zero,0(t0)
   1001c:	00828293          	addi	t0,t0,8
   10020:	fe62ece3          	bltu	t0,t1,10018 <_ftext+0x18>
   10024:	00001517          	auipc	a0,0x1
   10028:	bd450513          	addi	a0,a0,-1068 # 10bf8 <__libc_fini_array>
   1002c:	389000ef          	jal	10bb4 <atexit>
   10030:	425000ef          	jal	10c54 <__libc_init_array>
   10034:	00012503          	lw	a0,0(sp)
   10038:	00810593          	addi	a1,sp,8
   1003c:	00000613          	li	a2,0
   10040:	288000ef          	jal	102c8 <main>
   10044:	3850006f          	j	10bc8 <exit>

0000000000010048 <_fini>:
_init():
   10048:	00008067          	ret

000000000001004c <deregister_tm_clones>:
deregister_tm_clones():
   1004c:	00024537          	lui	a0,0x24
   10050:	000247b7          	lui	a5,0x24
   10054:	43850713          	addi	a4,a0,1080 # 24438 <__TMC_END__>
   10058:	43f78793          	addi	a5,a5,1087 # 2443f <__TMC_END__+0x7>
   1005c:	40e787b3          	sub	a5,a5,a4
   10060:	00e00713          	li	a4,14
   10064:	00f77c63          	bleu	a5,a4,1007c <deregister_tm_clones+0x30>
   10068:	00000337          	lui	t1,0x0
   1006c:	00030313          	mv	t1,t1
   10070:	00030663          	beqz	t1,1007c <deregister_tm_clones+0x30>
   10074:	43850513          	addi	a0,a0,1080
   10078:	00030067          	jr	t1
   1007c:	00008067          	ret

0000000000010080 <register_tm_clones>:
register_tm_clones():
   10080:	00024537          	lui	a0,0x24
   10084:	000247b7          	lui	a5,0x24
   10088:	43850593          	addi	a1,a0,1080 # 24438 <__TMC_END__>
   1008c:	43878793          	addi	a5,a5,1080 # 24438 <__TMC_END__>
   10090:	40b787b3          	sub	a5,a5,a1
   10094:	4037d793          	srai	a5,a5,0x3
   10098:	03f7d593          	srli	a1,a5,0x3f
   1009c:	00f585b3          	add	a1,a1,a5
   100a0:	4015d593          	srai	a1,a1,0x1
   100a4:	00058c63          	beqz	a1,100bc <register_tm_clones+0x3c>
   100a8:	00000337          	lui	t1,0x0
   100ac:	00030313          	mv	t1,t1
   100b0:	00030663          	beqz	t1,100bc <register_tm_clones+0x3c>
   100b4:	43850513          	addi	a0,a0,1080
   100b8:	00030067          	jr	t1
   100bc:	00008067          	ret

00000000000100c0 <__do_global_dtors_aux>:
__do_global_dtors_aux():
   100c0:	ff010113          	addi	sp,sp,-16
   100c4:	00813023          	sd	s0,0(sp)
   100c8:	9301c783          	lbu	a5,-1744(gp) # 24570 <_bss_start>
   100cc:	00113423          	sd	ra,8(sp)
   100d0:	02079663          	bnez	a5,100fc <__do_global_dtors_aux+0x3c>
   100d4:	f79ff0ef          	jal	1004c <deregister_tm_clones>
   100d8:	000007b7          	lui	a5,0x0
   100dc:	00078793          	mv	a5,a5
   100e0:	00078a63          	beqz	a5,100f4 <__do_global_dtors_aux+0x34>
   100e4:	00022537          	lui	a0,0x22
   100e8:	c5050513          	addi	a0,a0,-944 # 21c50 <__fini_array_end>
   100ec:	ffff0317          	auipc	t1,0xffff0
   100f0:	f14300e7          	jalr	t1,-236 # 0 <_ftext-0x10000>
   100f4:	00100793          	li	a5,1
   100f8:	92f18823          	sb	a5,-1744(gp) # 24570 <_bss_start>
   100fc:	00813083          	ld	ra,8(sp)
   10100:	00013403          	ld	s0,0(sp)
   10104:	01010113          	addi	sp,sp,16
   10108:	00008067          	ret

000000000001010c <frame_dummy>:
frame_dummy():
   1010c:	ff010113          	addi	sp,sp,-16
   10110:	000007b7          	lui	a5,0x0
   10114:	00113423          	sd	ra,8(sp)
   10118:	00078793          	mv	a5,a5
   1011c:	00078c63          	beqz	a5,10134 <frame_dummy+0x28>
   10120:	00022537          	lui	a0,0x22
   10124:	93818593          	addi	a1,gp,-1736 # 24578 <object.3092>
   10128:	c5050513          	addi	a0,a0,-944 # 21c50 <__fini_array_end>
   1012c:	ffff0317          	auipc	t1,0xffff0
   10130:	ed4300e7          	jalr	t1,-300 # 0 <_ftext-0x10000>
   10134:	000237b7          	lui	a5,0x23
   10138:	43078513          	addi	a0,a5,1072 # 23430 <__JCR_END__>
   1013c:	00053783          	ld	a5,0(a0)
   10140:	00079863          	bnez	a5,10150 <frame_dummy+0x44>
   10144:	00813083          	ld	ra,8(sp)
   10148:	01010113          	addi	sp,sp,16
   1014c:	f35ff06f          	j	10080 <register_tm_clones>
   10150:	000007b7          	lui	a5,0x0
   10154:	00078793          	mv	a5,a5
   10158:	fe0786e3          	beqz	a5,10144 <frame_dummy+0x38>
   1015c:	000780e7          	jalr	a5
   10160:	fe5ff06f          	j	10144 <frame_dummy+0x38>

0000000000010164 <Proc_2>:
Proc_2():
/home/nancy/riscv-tools/sim/test/stdtest/dhry2.1/dhry_1.c:338
  One_Fifty  Int_Loc;  
  Enumeration   Enum_Loc;

  Int_Loc = *Int_Par_Ref + 10;
  do /* executed once */
    if (Ch_1_Glob == 'A')
   10164:	000277b7          	lui	a5,0x27
   10168:	d1c7c703          	lbu	a4,-740(a5) # 26d1c <Ch_1_Glob>
   1016c:	04100793          	li	a5,65
   10170:	00f71e63          	bne	a4,a5,1018c <Proc_2+0x28>
/home/nancy/riscv-tools/sim/test/stdtest/dhry2.1/dhry_1.c:342
      /* then, executed */
    {
      Int_Loc -= 1;
      *Int_Par_Ref = Int_Loc - Int_Glob;
   10174:	00052783          	lw	a5,0(a0)
   10178:	0097879b          	addiw	a5,a5,9
   1017c:	00027737          	lui	a4,0x27
   10180:	d1872703          	lw	a4,-744(a4) # 26d18 <Int_Glob>
   10184:	40e787bb          	subw	a5,a5,a4
   10188:	00f52023          	sw	a5,0(a0)
/home/nancy/riscv-tools/sim/test/stdtest/dhry2.1/dhry_1.c:346
      Enum_Loc = Ident_1;
    } /* if */
  while (Enum_Loc != Ident_1); /* true */
} /* Proc_2 */
   1018c:	00008067          	ret

0000000000010190 <Proc_3>:
Proc_3():
/home/nancy/riscv-tools/sim/test/stdtest/dhry2.1/dhry_1.c:356
    /* executed once */
    /* Ptr_Ref_Par becomes Ptr_Glob */

Rec_Pointer *Ptr_Ref_Par;

{
   10190:	ff010113          	addi	sp,sp,-16
   10194:	00113423          	sd	ra,8(sp)
/home/nancy/riscv-tools/sim/test/stdtest/dhry2.1/dhry_1.c:357
  if (Ptr_Glob != Null)
   10198:	000277b7          	lui	a5,0x27
   1019c:	d207b783          	ld	a5,-736(a5) # 26d20 <Ptr_Glob>
   101a0:	00078663          	beqz	a5,101ac <Proc_3+0x1c>
/home/nancy/riscv-tools/sim/test/stdtest/dhry2.1/dhry_1.c:359
    /* then, executed */
    *Ptr_Ref_Par = Ptr_Glob->Ptr_Comp;
   101a4:	0007b783          	ld	a5,0(a5)
   101a8:	00f53023          	sd	a5,0(a0)
/home/nancy/riscv-tools/sim/test/stdtest/dhry2.1/dhry_1.c:360
  Proc_7 (10, Int_Glob, &Ptr_Glob->variant.var_1.Int_Comp);
   101ac:	000277b7          	lui	a5,0x27
   101b0:	d207b603          	ld	a2,-736(a5) # 26d20 <Ptr_Glob>
   101b4:	01060613          	addi	a2,a2,16
   101b8:	000277b7          	lui	a5,0x27
   101bc:	d187a583          	lw	a1,-744(a5) # 26d18 <Int_Glob>
   101c0:	00a00513          	li	a0,10
   101c4:	0ad000ef          	jal	10a70 <Proc_7>
/home/nancy/riscv-tools/sim/test/stdtest/dhry2.1/dhry_1.c:361
} /* Proc_3 */
   101c8:	00813083          	ld	ra,8(sp)
   101cc:	01010113          	addi	sp,sp,16
   101d0:	00008067          	ret

00000000000101d4 <Proc_1>:
Proc_1():
/home/nancy/riscv-tools/sim/test/stdtest/dhry2.1/dhry_1.c:297
Proc_1 (Ptr_Val_Par)
/******************/

REG Rec_Pointer Ptr_Val_Par;
    /* executed once */
{
   101d4:	fe010113          	addi	sp,sp,-32
   101d8:	00113c23          	sd	ra,24(sp)
   101dc:	00813823          	sd	s0,16(sp)
   101e0:	00913423          	sd	s1,8(sp)
   101e4:	00050493          	mv	s1,a0
/home/nancy/riscv-tools/sim/test/stdtest/dhry2.1/dhry_1.c:298
  REG Rec_Pointer Next_Record = Ptr_Val_Par->Ptr_Comp;  
   101e8:	00053403          	ld	s0,0(a0)
/home/nancy/riscv-tools/sim/test/stdtest/dhry2.1/dhry_1.c:303
                                        /* == Ptr_Glob_Next */
  /* Local variable, initialized with Ptr_Val_Par->Ptr_Comp,    */
  /* corresponds to "rename" in Ada, "with" in Pascal           */
  
  structassign (*Ptr_Val_Par->Ptr_Comp, *Ptr_Glob); 
   101ec:	03800613          	li	a2,56
   101f0:	000277b7          	lui	a5,0x27
   101f4:	d207b583          	ld	a1,-736(a5) # 26d20 <Ptr_Glob>
   101f8:	00040513          	mv	a0,s0
   101fc:	7d8000ef          	jal	109d4 <memcpy>
/home/nancy/riscv-tools/sim/test/stdtest/dhry2.1/dhry_1.c:304
  Ptr_Val_Par->variant.var_1.Int_Comp = 5;
   10200:	00500793          	li	a5,5
   10204:	00f4a823          	sw	a5,16(s1)
/home/nancy/riscv-tools/sim/test/stdtest/dhry2.1/dhry_1.c:306
  Next_Record->variant.var_1.Int_Comp 
        = Ptr_Val_Par->variant.var_1.Int_Comp;
   10208:	00f42823          	sw	a5,16(s0)
/home/nancy/riscv-tools/sim/test/stdtest/dhry2.1/dhry_1.c:307
  Next_Record->Ptr_Comp = Ptr_Val_Par->Ptr_Comp;
   1020c:	0004b783          	ld	a5,0(s1)
   10210:	00f43023          	sd	a5,0(s0)
/home/nancy/riscv-tools/sim/test/stdtest/dhry2.1/dhry_1.c:308
  Proc_3 (&Next_Record->Ptr_Comp);
   10214:	00040513          	mv	a0,s0
   10218:	f79ff0ef          	jal	10190 <Proc_3>
/home/nancy/riscv-tools/sim/test/stdtest/dhry2.1/dhry_1.c:311
    /* Ptr_Val_Par->Ptr_Comp->Ptr_Comp 
                        == Ptr_Glob->Ptr_Comp */
  if (Next_Record->Discr == Ident_1)
   1021c:	00842783          	lw	a5,8(s0)
   10220:	02079e63          	bnez	a5,1025c <Proc_1+0x88>
/home/nancy/riscv-tools/sim/test/stdtest/dhry2.1/dhry_1.c:314
    /* then, executed */
  {
    Next_Record->variant.var_1.Int_Comp = 6;
   10224:	00600793          	li	a5,6
   10228:	00f42823          	sw	a5,16(s0)
/home/nancy/riscv-tools/sim/test/stdtest/dhry2.1/dhry_1.c:315
    Proc_6 (Ptr_Val_Par->variant.var_1.Enum_Comp, 
   1022c:	00c40593          	addi	a1,s0,12
   10230:	00c4a503          	lw	a0,12(s1)
   10234:	7c8000ef          	jal	109fc <Proc_6>
/home/nancy/riscv-tools/sim/test/stdtest/dhry2.1/dhry_1.c:317
           &Next_Record->variant.var_1.Enum_Comp);
    Next_Record->Ptr_Comp = Ptr_Glob->Ptr_Comp;
   10238:	000277b7          	lui	a5,0x27
   1023c:	d207b783          	ld	a5,-736(a5) # 26d20 <Ptr_Glob>
   10240:	0007b783          	ld	a5,0(a5)
   10244:	00f43023          	sd	a5,0(s0)
/home/nancy/riscv-tools/sim/test/stdtest/dhry2.1/dhry_1.c:318
    Proc_7 (Next_Record->variant.var_1.Int_Comp, 10, 
   10248:	01040613          	addi	a2,s0,16
   1024c:	00a00593          	li	a1,10
   10250:	01042503          	lw	a0,16(s0)
   10254:	01d000ef          	jal	10a70 <Proc_7>
   10258:	0140006f          	j	1026c <Proc_1+0x98>
/home/nancy/riscv-tools/sim/test/stdtest/dhry2.1/dhry_1.c:322
           &Next_Record->variant.var_1.Int_Comp);
  }
  else /* not executed */
    structassign (*Ptr_Val_Par, *Ptr_Val_Par->Ptr_Comp);
   1025c:	03800613          	li	a2,56
   10260:	0004b583          	ld	a1,0(s1)
   10264:	00048513          	mv	a0,s1
   10268:	76c000ef          	jal	109d4 <memcpy>
/home/nancy/riscv-tools/sim/test/stdtest/dhry2.1/dhry_1.c:323
} /* Proc_1 */
   1026c:	01813083          	ld	ra,24(sp)
   10270:	01013403          	ld	s0,16(sp)
   10274:	00813483          	ld	s1,8(sp)
   10278:	02010113          	addi	sp,sp,32
   1027c:	00008067          	ret

0000000000010280 <Proc_4>:
Proc_4():
/home/nancy/riscv-tools/sim/test/stdtest/dhry2.1/dhry_1.c:371
    /* executed once */
{
  Boolean Bool_Loc;

  Bool_Loc = Ch_1_Glob == 'A';
  Bool_Glob = Bool_Loc | Bool_Glob;
   10280:	000276b7          	lui	a3,0x27
/home/nancy/riscv-tools/sim/test/stdtest/dhry2.1/dhry_1.c:370
/*******/
    /* executed once */
{
  Boolean Bool_Loc;

  Bool_Loc = Ch_1_Glob == 'A';
   10284:	000277b7          	lui	a5,0x27
/home/nancy/riscv-tools/sim/test/stdtest/dhry2.1/dhry_1.c:371
  Bool_Glob = Bool_Loc | Bool_Glob;
   10288:	d1c7c783          	lbu	a5,-740(a5) # 26d1c <Ch_1_Glob>
   1028c:	fbf7879b          	addiw	a5,a5,-65
   10290:	0017b793          	seqz	a5,a5
   10294:	df06a703          	lw	a4,-528(a3) # 26df0 <Bool_Glob>
   10298:	00e7e7b3          	or	a5,a5,a4
   1029c:	def6a823          	sw	a5,-528(a3)
/home/nancy/riscv-tools/sim/test/stdtest/dhry2.1/dhry_1.c:372
  Ch_2_Glob = 'B';
   102a0:	04200713          	li	a4,66
   102a4:	000277b7          	lui	a5,0x27
   102a8:	d0e78ea3          	sb	a4,-739(a5) # 26d1d <Ch_2_Glob>
/home/nancy/riscv-tools/sim/test/stdtest/dhry2.1/dhry_1.c:373
} /* Proc_4 */
   102ac:	00008067          	ret

00000000000102b0 <Proc_5>:
Proc_5():
/home/nancy/riscv-tools/sim/test/stdtest/dhry2.1/dhry_1.c:380

Proc_5 () /* without parameters */
/*******/
    /* executed once */
{
  Ch_1_Glob = 'A';
   102b0:	04100713          	li	a4,65
   102b4:	000277b7          	lui	a5,0x27
   102b8:	d0e78e23          	sb	a4,-740(a5) # 26d1c <Ch_1_Glob>
/home/nancy/riscv-tools/sim/test/stdtest/dhry2.1/dhry_1.c:381
  Bool_Glob = false;
   102bc:	000277b7          	lui	a5,0x27
   102c0:	de07a823          	sw	zero,-528(a5) # 26df0 <Bool_Glob>
/home/nancy/riscv-tools/sim/test/stdtest/dhry2.1/dhry_1.c:382
} /* Proc_5 */
   102c4:	00008067          	ret

00000000000102c8 <main>:
main():
/home/nancy/riscv-tools/sim/test/stdtest/dhry2.1/dhry_1.c:78
main ()
/*****/

  /* main program, corresponds to procedures        */
  /* Main and Proc_0 in the Ada version             */
{
   102c8:	f3010113          	addi	sp,sp,-208
   102cc:	0c113423          	sd	ra,200(sp)
   102d0:	0c813023          	sd	s0,192(sp)
   102d4:	0a913c23          	sd	s1,184(sp)
   102d8:	0b213823          	sd	s2,176(sp)
   102dc:	0b313423          	sd	s3,168(sp)
   102e0:	0b413023          	sd	s4,160(sp)
   102e4:	09513c23          	sd	s5,152(sp)
   102e8:	09613823          	sd	s6,144(sp)
   102ec:	09713423          	sd	s7,136(sp)
   102f0:	09813023          	sd	s8,128(sp)
   102f4:	07913c23          	sd	s9,120(sp)
   102f8:	07a13823          	sd	s10,112(sp)
   102fc:	07b13423          	sd	s11,104(sp)
/home/nancy/riscv-tools/sim/test/stdtest/dhry2.1/dhry_1.c:91
  REG   int             Run_Index;
  REG   int             Number_Of_Runs;

  /* Initializations */

  Next_Ptr_Glob = (Rec_Pointer) malloc (sizeof (Rec_Type));
   10300:	03800513          	li	a0,56
   10304:	1f1000ef          	jal	10cf4 <malloc>
   10308:	000274b7          	lui	s1,0x27
   1030c:	d0a4b823          	sd	a0,-752(s1) # 26d10 <Next_Ptr_Glob>
/home/nancy/riscv-tools/sim/test/stdtest/dhry2.1/dhry_1.c:92
  Ptr_Glob = (Rec_Pointer) malloc (sizeof (Rec_Type));
   10310:	03800513          	li	a0,56
   10314:	1e1000ef          	jal	10cf4 <malloc>
   10318:	000277b7          	lui	a5,0x27
   1031c:	d2a7b023          	sd	a0,-736(a5) # 26d20 <Ptr_Glob>
/home/nancy/riscv-tools/sim/test/stdtest/dhry2.1/dhry_1.c:94

  Ptr_Glob->Ptr_Comp                    = Next_Ptr_Glob;
   10320:	d104b703          	ld	a4,-752(s1)
   10324:	00e53023          	sd	a4,0(a0)
/home/nancy/riscv-tools/sim/test/stdtest/dhry2.1/dhry_1.c:95
  Ptr_Glob->Discr                       = Ident_1;
   10328:	d207b503          	ld	a0,-736(a5)
   1032c:	00052423          	sw	zero,8(a0)
/home/nancy/riscv-tools/sim/test/stdtest/dhry2.1/dhry_1.c:96
  Ptr_Glob->variant.var_1.Enum_Comp     = Ident_3;
   10330:	00200793          	li	a5,2
   10334:	00f52623          	sw	a5,12(a0)
/home/nancy/riscv-tools/sim/test/stdtest/dhry2.1/dhry_1.c:97
  Ptr_Glob->variant.var_1.Int_Comp      = 40;
   10338:	02800793          	li	a5,40
   1033c:	00f52823          	sw	a5,16(a0)
/home/nancy/riscv-tools/sim/test/stdtest/dhry2.1/dhry_1.c:98
  strcpy (Ptr_Glob->variant.var_1.Str_Comp, 
   10340:	01f00613          	li	a2,31
   10344:	000215b7          	lui	a1,0x21
   10348:	50058593          	addi	a1,a1,1280 # 21500 <zeroes.4123+0x10>
   1034c:	01450513          	addi	a0,a0,20
   10350:	684000ef          	jal	109d4 <memcpy>
/home/nancy/riscv-tools/sim/test/stdtest/dhry2.1/dhry_1.c:100
          "DHRYSTONE PROGRAM, SOME STRING");
  strcpy (Str_1_Loc, "DHRYSTONE PROGRAM, 1'ST STRING");
   10354:	000227b7          	lui	a5,0x22
   10358:	b287b703          	ld	a4,-1240(a5) # 21b28 <zeroes.4123+0x638>
   1035c:	02e13823          	sd	a4,48(sp)
   10360:	b2878793          	addi	a5,a5,-1240
   10364:	0087b703          	ld	a4,8(a5)
   10368:	02e13c23          	sd	a4,56(sp)
   1036c:	0107b703          	ld	a4,16(a5)
   10370:	04e13023          	sd	a4,64(sp)
   10374:	0187a703          	lw	a4,24(a5)
   10378:	04e12423          	sw	a4,72(sp)
   1037c:	01c7d703          	lhu	a4,28(a5)
   10380:	04e11623          	sh	a4,76(sp)
   10384:	01e7c783          	lbu	a5,30(a5)
   10388:	04f10723          	sb	a5,78(sp)
/home/nancy/riscv-tools/sim/test/stdtest/dhry2.1/dhry_1.c:102

  Arr_2_Glob [8][7] = 10;
   1038c:	00a00493          	li	s1,10
   10390:	0091aa23          	sw	s1,20(gp) # 24c54 <_gp+0x14>
/home/nancy/riscv-tools/sim/test/stdtest/dhry2.1/dhry_1.c:108
        /* Was missing in published program. Without this statement,    */
        /* Arr_2_Glob [8][7] would have an undefined value.             */
        /* Warning: With 16-Bit processors and Number_Of_Runs > 32000,  */
        /* overflow may occur for this array element.                   */

  printf ("\n");
   10394:	00048513          	mv	a0,s1
   10398:	188010ef          	jal	11520 <putchar>
/home/nancy/riscv-tools/sim/test/stdtest/dhry2.1/dhry_1.c:109
  printf ("Dhrystone Benchmark, Version 2.1 (Language: C)\n");
   1039c:	00021537          	lui	a0,0x21
   103a0:	52050513          	addi	a0,a0,1312 # 21520 <zeroes.4123+0x30>
   103a4:	3a0010ef          	jal	11744 <puts>
/home/nancy/riscv-tools/sim/test/stdtest/dhry2.1/dhry_1.c:110
  printf ("\n");
   103a8:	00048513          	mv	a0,s1
   103ac:	174010ef          	jal	11520 <putchar>
/home/nancy/riscv-tools/sim/test/stdtest/dhry2.1/dhry_1.c:111
  if (Reg)
   103b0:	8f81a783          	lw	a5,-1800(gp) # 24538 <Reg>
   103b4:	00078e63          	beqz	a5,103d0 <main+0x108>
/home/nancy/riscv-tools/sim/test/stdtest/dhry2.1/dhry_1.c:113
  {
    printf ("Program compiled with 'register' attribute\n");
   103b8:	00021537          	lui	a0,0x21
   103bc:	55050513          	addi	a0,a0,1360 # 21550 <zeroes.4123+0x60>
   103c0:	384010ef          	jal	11744 <puts>
/home/nancy/riscv-tools/sim/test/stdtest/dhry2.1/dhry_1.c:114
    printf ("\n");
   103c4:	00048513          	mv	a0,s1
   103c8:	158010ef          	jal	11520 <putchar>
   103cc:	0180006f          	j	103e4 <main+0x11c>
/home/nancy/riscv-tools/sim/test/stdtest/dhry2.1/dhry_1.c:118
  }
  else
  {
    printf ("Program compiled without 'register' attribute\n");
   103d0:	00021537          	lui	a0,0x21
   103d4:	58050513          	addi	a0,a0,1408 # 21580 <zeroes.4123+0x90>
   103d8:	36c010ef          	jal	11744 <puts>
/home/nancy/riscv-tools/sim/test/stdtest/dhry2.1/dhry_1.c:119
    printf ("\n");
   103dc:	00a00513          	li	a0,10
   103e0:	140010ef          	jal	11520 <putchar>
/home/nancy/riscv-tools/sim/test/stdtest/dhry2.1/dhry_1.c:121
  }
  printf ("Please give the number of runs through the benchmark: ");
   103e4:	00021537          	lui	a0,0x21
   103e8:	5b050513          	addi	a0,a0,1456 # 215b0 <zeroes.4123+0xc0>
   103ec:	0dc010ef          	jal	114c8 <printf>
/home/nancy/riscv-tools/sim/test/stdtest/dhry2.1/dhry_1.c:124
  {
    int n;
    scanf ("%d", &n);
   103f0:	00c10593          	addi	a1,sp,12
   103f4:	00021537          	lui	a0,0x21
   103f8:	5e850513          	addi	a0,a0,1512 # 215e8 <zeroes.4123+0xf8>
   103fc:	354010ef          	jal	11750 <scanf>
/home/nancy/riscv-tools/sim/test/stdtest/dhry2.1/dhry_1.c:125
    Number_Of_Runs = n;
   10400:	00c12c83          	lw	s9,12(sp)
/home/nancy/riscv-tools/sim/test/stdtest/dhry2.1/dhry_1.c:127
  }
  printf ("\n");
   10404:	00a00513          	li	a0,10
   10408:	118010ef          	jal	11520 <putchar>
/home/nancy/riscv-tools/sim/test/stdtest/dhry2.1/dhry_1.c:129

  printf ("Execution starts, %d runs through Dhrystone\n", Number_Of_Runs);
   1040c:	000c8593          	mv	a1,s9
   10410:	00021537          	lui	a0,0x21
   10414:	5f050513          	addi	a0,a0,1520 # 215f0 <zeroes.4123+0x100>
   10418:	0b0010ef          	jal	114c8 <printf>
/home/nancy/riscv-tools/sim/test/stdtest/dhry2.1/dhry_1.c:136
  /***************/
  /* Start timer */
  /***************/
 
#ifdef TIMES
  times (&time_info);
   1041c:	000274b7          	lui	s1,0x27
   10420:	df848513          	addi	a0,s1,-520 # 26df8 <time_info>
   10424:	7f90f0ef          	jal	2041c <times>
/home/nancy/riscv-tools/sim/test/stdtest/dhry2.1/dhry_1.c:137
  Begin_Time = (long) time_info.tms_utime;
   10428:	df84b703          	ld	a4,-520(s1)
   1042c:	9ae1b823          	sd	a4,-1616(gp) # 245f0 <Begin_Time>
/home/nancy/riscv-tools/sim/test/stdtest/dhry2.1/dhry_1.c:146
#endif
#ifdef MSC_CLOCK
  Begin_Time = clock();
#endif

  for (Run_Index = 1; Run_Index <= Number_Of_Runs; ++Run_Index)
   10430:	19905a63          	blez	s9,105c4 <main+0x2fc>
   10434:	00100a13          	li	s4,1
/home/nancy/riscv-tools/sim/test/stdtest/dhry2.1/dhry_1.c:154
    Proc_5();
    Proc_4();
      /* Ch_1_Glob == 'A', Ch_2_Glob == 'B', Bool_Glob == true */
    Int_1_Loc = 2;
    Int_2_Loc = 3;
    strcpy (Str_2_Loc, "DHRYSTONE PROGRAM, 2'ND STRING");
   10438:	00022d37          	lui	s10,0x22
   1043c:	b48d3d83          	ld	s11,-1208(s10) # 21b48 <zeroes.4123+0x658>
/home/nancy/riscv-tools/sim/test/stdtest/dhry2.1/dhry_1.c:162
      /* Bool_Glob == 1 */
    while (Int_1_Loc < Int_2_Loc)  /* loop body executed once */
    {
      Int_3_Loc = 5 * Int_1_Loc - Int_2_Loc;
        /* Int_3_Loc == 7 */
      Proc_7 (Int_1_Loc, Int_2_Loc, &Int_3_Loc);
   10440:	00300493          	li	s1,3
/home/nancy/riscv-tools/sim/test/stdtest/dhry2.1/dhry_1.c:177
    {
      if (Enum_Loc == Func_1 (Ch_Index, 'C'))
          /* then, not executed */
        {
        Proc_6 (Ident_1, &Enum_Loc);
        strcpy (Str_2_Loc, "DHRYSTONE PROGRAM, 3'RD STRING");
   10444:	00022bb7          	lui	s7,0x22
   10448:	b68bbc03          	ld	s8,-1176(s7) # 21b68 <zeroes.4123+0x678>
/home/nancy/riscv-tools/sim/test/stdtest/dhry2.1/dhry_1.c:149
#endif

  for (Run_Index = 1; Run_Index <= Number_Of_Runs; ++Run_Index)
  {

    Proc_5();
   1044c:	e65ff0ef          	jal	102b0 <Proc_5>
/home/nancy/riscv-tools/sim/test/stdtest/dhry2.1/dhry_1.c:150
    Proc_4();
   10450:	e31ff0ef          	jal	10280 <Proc_4>
/home/nancy/riscv-tools/sim/test/stdtest/dhry2.1/dhry_1.c:152
      /* Ch_1_Glob == 'A', Ch_2_Glob == 'B', Bool_Glob == true */
    Int_1_Loc = 2;
   10454:	00200413          	li	s0,2
   10458:	04812e23          	sw	s0,92(sp)
/home/nancy/riscv-tools/sim/test/stdtest/dhry2.1/dhry_1.c:154
    Int_2_Loc = 3;
    strcpy (Str_2_Loc, "DHRYSTONE PROGRAM, 2'ND STRING");
   1045c:	01b13823          	sd	s11,16(sp)
   10460:	b48d0793          	addi	a5,s10,-1208
   10464:	0087b703          	ld	a4,8(a5)
   10468:	00e13c23          	sd	a4,24(sp)
   1046c:	0107b703          	ld	a4,16(a5)
   10470:	02e13023          	sd	a4,32(sp)
   10474:	0187a703          	lw	a4,24(a5)
   10478:	02e12423          	sw	a4,40(sp)
   1047c:	01c7d703          	lhu	a4,28(a5)
   10480:	02e11623          	sh	a4,44(sp)
   10484:	01e7c783          	lbu	a5,30(a5)
   10488:	02f10723          	sb	a5,46(sp)
/home/nancy/riscv-tools/sim/test/stdtest/dhry2.1/dhry_1.c:155
    Enum_Loc = Ident_2;
   1048c:	00100793          	li	a5,1
   10490:	04f12a23          	sw	a5,84(sp)
/home/nancy/riscv-tools/sim/test/stdtest/dhry2.1/dhry_1.c:156
    Bool_Glob = ! Func_2 (Str_1_Loc, Str_2_Loc);
   10494:	01010593          	addi	a1,sp,16
   10498:	03010513          	addi	a0,sp,48
   1049c:	69c000ef          	jal	10b38 <Func_2>
   104a0:	00153513          	seqz	a0,a0
   104a4:	000277b7          	lui	a5,0x27
   104a8:	dea7a823          	sw	a0,-528(a5) # 26df0 <Bool_Glob>
/home/nancy/riscv-tools/sim/test/stdtest/dhry2.1/dhry_1.c:158
      /* Bool_Glob == 1 */
    while (Int_1_Loc < Int_2_Loc)  /* loop body executed once */
   104ac:	05c12503          	lw	a0,92(sp)
   104b0:	02a44863          	blt	s0,a0,104e0 <main+0x218>
/home/nancy/riscv-tools/sim/test/stdtest/dhry2.1/dhry_1.c:160
    {
      Int_3_Loc = 5 * Int_1_Loc - Int_2_Loc;
   104b4:	0025179b          	slliw	a5,a0,0x2
   104b8:	00a787bb          	addw	a5,a5,a0
   104bc:	ffd7879b          	addiw	a5,a5,-3
   104c0:	04f12c23          	sw	a5,88(sp)
/home/nancy/riscv-tools/sim/test/stdtest/dhry2.1/dhry_1.c:162
        /* Int_3_Loc == 7 */
      Proc_7 (Int_1_Loc, Int_2_Loc, &Int_3_Loc);
   104c4:	05810613          	addi	a2,sp,88
   104c8:	00048593          	mv	a1,s1
   104cc:	5a4000ef          	jal	10a70 <Proc_7>
/home/nancy/riscv-tools/sim/test/stdtest/dhry2.1/dhry_1.c:164
        /* Int_3_Loc == 7 */
      Int_1_Loc += 1;
   104d0:	05c12503          	lw	a0,92(sp)
   104d4:	0015051b          	addiw	a0,a0,1
   104d8:	04a12e23          	sw	a0,92(sp)
/home/nancy/riscv-tools/sim/test/stdtest/dhry2.1/dhry_1.c:158
    Int_2_Loc = 3;
    strcpy (Str_2_Loc, "DHRYSTONE PROGRAM, 2'ND STRING");
    Enum_Loc = Ident_2;
    Bool_Glob = ! Func_2 (Str_1_Loc, Str_2_Loc);
      /* Bool_Glob == 1 */
    while (Int_1_Loc < Int_2_Loc)  /* loop body executed once */
   104dc:	fca45ce3          	ble	a0,s0,104b4 <main+0x1ec>
/home/nancy/riscv-tools/sim/test/stdtest/dhry2.1/dhry_1.c:167
      Proc_7 (Int_1_Loc, Int_2_Loc, &Int_3_Loc);
        /* Int_3_Loc == 7 */
      Int_1_Loc += 1;
    } /* while */
      /* Int_1_Loc == 3, Int_2_Loc == 3, Int_3_Loc == 7 */
    Proc_8 (Arr_1_Glob, Arr_2_Glob, Int_1_Loc, Int_3_Loc);
   104e0:	05812683          	lw	a3,88(sp)
   104e4:	00050613          	mv	a2,a0
   104e8:	9b818593          	addi	a1,gp,-1608 # 245f8 <Arr_2_Glob>
   104ec:	000277b7          	lui	a5,0x27
   104f0:	d2878513          	addi	a0,a5,-728 # 26d28 <Arr_1_Glob>
   104f4:	58c000ef          	jal	10a80 <Proc_8>
/home/nancy/riscv-tools/sim/test/stdtest/dhry2.1/dhry_1.c:169
      /* Int_Glob == 5 */
    Proc_1 (Ptr_Glob);
   104f8:	000277b7          	lui	a5,0x27
   104fc:	d207b503          	ld	a0,-736(a5) # 26d20 <Ptr_Glob>
   10500:	cd5ff0ef          	jal	101d4 <Proc_1>
/home/nancy/riscv-tools/sim/test/stdtest/dhry2.1/dhry_1.c:170
    for (Ch_Index = 'A'; Ch_Index <= Ch_2_Glob; ++Ch_Index)
   10504:	000277b7          	lui	a5,0x27
   10508:	d1d7c703          	lbu	a4,-739(a5) # 26d1d <Ch_2_Glob>
/home/nancy/riscv-tools/sim/test/stdtest/dhry2.1/dhry_1.c:153

    Proc_5();
    Proc_4();
      /* Ch_1_Glob == 'A', Ch_2_Glob == 'B', Bool_Glob == true */
    Int_1_Loc = 2;
    Int_2_Loc = 3;
   1050c:	00048a93          	mv	s5,s1
/home/nancy/riscv-tools/sim/test/stdtest/dhry2.1/dhry_1.c:170
    } /* while */
      /* Int_1_Loc == 3, Int_2_Loc == 3, Int_3_Loc == 7 */
    Proc_8 (Arr_1_Glob, Arr_2_Glob, Int_1_Loc, Int_3_Loc);
      /* Int_Glob == 5 */
    Proc_1 (Ptr_Glob);
    for (Ch_Index = 'A'; Ch_Index <= Ch_2_Glob; ++Ch_Index)
   10510:	04000793          	li	a5,64
   10514:	06e7fe63          	bleu	a4,a5,10590 <main+0x2c8>
   10518:	04100413          	li	s0,65
/home/nancy/riscv-tools/sim/test/stdtest/dhry2.1/dhry_1.c:173
                             /* loop body executed twice */
    {
      if (Enum_Loc == Func_1 (Ch_Index, 'C'))
   1051c:	04300993          	li	s3,67
/home/nancy/riscv-tools/sim/test/stdtest/dhry2.1/dhry_1.c:179
          /* then, not executed */
        {
        Proc_6 (Ident_1, &Enum_Loc);
        strcpy (Str_2_Loc, "DHRYSTONE PROGRAM, 3'RD STRING");
        Int_2_Loc = Run_Index;
        Int_Glob = Run_Index;
   10520:	00027b37          	lui	s6,0x27
/home/nancy/riscv-tools/sim/test/stdtest/dhry2.1/dhry_1.c:170
    } /* while */
      /* Int_1_Loc == 3, Int_2_Loc == 3, Int_3_Loc == 7 */
    Proc_8 (Arr_1_Glob, Arr_2_Glob, Int_1_Loc, Int_3_Loc);
      /* Int_Glob == 5 */
    Proc_1 (Ptr_Glob);
    for (Ch_Index = 'A'; Ch_Index <= Ch_2_Glob; ++Ch_Index)
   10524:	00027937          	lui	s2,0x27
/home/nancy/riscv-tools/sim/test/stdtest/dhry2.1/dhry_1.c:173
                             /* loop body executed twice */
    {
      if (Enum_Loc == Func_1 (Ch_Index, 'C'))
   10528:	00098593          	mv	a1,s3
   1052c:	00040513          	mv	a0,s0
   10530:	5e4000ef          	jal	10b14 <Func_1>
   10534:	05412783          	lw	a5,84(sp)
   10538:	04f51463          	bne	a0,a5,10580 <main+0x2b8>
/home/nancy/riscv-tools/sim/test/stdtest/dhry2.1/dhry_1.c:176
          /* then, not executed */
        {
        Proc_6 (Ident_1, &Enum_Loc);
   1053c:	05410593          	addi	a1,sp,84
   10540:	00000513          	li	a0,0
   10544:	4b8000ef          	jal	109fc <Proc_6>
/home/nancy/riscv-tools/sim/test/stdtest/dhry2.1/dhry_1.c:177
        strcpy (Str_2_Loc, "DHRYSTONE PROGRAM, 3'RD STRING");
   10548:	01813823          	sd	s8,16(sp)
   1054c:	b68b8793          	addi	a5,s7,-1176
   10550:	0087b703          	ld	a4,8(a5)
   10554:	00e13c23          	sd	a4,24(sp)
   10558:	0107b703          	ld	a4,16(a5)
   1055c:	02e13023          	sd	a4,32(sp)
   10560:	0187a703          	lw	a4,24(a5)
   10564:	02e12423          	sw	a4,40(sp)
   10568:	01c7d703          	lhu	a4,28(a5)
   1056c:	02e11623          	sh	a4,44(sp)
   10570:	01e7c783          	lbu	a5,30(a5)
   10574:	02f10723          	sb	a5,46(sp)
/home/nancy/riscv-tools/sim/test/stdtest/dhry2.1/dhry_1.c:179
        Int_2_Loc = Run_Index;
        Int_Glob = Run_Index;
   10578:	d14b2c23          	sw	s4,-744(s6) # 26d18 <Int_Glob>
   1057c:	000a0a93          	mv	s5,s4
/home/nancy/riscv-tools/sim/test/stdtest/dhry2.1/dhry_1.c:170 (discriminator 2)
    } /* while */
      /* Int_1_Loc == 3, Int_2_Loc == 3, Int_3_Loc == 7 */
    Proc_8 (Arr_1_Glob, Arr_2_Glob, Int_1_Loc, Int_3_Loc);
      /* Int_Glob == 5 */
    Proc_1 (Ptr_Glob);
    for (Ch_Index = 'A'; Ch_Index <= Ch_2_Glob; ++Ch_Index)
   10580:	0014041b          	addiw	s0,s0,1
   10584:	0ff47413          	andi	s0,s0,255
   10588:	d1d94783          	lbu	a5,-739(s2) # 26d1d <Ch_2_Glob>
   1058c:	f887fee3          	bleu	s0,a5,10528 <main+0x260>
/home/nancy/riscv-tools/sim/test/stdtest/dhry2.1/dhry_1.c:183
        Int_2_Loc = Run_Index;
        Int_Glob = Run_Index;
        }
    }
      /* Int_1_Loc == 3, Int_2_Loc == 3, Int_3_Loc == 7 */
    Int_2_Loc = Int_2_Loc * Int_1_Loc;
   10590:	05c12783          	lw	a5,92(sp)
   10594:	02fa8abb          	mulw	s5,s5,a5
/home/nancy/riscv-tools/sim/test/stdtest/dhry2.1/dhry_1.c:184
    Int_1_Loc = Int_2_Loc / Int_3_Loc;
   10598:	05812903          	lw	s2,88(sp)
   1059c:	032ac43b          	divw	s0,s5,s2
   105a0:	04812e23          	sw	s0,92(sp)
/home/nancy/riscv-tools/sim/test/stdtest/dhry2.1/dhry_1.c:187
    Int_2_Loc = 7 * (Int_2_Loc - Int_3_Loc) - Int_1_Loc;
      /* Int_1_Loc == 1, Int_2_Loc == 13, Int_3_Loc == 7 */
    Proc_2 (&Int_1_Loc);
   105a4:	05c10513          	addi	a0,sp,92
   105a8:	bbdff0ef          	jal	10164 <Proc_2>
/home/nancy/riscv-tools/sim/test/stdtest/dhry2.1/dhry_1.c:146
#endif
#ifdef MSC_CLOCK
  Begin_Time = clock();
#endif

  for (Run_Index = 1; Run_Index <= Number_Of_Runs; ++Run_Index)
   105ac:	001a0a1b          	addiw	s4,s4,1
   105b0:	e94cdee3          	ble	s4,s9,1044c <main+0x184>
/home/nancy/riscv-tools/sim/test/stdtest/dhry2.1/dhry_1.c:185
        }
    }
      /* Int_1_Loc == 3, Int_2_Loc == 3, Int_3_Loc == 7 */
    Int_2_Loc = Int_2_Loc * Int_1_Loc;
    Int_1_Loc = Int_2_Loc / Int_3_Loc;
    Int_2_Loc = 7 * (Int_2_Loc - Int_3_Loc) - Int_1_Loc;
   105b4:	412a8abb          	subw	s5,s5,s2
   105b8:	003a979b          	slliw	a5,s5,0x3
   105bc:	41578abb          	subw	s5,a5,s5
   105c0:	408a843b          	subw	s0,s5,s0
/home/nancy/riscv-tools/sim/test/stdtest/dhry2.1/dhry_1.c:197
  /**************/
  /* Stop timer */
  /**************/
  
#ifdef TIMES
  times (&time_info);
   105c4:	000274b7          	lui	s1,0x27
   105c8:	df848513          	addi	a0,s1,-520 # 26df8 <time_info>
   105cc:	6510f0ef          	jal	2041c <times>
/home/nancy/riscv-tools/sim/test/stdtest/dhry2.1/dhry_1.c:198
  End_Time = (long) time_info.tms_utime;
   105d0:	000279b7          	lui	s3,0x27
   105d4:	df84b783          	ld	a5,-520(s1)
   105d8:	d0f9b423          	sd	a5,-760(s3) # 26d08 <End_Time>
/home/nancy/riscv-tools/sim/test/stdtest/dhry2.1/dhry_1.c:207
#endif
#ifdef MSC_CLOCK
  End_Time = clock();
#endif

  printf ("Execution ends\n");
   105dc:	00021537          	lui	a0,0x21
   105e0:	62050513          	addi	a0,a0,1568 # 21620 <zeroes.4123+0x130>
   105e4:	160010ef          	jal	11744 <puts>
/home/nancy/riscv-tools/sim/test/stdtest/dhry2.1/dhry_1.c:208
  printf ("\n");
   105e8:	00a00513          	li	a0,10
   105ec:	735000ef          	jal	11520 <putchar>
/home/nancy/riscv-tools/sim/test/stdtest/dhry2.1/dhry_1.c:209
  printf ("Final values of the variables used in the benchmark:\n");
   105f0:	00021537          	lui	a0,0x21
   105f4:	63050513          	addi	a0,a0,1584 # 21630 <zeroes.4123+0x140>
   105f8:	14c010ef          	jal	11744 <puts>
/home/nancy/riscv-tools/sim/test/stdtest/dhry2.1/dhry_1.c:210
  printf ("\n");
   105fc:	00a00513          	li	a0,10
   10600:	721000ef          	jal	11520 <putchar>
/home/nancy/riscv-tools/sim/test/stdtest/dhry2.1/dhry_1.c:211
  printf ("Int_Glob:            %d\n", Int_Glob);
   10604:	000277b7          	lui	a5,0x27
   10608:	d187a583          	lw	a1,-744(a5) # 26d18 <Int_Glob>
   1060c:	00021537          	lui	a0,0x21
   10610:	66850513          	addi	a0,a0,1640 # 21668 <zeroes.4123+0x178>
   10614:	6b5000ef          	jal	114c8 <printf>
/home/nancy/riscv-tools/sim/test/stdtest/dhry2.1/dhry_1.c:212
  printf ("        should be:   %d\n", 5);
   10618:	00500593          	li	a1,5
   1061c:	000214b7          	lui	s1,0x21
   10620:	68848513          	addi	a0,s1,1672 # 21688 <zeroes.4123+0x198>
   10624:	6a5000ef          	jal	114c8 <printf>
/home/nancy/riscv-tools/sim/test/stdtest/dhry2.1/dhry_1.c:213
  printf ("Bool_Glob:           %d\n", Bool_Glob);
   10628:	000277b7          	lui	a5,0x27
   1062c:	df07a583          	lw	a1,-528(a5) # 26df0 <Bool_Glob>
   10630:	00021537          	lui	a0,0x21
   10634:	6a850513          	addi	a0,a0,1704 # 216a8 <zeroes.4123+0x1b8>
   10638:	691000ef          	jal	114c8 <printf>
/home/nancy/riscv-tools/sim/test/stdtest/dhry2.1/dhry_1.c:214
  printf ("        should be:   %d\n", 1);
   1063c:	00100593          	li	a1,1
   10640:	68848513          	addi	a0,s1,1672
   10644:	685000ef          	jal	114c8 <printf>
/home/nancy/riscv-tools/sim/test/stdtest/dhry2.1/dhry_1.c:215
  printf ("Ch_1_Glob:           %c\n", Ch_1_Glob);
   10648:	000277b7          	lui	a5,0x27
   1064c:	d1c7c583          	lbu	a1,-740(a5) # 26d1c <Ch_1_Glob>
   10650:	00021537          	lui	a0,0x21
   10654:	6c850513          	addi	a0,a0,1736 # 216c8 <zeroes.4123+0x1d8>
   10658:	671000ef          	jal	114c8 <printf>
/home/nancy/riscv-tools/sim/test/stdtest/dhry2.1/dhry_1.c:216
  printf ("        should be:   %c\n", 'A');
   1065c:	04100593          	li	a1,65
   10660:	00021937          	lui	s2,0x21
   10664:	6e890513          	addi	a0,s2,1768 # 216e8 <zeroes.4123+0x1f8>
   10668:	661000ef          	jal	114c8 <printf>
/home/nancy/riscv-tools/sim/test/stdtest/dhry2.1/dhry_1.c:217
  printf ("Ch_2_Glob:           %c\n", Ch_2_Glob);
   1066c:	000277b7          	lui	a5,0x27
   10670:	d1d7c583          	lbu	a1,-739(a5) # 26d1d <Ch_2_Glob>
   10674:	00021537          	lui	a0,0x21
   10678:	70850513          	addi	a0,a0,1800 # 21708 <zeroes.4123+0x218>
   1067c:	64d000ef          	jal	114c8 <printf>
/home/nancy/riscv-tools/sim/test/stdtest/dhry2.1/dhry_1.c:218
  printf ("        should be:   %c\n", 'B');
   10680:	04200593          	li	a1,66
   10684:	6e890513          	addi	a0,s2,1768
   10688:	641000ef          	jal	114c8 <printf>
/home/nancy/riscv-tools/sim/test/stdtest/dhry2.1/dhry_1.c:219
  printf ("Arr_1_Glob[8]:       %d\n", Arr_1_Glob[8]);
   1068c:	000277b7          	lui	a5,0x27
   10690:	d487a583          	lw	a1,-696(a5) # 26d48 <Arr_1_Glob+0x20>
   10694:	00021537          	lui	a0,0x21
   10698:	72850513          	addi	a0,a0,1832 # 21728 <zeroes.4123+0x238>
   1069c:	62d000ef          	jal	114c8 <printf>
/home/nancy/riscv-tools/sim/test/stdtest/dhry2.1/dhry_1.c:220
  printf ("        should be:   %d\n", 7);
   106a0:	00700593          	li	a1,7
   106a4:	68848513          	addi	a0,s1,1672
   106a8:	621000ef          	jal	114c8 <printf>
/home/nancy/riscv-tools/sim/test/stdtest/dhry2.1/dhry_1.c:221
  printf ("Arr_2_Glob[8][7]:    %d\n", Arr_2_Glob[8][7]);
   106ac:	0141a583          	lw	a1,20(gp) # 24c54 <_gp+0x14>
   106b0:	00021537          	lui	a0,0x21
   106b4:	74850513          	addi	a0,a0,1864 # 21748 <zeroes.4123+0x258>
   106b8:	611000ef          	jal	114c8 <printf>
/home/nancy/riscv-tools/sim/test/stdtest/dhry2.1/dhry_1.c:222
  printf ("        should be:   Number_Of_Runs + 10\n");
   106bc:	00021537          	lui	a0,0x21
   106c0:	76850513          	addi	a0,a0,1896 # 21768 <zeroes.4123+0x278>
   106c4:	080010ef          	jal	11744 <puts>
/home/nancy/riscv-tools/sim/test/stdtest/dhry2.1/dhry_1.c:223
  printf ("Ptr_Glob->\n");
   106c8:	00021537          	lui	a0,0x21
   106cc:	79850513          	addi	a0,a0,1944 # 21798 <zeroes.4123+0x2a8>
   106d0:	074010ef          	jal	11744 <puts>
/home/nancy/riscv-tools/sim/test/stdtest/dhry2.1/dhry_1.c:224
  printf ("  Ptr_Comp:          %d\n", (int) Ptr_Glob->Ptr_Comp);
   106d4:	00027937          	lui	s2,0x27
   106d8:	d2093783          	ld	a5,-736(s2) # 26d20 <Ptr_Glob>
   106dc:	0007a583          	lw	a1,0(a5)
   106e0:	00021d37          	lui	s10,0x21
   106e4:	7a8d0513          	addi	a0,s10,1960 # 217a8 <zeroes.4123+0x2b8>
   106e8:	5e1000ef          	jal	114c8 <printf>
/home/nancy/riscv-tools/sim/test/stdtest/dhry2.1/dhry_1.c:225
  printf ("        should be:   (implementation-dependent)\n");
   106ec:	00021537          	lui	a0,0x21
   106f0:	7c850513          	addi	a0,a0,1992 # 217c8 <zeroes.4123+0x2d8>
   106f4:	050010ef          	jal	11744 <puts>
/home/nancy/riscv-tools/sim/test/stdtest/dhry2.1/dhry_1.c:226
  printf ("  Discr:             %d\n", Ptr_Glob->Discr);
   106f8:	d2093783          	ld	a5,-736(s2)
   106fc:	0087a583          	lw	a1,8(a5)
   10700:	00021c37          	lui	s8,0x21
   10704:	7f8c0513          	addi	a0,s8,2040 # 217f8 <zeroes.4123+0x308>
   10708:	5c1000ef          	jal	114c8 <printf>
/home/nancy/riscv-tools/sim/test/stdtest/dhry2.1/dhry_1.c:227
  printf ("        should be:   %d\n", 0);
   1070c:	00000593          	li	a1,0
   10710:	68848513          	addi	a0,s1,1672
   10714:	5b5000ef          	jal	114c8 <printf>
/home/nancy/riscv-tools/sim/test/stdtest/dhry2.1/dhry_1.c:228
  printf ("  Enum_Comp:         %d\n", Ptr_Glob->variant.var_1.Enum_Comp);
   10718:	d2093783          	ld	a5,-736(s2)
   1071c:	00c7a583          	lw	a1,12(a5)
   10720:	00022bb7          	lui	s7,0x22
   10724:	818b8513          	addi	a0,s7,-2024 # 21818 <zeroes.4123+0x328>
   10728:	5a1000ef          	jal	114c8 <printf>
/home/nancy/riscv-tools/sim/test/stdtest/dhry2.1/dhry_1.c:229
  printf ("        should be:   %d\n", 2);
   1072c:	00200593          	li	a1,2
   10730:	68848513          	addi	a0,s1,1672
   10734:	595000ef          	jal	114c8 <printf>
/home/nancy/riscv-tools/sim/test/stdtest/dhry2.1/dhry_1.c:230
  printf ("  Int_Comp:          %d\n", Ptr_Glob->variant.var_1.Int_Comp);
   10738:	d2093783          	ld	a5,-736(s2)
   1073c:	0107a583          	lw	a1,16(a5)
   10740:	00022b37          	lui	s6,0x22
   10744:	838b0513          	addi	a0,s6,-1992 # 21838 <zeroes.4123+0x348>
   10748:	581000ef          	jal	114c8 <printf>
/home/nancy/riscv-tools/sim/test/stdtest/dhry2.1/dhry_1.c:231
  printf ("        should be:   %d\n", 17);
   1074c:	01100593          	li	a1,17
   10750:	68848513          	addi	a0,s1,1672
   10754:	575000ef          	jal	114c8 <printf>
/home/nancy/riscv-tools/sim/test/stdtest/dhry2.1/dhry_1.c:232
  printf ("  Str_Comp:          %s\n", Ptr_Glob->variant.var_1.Str_Comp);
   10758:	d2093583          	ld	a1,-736(s2)
   1075c:	01458593          	addi	a1,a1,20
   10760:	00022ab7          	lui	s5,0x22
   10764:	858a8513          	addi	a0,s5,-1960 # 21858 <zeroes.4123+0x368>
   10768:	561000ef          	jal	114c8 <printf>
/home/nancy/riscv-tools/sim/test/stdtest/dhry2.1/dhry_1.c:233
  printf ("        should be:   DHRYSTONE PROGRAM, SOME STRING\n");
   1076c:	00022a37          	lui	s4,0x22
   10770:	878a0513          	addi	a0,s4,-1928 # 21878 <zeroes.4123+0x388>
   10774:	7d1000ef          	jal	11744 <puts>
/home/nancy/riscv-tools/sim/test/stdtest/dhry2.1/dhry_1.c:234
  printf ("Next_Ptr_Glob->\n");
   10778:	00022537          	lui	a0,0x22
   1077c:	8b050513          	addi	a0,a0,-1872 # 218b0 <zeroes.4123+0x3c0>
   10780:	7c5000ef          	jal	11744 <puts>
/home/nancy/riscv-tools/sim/test/stdtest/dhry2.1/dhry_1.c:235
  printf ("  Ptr_Comp:          %d\n", (int) Next_Ptr_Glob->Ptr_Comp);
   10784:	00027937          	lui	s2,0x27
   10788:	d1093783          	ld	a5,-752(s2) # 26d10 <Next_Ptr_Glob>
   1078c:	0007a583          	lw	a1,0(a5)
   10790:	7a8d0513          	addi	a0,s10,1960
   10794:	535000ef          	jal	114c8 <printf>
/home/nancy/riscv-tools/sim/test/stdtest/dhry2.1/dhry_1.c:236
  printf ("        should be:   (implementation-dependent), same as above\n");
   10798:	00022537          	lui	a0,0x22
   1079c:	8c050513          	addi	a0,a0,-1856 # 218c0 <zeroes.4123+0x3d0>
   107a0:	7a5000ef          	jal	11744 <puts>
/home/nancy/riscv-tools/sim/test/stdtest/dhry2.1/dhry_1.c:237
  printf ("  Discr:             %d\n", Next_Ptr_Glob->Discr);
   107a4:	d1093783          	ld	a5,-752(s2)
   107a8:	0087a583          	lw	a1,8(a5)
   107ac:	7f8c0513          	addi	a0,s8,2040
   107b0:	519000ef          	jal	114c8 <printf>
/home/nancy/riscv-tools/sim/test/stdtest/dhry2.1/dhry_1.c:238
  printf ("        should be:   %d\n", 0);
   107b4:	00000593          	li	a1,0
   107b8:	68848513          	addi	a0,s1,1672
   107bc:	50d000ef          	jal	114c8 <printf>
/home/nancy/riscv-tools/sim/test/stdtest/dhry2.1/dhry_1.c:239
  printf ("  Enum_Comp:         %d\n", Next_Ptr_Glob->variant.var_1.Enum_Comp);
   107c0:	d1093783          	ld	a5,-752(s2)
   107c4:	00c7a583          	lw	a1,12(a5)
   107c8:	818b8513          	addi	a0,s7,-2024
   107cc:	4fd000ef          	jal	114c8 <printf>
/home/nancy/riscv-tools/sim/test/stdtest/dhry2.1/dhry_1.c:240
  printf ("        should be:   %d\n", 1);
   107d0:	00100593          	li	a1,1
   107d4:	68848513          	addi	a0,s1,1672
   107d8:	4f1000ef          	jal	114c8 <printf>
/home/nancy/riscv-tools/sim/test/stdtest/dhry2.1/dhry_1.c:241
  printf ("  Int_Comp:          %d\n", Next_Ptr_Glob->variant.var_1.Int_Comp);
   107dc:	d1093783          	ld	a5,-752(s2)
   107e0:	0107a583          	lw	a1,16(a5)
   107e4:	838b0513          	addi	a0,s6,-1992
   107e8:	4e1000ef          	jal	114c8 <printf>
/home/nancy/riscv-tools/sim/test/stdtest/dhry2.1/dhry_1.c:242
  printf ("        should be:   %d\n", 18);
   107ec:	01200593          	li	a1,18
   107f0:	68848513          	addi	a0,s1,1672
   107f4:	4d5000ef          	jal	114c8 <printf>
/home/nancy/riscv-tools/sim/test/stdtest/dhry2.1/dhry_1.c:243
  printf ("  Str_Comp:          %s\n",
   107f8:	d1093583          	ld	a1,-752(s2)
   107fc:	01458593          	addi	a1,a1,20
   10800:	858a8513          	addi	a0,s5,-1960
   10804:	4c5000ef          	jal	114c8 <printf>
/home/nancy/riscv-tools/sim/test/stdtest/dhry2.1/dhry_1.c:245
                                Next_Ptr_Glob->variant.var_1.Str_Comp);
  printf ("        should be:   DHRYSTONE PROGRAM, SOME STRING\n");
   10808:	878a0513          	addi	a0,s4,-1928
   1080c:	739000ef          	jal	11744 <puts>
/home/nancy/riscv-tools/sim/test/stdtest/dhry2.1/dhry_1.c:246
  printf ("Int_1_Loc:           %d\n", Int_1_Loc);
   10810:	05c12583          	lw	a1,92(sp)
   10814:	00022537          	lui	a0,0x22
   10818:	90050513          	addi	a0,a0,-1792 # 21900 <zeroes.4123+0x410>
   1081c:	4ad000ef          	jal	114c8 <printf>
/home/nancy/riscv-tools/sim/test/stdtest/dhry2.1/dhry_1.c:247
  printf ("        should be:   %d\n", 5);
   10820:	00500593          	li	a1,5
   10824:	68848513          	addi	a0,s1,1672
   10828:	4a1000ef          	jal	114c8 <printf>
/home/nancy/riscv-tools/sim/test/stdtest/dhry2.1/dhry_1.c:248
  printf ("Int_2_Loc:           %d\n", Int_2_Loc);
   1082c:	00040593          	mv	a1,s0
   10830:	00022537          	lui	a0,0x22
   10834:	92050513          	addi	a0,a0,-1760 # 21920 <zeroes.4123+0x430>
   10838:	491000ef          	jal	114c8 <printf>
/home/nancy/riscv-tools/sim/test/stdtest/dhry2.1/dhry_1.c:249
  printf ("        should be:   %d\n", 13);
   1083c:	00d00593          	li	a1,13
   10840:	68848513          	addi	a0,s1,1672
   10844:	485000ef          	jal	114c8 <printf>
/home/nancy/riscv-tools/sim/test/stdtest/dhry2.1/dhry_1.c:250
  printf ("Int_3_Loc:           %d\n", Int_3_Loc);
   10848:	05812583          	lw	a1,88(sp)
   1084c:	00022537          	lui	a0,0x22
   10850:	94050513          	addi	a0,a0,-1728 # 21940 <zeroes.4123+0x450>
   10854:	475000ef          	jal	114c8 <printf>
/home/nancy/riscv-tools/sim/test/stdtest/dhry2.1/dhry_1.c:251
  printf ("        should be:   %d\n", 7);
   10858:	00700593          	li	a1,7
   1085c:	68848513          	addi	a0,s1,1672
   10860:	469000ef          	jal	114c8 <printf>
/home/nancy/riscv-tools/sim/test/stdtest/dhry2.1/dhry_1.c:252
  printf ("Enum_Loc:            %d\n", Enum_Loc);
   10864:	05412583          	lw	a1,84(sp)
   10868:	00022537          	lui	a0,0x22
   1086c:	96050513          	addi	a0,a0,-1696 # 21960 <zeroes.4123+0x470>
   10870:	459000ef          	jal	114c8 <printf>
/home/nancy/riscv-tools/sim/test/stdtest/dhry2.1/dhry_1.c:253
  printf ("        should be:   %d\n", 1);
   10874:	00100593          	li	a1,1
   10878:	68848513          	addi	a0,s1,1672
   1087c:	44d000ef          	jal	114c8 <printf>
/home/nancy/riscv-tools/sim/test/stdtest/dhry2.1/dhry_1.c:254
  printf ("Str_1_Loc:           %s\n", Str_1_Loc);
   10880:	03010593          	addi	a1,sp,48
   10884:	00022537          	lui	a0,0x22
   10888:	98050513          	addi	a0,a0,-1664 # 21980 <zeroes.4123+0x490>
   1088c:	43d000ef          	jal	114c8 <printf>
/home/nancy/riscv-tools/sim/test/stdtest/dhry2.1/dhry_1.c:255
  printf ("        should be:   DHRYSTONE PROGRAM, 1'ST STRING\n");
   10890:	00022537          	lui	a0,0x22
   10894:	9a050513          	addi	a0,a0,-1632 # 219a0 <zeroes.4123+0x4b0>
   10898:	6ad000ef          	jal	11744 <puts>
/home/nancy/riscv-tools/sim/test/stdtest/dhry2.1/dhry_1.c:256
  printf ("Str_2_Loc:           %s\n", Str_2_Loc);
   1089c:	01010593          	addi	a1,sp,16
   108a0:	00022537          	lui	a0,0x22
   108a4:	9d850513          	addi	a0,a0,-1576 # 219d8 <zeroes.4123+0x4e8>
   108a8:	421000ef          	jal	114c8 <printf>
/home/nancy/riscv-tools/sim/test/stdtest/dhry2.1/dhry_1.c:257
  printf ("        should be:   DHRYSTONE PROGRAM, 2'ND STRING\n");
   108ac:	00022537          	lui	a0,0x22
   108b0:	9f850513          	addi	a0,a0,-1544 # 219f8 <zeroes.4123+0x508>
   108b4:	691000ef          	jal	11744 <puts>
/home/nancy/riscv-tools/sim/test/stdtest/dhry2.1/dhry_1.c:258
  printf ("\n");
   108b8:	00a00513          	li	a0,10
   108bc:	465000ef          	jal	11520 <putchar>
/home/nancy/riscv-tools/sim/test/stdtest/dhry2.1/dhry_1.c:260

  User_Time = End_Time - Begin_Time;
   108c0:	d089b783          	ld	a5,-760(s3)
   108c4:	9b01b583          	ld	a1,-1616(gp) # 245f0 <Begin_Time>
   108c8:	40b785b3          	sub	a1,a5,a1
   108cc:	9ab1b423          	sd	a1,-1624(gp) # 245e8 <User_Time>
/home/nancy/riscv-tools/sim/test/stdtest/dhry2.1/dhry_1.c:262

  if (User_Time < Too_Small_Time)
   108d0:	07700793          	li	a5,119
   108d4:	02b7c463          	blt	a5,a1,108fc <main+0x634>
/home/nancy/riscv-tools/sim/test/stdtest/dhry2.1/dhry_1.c:264
  {
    printf ("Measured time too small to obtain meaningful results\n");
   108d8:	00022537          	lui	a0,0x22
   108dc:	a3050513          	addi	a0,a0,-1488 # 21a30 <zeroes.4123+0x540>
   108e0:	665000ef          	jal	11744 <puts>
/home/nancy/riscv-tools/sim/test/stdtest/dhry2.1/dhry_1.c:265
    printf ("Please increase number of runs\n");
   108e4:	00022537          	lui	a0,0x22
   108e8:	a6850513          	addi	a0,a0,-1432 # 21a68 <zeroes.4123+0x578>
   108ec:	659000ef          	jal	11744 <puts>
/home/nancy/riscv-tools/sim/test/stdtest/dhry2.1/dhry_1.c:266
    printf ("\n");
   108f0:	00a00513          	li	a0,10
   108f4:	42d000ef          	jal	11520 <putchar>
   108f8:	09c0006f          	j	10994 <main+0x6cc>
/home/nancy/riscv-tools/sim/test/stdtest/dhry2.1/dhry_1.c:275
#ifdef TIME
    Microseconds = (float) User_Time * Mic_secs_Per_Second 
                        / (float) Number_Of_Runs;
    Dhrystones_Per_Second = (float) Number_Of_Runs / (float) User_Time;
#else
    Microseconds = (float) User_Time * Mic_secs_Per_Second 
   108fc:	d025f6d3          	fcvt.s.l	fa3,a1
/home/nancy/riscv-tools/sim/test/stdtest/dhry2.1/dhry_1.c:276
                        / ((float) HZ * ((float) Number_Of_Runs));
   10900:	d00cf7d3          	fcvt.s.w	fa5,s9
   10904:	000247b7          	lui	a5,0x24
   10908:	4907a707          	flw	fa4,1168(a5) # 24490 <__wctomb+0x10>
   1090c:	10e7f753          	fmul.s	fa4,fa5,fa4
/home/nancy/riscv-tools/sim/test/stdtest/dhry2.1/dhry_1.c:275
#ifdef TIME
    Microseconds = (float) User_Time * Mic_secs_Per_Second 
                        / (float) Number_Of_Runs;
    Dhrystones_Per_Second = (float) Number_Of_Runs / (float) User_Time;
#else
    Microseconds = (float) User_Time * Mic_secs_Per_Second 
   10910:	420687d3          	fcvt.d.s	fa5,fa3
   10914:	000247b7          	lui	a5,0x24
   10918:	4887b607          	fld	fa2,1160(a5) # 24488 <__wctomb+0x8>
   1091c:	12c7f7d3          	fmul.d	fa5,fa5,fa2
   10920:	42070653          	fcvt.d.s	fa2,fa4
   10924:	1ac7f7d3          	fdiv.d	fa5,fa5,fa2
   10928:	4017f7d3          	fcvt.s.d	fa5,fa5
   1092c:	9af1a027          	fsw	fa5,-1632(gp) # 245e0 <Microseconds>
/home/nancy/riscv-tools/sim/test/stdtest/dhry2.1/dhry_1.c:277
                        / ((float) HZ * ((float) Number_Of_Runs));
    Dhrystones_Per_Second = ((float) HZ * (float) Number_Of_Runs)
   10930:	18d77753          	fdiv.s	fa4,fa4,fa3
   10934:	9ae1a227          	fsw	fa4,-1628(gp) # 245e4 <Dhrystones_Per_Second>
/home/nancy/riscv-tools/sim/test/stdtest/dhry2.1/dhry_1.c:280
                        / (float) User_Time;
#endif
	printf ("User_Time(long%lx) = %f, Number_of_Runs(int%d)=%f\n", User_Time, Number_Of_Runs);//debug
   10938:	000c8613          	mv	a2,s9
   1093c:	00022537          	lui	a0,0x22
   10940:	a8850513          	addi	a0,a0,-1400 # 21a88 <zeroes.4123+0x598>
   10944:	385000ef          	jal	114c8 <printf>
/home/nancy/riscv-tools/sim/test/stdtest/dhry2.1/dhry_1.c:282

	printf ("Microseconds for one run through Dhrystone: ");
   10948:	00022537          	lui	a0,0x22
   1094c:	ac050513          	addi	a0,a0,-1344 # 21ac0 <zeroes.4123+0x5d0>
   10950:	379000ef          	jal	114c8 <printf>
/home/nancy/riscv-tools/sim/test/stdtest/dhry2.1/dhry_1.c:283
    printf ("%6.1f \n", Microseconds);
   10954:	9a01a787          	flw	fa5,-1632(gp) # 245e0 <Microseconds>
   10958:	00022437          	lui	s0,0x22
   1095c:	420787d3          	fcvt.d.s	fa5,fa5
   10960:	e20785d3          	fmv.x.d	a1,fa5
   10964:	af040513          	addi	a0,s0,-1296 # 21af0 <zeroes.4123+0x600>
   10968:	361000ef          	jal	114c8 <printf>
/home/nancy/riscv-tools/sim/test/stdtest/dhry2.1/dhry_1.c:284
    printf ("Dhrystones per Second:                      ");
   1096c:	00022537          	lui	a0,0x22
   10970:	af850513          	addi	a0,a0,-1288 # 21af8 <zeroes.4123+0x608>
   10974:	355000ef          	jal	114c8 <printf>
/home/nancy/riscv-tools/sim/test/stdtest/dhry2.1/dhry_1.c:285
    printf ("%6.1f \n", Dhrystones_Per_Second);
   10978:	9a41a787          	flw	fa5,-1628(gp) # 245e4 <Dhrystones_Per_Second>
   1097c:	420787d3          	fcvt.d.s	fa5,fa5
   10980:	e20785d3          	fmv.x.d	a1,fa5
   10984:	af040513          	addi	a0,s0,-1296
   10988:	341000ef          	jal	114c8 <printf>
/home/nancy/riscv-tools/sim/test/stdtest/dhry2.1/dhry_1.c:286
    printf ("\n");
   1098c:	00a00513          	li	a0,10
   10990:	391000ef          	jal	11520 <putchar>
/home/nancy/riscv-tools/sim/test/stdtest/dhry2.1/dhry_1.c:289
  }
  
}
   10994:	00000513          	li	a0,0
   10998:	0c813083          	ld	ra,200(sp)
   1099c:	0c013403          	ld	s0,192(sp)
   109a0:	0b813483          	ld	s1,184(sp)
   109a4:	0b013903          	ld	s2,176(sp)
   109a8:	0a813983          	ld	s3,168(sp)
   109ac:	0a013a03          	ld	s4,160(sp)
   109b0:	09813a83          	ld	s5,152(sp)
   109b4:	09013b03          	ld	s6,144(sp)
   109b8:	08813b83          	ld	s7,136(sp)
   109bc:	08013c03          	ld	s8,128(sp)
   109c0:	07813c83          	ld	s9,120(sp)
   109c4:	07013d03          	ld	s10,112(sp)
   109c8:	06813d83          	ld	s11,104(sp)
   109cc:	0d010113          	addi	sp,sp,208
   109d0:	00008067          	ret

00000000000109d4 <memcpy>:
memcpy():
/home/nancy/riscv-tools/sim/test/stdtest/dhry2.1/dhry_1.c:393
memcpy (d, s, l)
register char   *d;
register char   *s;
register int    l;
{
        while (l--) *d++ = *s++;
   109d4:	fff6079b          	addiw	a5,a2,-1
   109d8:	02060063          	beqz	a2,109f8 <memcpy+0x24>
/home/nancy/riscv-tools/sim/test/stdtest/dhry2.1/dhry_1.c:393 (discriminator 2)
   109dc:	fff00693          	li	a3,-1
   109e0:	00150513          	addi	a0,a0,1
   109e4:	00158593          	addi	a1,a1,1
   109e8:	fff5c703          	lbu	a4,-1(a1)
   109ec:	fee50fa3          	sb	a4,-1(a0)
   109f0:	fff7879b          	addiw	a5,a5,-1
   109f4:	fed796e3          	bne	a5,a3,109e0 <memcpy+0xc>
/home/nancy/riscv-tools/sim/test/stdtest/dhry2.1/dhry_1.c:394
}
   109f8:	00008067          	ret

00000000000109fc <Proc_6>:
Proc_6():
/home/nancy/riscv-tools/sim/test/stdtest/dhry2.1/dhry_2.c:39

Enumeration  Enum_Val_Par;
Enumeration *Enum_Ref_Par;
{
  *Enum_Ref_Par = Enum_Val_Par;
  if (! Func_3 (Enum_Val_Par))
   109fc:	00200793          	li	a5,2
   10a00:	04f50c63          	beq	a0,a5,10a58 <Proc_6+0x5c>
/home/nancy/riscv-tools/sim/test/stdtest/dhry2.1/dhry_2.c:41
    /* then, not executed */
    *Enum_Ref_Par = Ident_4;
   10a04:	00300793          	li	a5,3
   10a08:	00f5a023          	sw	a5,0(a1)
/home/nancy/riscv-tools/sim/test/stdtest/dhry2.1/dhry_2.c:42
  switch (Enum_Val_Par)
   10a0c:	00100793          	li	a5,1
   10a10:	02f50263          	beq	a0,a5,10a34 <Proc_6+0x38>
   10a14:	00050c63          	beqz	a0,10a2c <Proc_6+0x30>
   10a18:	00200793          	li	a5,2
   10a1c:	02f50e63          	beq	a0,a5,10a58 <Proc_6+0x5c>
   10a20:	00400793          	li	a5,4
   10a24:	04f50063          	beq	a0,a5,10a64 <Proc_6+0x68>
   10a28:	00008067          	ret
/home/nancy/riscv-tools/sim/test/stdtest/dhry2.1/dhry_2.c:45
  {
    case Ident_1: 
      *Enum_Ref_Par = Ident_1;
   10a2c:	0005a023          	sw	zero,0(a1)
/home/nancy/riscv-tools/sim/test/stdtest/dhry2.1/dhry_2.c:46
      break;
   10a30:	00008067          	ret
/home/nancy/riscv-tools/sim/test/stdtest/dhry2.1/dhry_2.c:48
    case Ident_2: 
      if (Int_Glob > 100)
   10a34:	000277b7          	lui	a5,0x27
   10a38:	d187a703          	lw	a4,-744(a5) # 26d18 <Int_Glob>
   10a3c:	06400793          	li	a5,100
   10a40:	00e7d663          	ble	a4,a5,10a4c <Proc_6+0x50>
/home/nancy/riscv-tools/sim/test/stdtest/dhry2.1/dhry_2.c:50
        /* then */
      *Enum_Ref_Par = Ident_1;
   10a44:	0005a023          	sw	zero,0(a1)
   10a48:	00008067          	ret
/home/nancy/riscv-tools/sim/test/stdtest/dhry2.1/dhry_2.c:51
      else *Enum_Ref_Par = Ident_4;
   10a4c:	00300793          	li	a5,3
   10a50:	00f5a023          	sw	a5,0(a1)
   10a54:	00008067          	ret
/home/nancy/riscv-tools/sim/test/stdtest/dhry2.1/dhry_2.c:54
      break;
    case Ident_3: /* executed */
      *Enum_Ref_Par = Ident_2;
   10a58:	00100793          	li	a5,1
   10a5c:	00f5a023          	sw	a5,0(a1)
/home/nancy/riscv-tools/sim/test/stdtest/dhry2.1/dhry_2.c:55
      break;
   10a60:	00008067          	ret
/home/nancy/riscv-tools/sim/test/stdtest/dhry2.1/dhry_2.c:58
    case Ident_4: break;
    case Ident_5: 
      *Enum_Ref_Par = Ident_3;
   10a64:	00200793          	li	a5,2
   10a68:	00f5a023          	sw	a5,0(a1)
/home/nancy/riscv-tools/sim/test/stdtest/dhry2.1/dhry_2.c:61
      break;
  } /* switch */
} /* Proc_6 */
   10a6c:	00008067          	ret

0000000000010a70 <Proc_7>:
Proc_7():
/home/nancy/riscv-tools/sim/test/stdtest/dhry2.1/dhry_2.c:80
One_Fifty      *Int_Par_Ref;
{
  One_Fifty Int_Loc;

  Int_Loc = Int_1_Par_Val + 2;
  *Int_Par_Ref = Int_2_Par_Val + Int_Loc;
   10a70:	0025051b          	addiw	a0,a0,2
   10a74:	00b505bb          	addw	a1,a0,a1
   10a78:	00b62023          	sw	a1,0(a2)
/home/nancy/riscv-tools/sim/test/stdtest/dhry2.1/dhry_2.c:81
} /* Proc_7 */
   10a7c:	00008067          	ret

0000000000010a80 <Proc_8>:
Proc_8():
/home/nancy/riscv-tools/sim/test/stdtest/dhry2.1/dhry_2.c:97
int             Int_2_Par_Val;
{
  REG One_Fifty Int_Index;
  REG One_Fifty Int_Loc;

  Int_Loc = Int_1_Par_Val + 5;
   10a80:	0056081b          	addiw	a6,a2,5
/home/nancy/riscv-tools/sim/test/stdtest/dhry2.1/dhry_2.c:98
  Arr_1_Par_Ref [Int_Loc] = Int_2_Par_Val;
   10a84:	00080313          	mv	t1,a6
   10a88:	00231793          	slli	a5,t1,0x2
   10a8c:	00f50533          	add	a0,a0,a5
   10a90:	00d52023          	sw	a3,0(a0)
/home/nancy/riscv-tools/sim/test/stdtest/dhry2.1/dhry_2.c:99
  Arr_1_Par_Ref [Int_Loc+1] = Arr_1_Par_Ref [Int_Loc];
   10a94:	00d52223          	sw	a3,4(a0)
/home/nancy/riscv-tools/sim/test/stdtest/dhry2.1/dhry_2.c:100
  Arr_1_Par_Ref [Int_Loc+30] = Int_Loc;
   10a98:	07052c23          	sw	a6,120(a0)
/home/nancy/riscv-tools/sim/test/stdtest/dhry2.1/dhry_2.c:101
  for (Int_Index = Int_Loc; Int_Index <= Int_Loc+1; ++Int_Index)
   10a9c:	0066089b          	addiw	a7,a2,6
   10aa0:	0308c463          	blt	a7,a6,10ac8 <Proc_8+0x48>
/home/nancy/riscv-tools/sim/test/stdtest/dhry2.1/dhry_2.c:102
    Arr_2_Par_Ref [Int_Loc] [Int_Index] = Int_Loc;
   10aa4:	0c800693          	li	a3,200
   10aa8:	02d306b3          	mul	a3,t1,a3
   10aac:	00d586b3          	add	a3,a1,a3
   10ab0:	00080713          	mv	a4,a6
/home/nancy/riscv-tools/sim/test/stdtest/dhry2.1/dhry_2.c:102 (discriminator 3)
   10ab4:	00271793          	slli	a5,a4,0x2
   10ab8:	00f687b3          	add	a5,a3,a5
   10abc:	0107a023          	sw	a6,0(a5)
/home/nancy/riscv-tools/sim/test/stdtest/dhry2.1/dhry_2.c:101

  Int_Loc = Int_1_Par_Val + 5;
  Arr_1_Par_Ref [Int_Loc] = Int_2_Par_Val;
  Arr_1_Par_Ref [Int_Loc+1] = Arr_1_Par_Ref [Int_Loc];
  Arr_1_Par_Ref [Int_Loc+30] = Int_Loc;
  for (Int_Index = Int_Loc; Int_Index <= Int_Loc+1; ++Int_Index)
   10ac0:	0017071b          	addiw	a4,a4,1
   10ac4:	fee8d8e3          	ble	a4,a7,10ab4 <Proc_8+0x34>
/home/nancy/riscv-tools/sim/test/stdtest/dhry2.1/dhry_2.c:103
    Arr_2_Par_Ref [Int_Loc] [Int_Index] = Int_Loc;
  Arr_2_Par_Ref [Int_Loc] [Int_Loc-1] += 1;
   10ac8:	0c800793          	li	a5,200
   10acc:	02f30333          	mul	t1,t1,a5
   10ad0:	00261793          	slli	a5,a2,0x2
   10ad4:	006787b3          	add	a5,a5,t1
   10ad8:	00f587b3          	add	a5,a1,a5
   10adc:	0107a703          	lw	a4,16(a5)
   10ae0:	0017071b          	addiw	a4,a4,1
   10ae4:	00e7a823          	sw	a4,16(a5)
/home/nancy/riscv-tools/sim/test/stdtest/dhry2.1/dhry_2.c:104
  Arr_2_Par_Ref [Int_Loc+20] [Int_Loc] = Arr_1_Par_Ref [Int_Loc];
   10ae8:	00052703          	lw	a4,0(a0)
   10aec:	00658333          	add	t1,a1,t1
   10af0:	000017b7          	lui	a5,0x1
   10af4:	00678333          	add	t1,a5,t1
   10af8:	00281813          	slli	a6,a6,0x2
   10afc:	01030833          	add	a6,t1,a6
   10b00:	fae82023          	sw	a4,-96(a6)
/home/nancy/riscv-tools/sim/test/stdtest/dhry2.1/dhry_2.c:105
  Int_Glob = 5;
   10b04:	00500713          	li	a4,5
   10b08:	000277b7          	lui	a5,0x27
   10b0c:	d0e7ac23          	sw	a4,-744(a5) # 26d18 <Int_Glob>
/home/nancy/riscv-tools/sim/test/stdtest/dhry2.1/dhry_2.c:106
} /* Proc_8 */
   10b10:	00008067          	ret

0000000000010b14 <Func_1>:
Func_1():
/home/nancy/riscv-tools/sim/test/stdtest/dhry2.1/dhry_2.c:118
    /* second call:     Ch_1_Par_Val == 'A', Ch_2_Par_Val == 'C'    */
    /* third call:      Ch_1_Par_Val == 'B', Ch_2_Par_Val == 'C'    */

Capital_Letter   Ch_1_Par_Val;
Capital_Letter   Ch_2_Par_Val;
{
   10b14:	0ff57513          	andi	a0,a0,255
/home/nancy/riscv-tools/sim/test/stdtest/dhry2.1/dhry_2.c:124
  Capital_Letter        Ch_1_Loc;
  Capital_Letter        Ch_2_Loc;

  Ch_1_Loc = Ch_1_Par_Val;
  Ch_2_Loc = Ch_1_Loc;
  if (Ch_2_Loc != Ch_2_Par_Val)
   10b18:	0ff5f593          	andi	a1,a1,255
   10b1c:	00b51a63          	bne	a0,a1,10b30 <Func_1+0x1c>
/home/nancy/riscv-tools/sim/test/stdtest/dhry2.1/dhry_2.c:129
    /* then, executed */
    return (Ident_1);
  else  /* not executed */
  {
    Ch_1_Glob = Ch_1_Loc;
   10b20:	000277b7          	lui	a5,0x27
   10b24:	d0a78e23          	sb	a0,-740(a5) # 26d1c <Ch_1_Glob>
/home/nancy/riscv-tools/sim/test/stdtest/dhry2.1/dhry_2.c:130
    return (Ident_2);
   10b28:	00100513          	li	a0,1
   10b2c:	00008067          	ret
/home/nancy/riscv-tools/sim/test/stdtest/dhry2.1/dhry_2.c:126

  Ch_1_Loc = Ch_1_Par_Val;
  Ch_2_Loc = Ch_1_Loc;
  if (Ch_2_Loc != Ch_2_Par_Val)
    /* then, executed */
    return (Ident_1);
   10b30:	00000513          	li	a0,0
/home/nancy/riscv-tools/sim/test/stdtest/dhry2.1/dhry_2.c:132
  else  /* not executed */
  {
    Ch_1_Glob = Ch_1_Loc;
    return (Ident_2);
   }
} /* Func_1 */
   10b34:	00008067          	ret

0000000000010b38 <Func_2>:
Func_2():
/home/nancy/riscv-tools/sim/test/stdtest/dhry2.1/dhry_2.c:143
    /* Str_1_Par_Ref == "DHRYSTONE PROGRAM, 1'ST STRING" */
    /* Str_2_Par_Ref == "DHRYSTONE PROGRAM, 2'ND STRING" */

Str_30  Str_1_Par_Ref;
Str_30  Str_2_Par_Ref;
{
   10b38:	ff010113          	addi	sp,sp,-16
   10b3c:	00113423          	sd	ra,8(sp)
   10b40:	00813023          	sd	s0,0(sp)
/home/nancy/riscv-tools/sim/test/stdtest/dhry2.1/dhry_2.c:147
  REG One_Thirty        Int_Loc;
      Capital_Letter    Ch_Loc;

  Int_Loc = 2;
   10b44:	00200413          	li	s0,2
Func_1():
/home/nancy/riscv-tools/sim/test/stdtest/dhry2.1/dhry_2.c:129
  if (Ch_2_Loc != Ch_2_Par_Val)
    /* then, executed */
    return (Ident_1);
  else  /* not executed */
  {
    Ch_1_Glob = Ch_1_Loc;
   10b48:	00027637          	lui	a2,0x27
Func_2():
/home/nancy/riscv-tools/sim/test/stdtest/dhry2.1/dhry_2.c:148
{
  REG One_Thirty        Int_Loc;
      Capital_Letter    Ch_Loc;

  Int_Loc = 2;
  while (Int_Loc <= 2) /* loop body executed once */
   10b4c:	00040693          	mv	a3,s0
/home/nancy/riscv-tools/sim/test/stdtest/dhry2.1/dhry_2.c:149
    if (Func_1 (Str_1_Par_Ref[Int_Loc],
   10b50:	00850733          	add	a4,a0,s0
   10b54:	00074703          	lbu	a4,0(a4)
/home/nancy/riscv-tools/sim/test/stdtest/dhry2.1/dhry_2.c:150
                Str_2_Par_Ref[Int_Loc+1]) == Ident_1)
   10b58:	008587b3          	add	a5,a1,s0
Func_1():
/home/nancy/riscv-tools/sim/test/stdtest/dhry2.1/dhry_2.c:124
  Capital_Letter        Ch_1_Loc;
  Capital_Letter        Ch_2_Loc;

  Ch_1_Loc = Ch_1_Par_Val;
  Ch_2_Loc = Ch_1_Loc;
  if (Ch_2_Loc != Ch_2_Par_Val)
   10b5c:	0017c783          	lbu	a5,1(a5)
   10b60:	02e79863          	bne	a5,a4,10b90 <Func_2+0x58>
/home/nancy/riscv-tools/sim/test/stdtest/dhry2.1/dhry_2.c:129
    /* then, executed */
    return (Ident_1);
  else  /* not executed */
  {
    Ch_1_Glob = Ch_1_Loc;
   10b64:	d0e60e23          	sb	a4,-740(a2) # 26d1c <Ch_1_Glob>
Func_2():
/home/nancy/riscv-tools/sim/test/stdtest/dhry2.1/dhry_2.c:148
{
  REG One_Thirty        Int_Loc;
      Capital_Letter    Ch_Loc;

  Int_Loc = 2;
  while (Int_Loc <= 2) /* loop body executed once */
   10b68:	fe86d4e3          	ble	s0,a3,10b50 <Func_2+0x18>
/home/nancy/riscv-tools/sim/test/stdtest/dhry2.1/dhry_2.c:164
  if (Ch_Loc == 'R')
    /* then, not executed */
    return (true);
  else /* executed */
  {
    if (strcmp (Str_1_Par_Ref, Str_2_Par_Ref) > 0)
   10b6c:	479000ef          	jal	117e4 <strcmp>
   10b70:	00a05c63          	blez	a0,10b88 <Func_2+0x50>
/home/nancy/riscv-tools/sim/test/stdtest/dhry2.1/dhry_2.c:168
      /* then, not executed */
    {
      Int_Loc += 7;
      Int_Glob = Int_Loc;
   10b74:	0074041b          	addiw	s0,s0,7
   10b78:	000277b7          	lui	a5,0x27
   10b7c:	d087ac23          	sw	s0,-744(a5) # 26d18 <Int_Glob>
/home/nancy/riscv-tools/sim/test/stdtest/dhry2.1/dhry_2.c:169
      return (true);
   10b80:	00100513          	li	a0,1
   10b84:	0140006f          	j	10b98 <Func_2+0x60>
/home/nancy/riscv-tools/sim/test/stdtest/dhry2.1/dhry_2.c:172
    }
    else /* executed */
      return (false);
   10b88:	00000513          	li	a0,0
   10b8c:	00c0006f          	j	10b98 <Func_2+0x60>
/home/nancy/riscv-tools/sim/test/stdtest/dhry2.1/dhry_2.c:154
    if (Func_1 (Str_1_Par_Ref[Int_Loc],
                Str_2_Par_Ref[Int_Loc+1]) == Ident_1)
      /* then, executed */
    {
      Ch_Loc = 'A';
      Int_Loc += 1;
   10b90:	0014041b          	addiw	s0,s0,1
   10b94:	fd5ff06f          	j	10b68 <Func_2+0x30>
/home/nancy/riscv-tools/sim/test/stdtest/dhry2.1/dhry_2.c:174
      return (true);
    }
    else /* executed */
      return (false);
  } /* if Ch_Loc */
} /* Func_2 */
   10b98:	00813083          	ld	ra,8(sp)
   10b9c:	00013403          	ld	s0,0(sp)
   10ba0:	01010113          	addi	sp,sp,16
   10ba4:	00008067          	ret

0000000000010ba8 <Func_3>:
Func_3():
/home/nancy/riscv-tools/sim/test/stdtest/dhry2.1/dhry_2.c:182
Boolean Func_3 (Enum_Par_Val)
/***************************/
    /* executed once        */
    /* Enum_Par_Val == Ident_3 */
Enumeration Enum_Par_Val;
{
   10ba8:	ffe5051b          	addiw	a0,a0,-2
/home/nancy/riscv-tools/sim/test/stdtest/dhry2.1/dhry_2.c:191
  if (Enum_Loc == Ident_3)
    /* then, executed */
    return (true);
  else /* not executed */
    return (false);
} /* Func_3 */
   10bac:	00153513          	seqz	a0,a0
   10bb0:	00008067          	ret

0000000000010bb4 <atexit>:
atexit():
/home/nancy/riscv-tools/riscv-gnu-toolchain/build/src/newlib-gcc/newlib/libc/stdlib/atexit.c:65
int
_DEFUN (atexit,
	(fn),
	_VOID _EXFNPTR(fn, (_VOID)))
{
  return __register_exitproc (__et_atexit, fn, NULL, NULL);
   10bb4:	00050593          	mv	a1,a0
   10bb8:	00000693          	li	a3,0
   10bbc:	00000613          	li	a2,0
   10bc0:	00000513          	li	a0,0
   10bc4:	00c0406f          	j	14bd0 <__register_exitproc>

0000000000010bc8 <exit>:
exit():
/home/nancy/riscv-tools/riscv-gnu-toolchain/build/src/newlib-gcc/newlib/libc/stdlib/exit.c:60
 */

void
_DEFUN (exit, (code),
	int code)
{
   10bc8:	ff010113          	addi	sp,sp,-16
/home/nancy/riscv-tools/riscv-gnu-toolchain/build/src/newlib-gcc/newlib/libc/stdlib/exit.c:66
#ifdef _LITE_EXIT
  /* Refer to comments in __atexit.c for more details of lite exit.  */
  void __call_exitprocs _PARAMS ((int, _PTR)) __attribute__((weak));
  if (__call_exitprocs)
#endif
    __call_exitprocs (code, NULL);
   10bcc:	00000593          	li	a1,0
/home/nancy/riscv-tools/riscv-gnu-toolchain/build/src/newlib-gcc/newlib/libc/stdlib/exit.c:60
 */

void
_DEFUN (exit, (code),
	int code)
{
   10bd0:	00813023          	sd	s0,0(sp)
   10bd4:	00113423          	sd	ra,8(sp)
   10bd8:	00050413          	mv	s0,a0
/home/nancy/riscv-tools/riscv-gnu-toolchain/build/src/newlib-gcc/newlib/libc/stdlib/exit.c:66
#ifdef _LITE_EXIT
  /* Refer to comments in __atexit.c for more details of lite exit.  */
  void __call_exitprocs _PARAMS ((int, _PTR)) __attribute__((weak));
  if (__call_exitprocs)
#endif
    __call_exitprocs (code, NULL);
   10bdc:	104040ef          	jal	14ce0 <__call_exitprocs>
/home/nancy/riscv-tools/riscv-gnu-toolchain/build/src/newlib-gcc/newlib/libc/stdlib/exit.c:68

  if (_GLOBAL_REENT->__cleanup)
   10be0:	8081b503          	ld	a0,-2040(gp) # 24448 <_global_impure_ptr>
   10be4:	05853783          	ld	a5,88(a0)
   10be8:	00078463          	beqz	a5,10bf0 <exit+0x28>
/home/nancy/riscv-tools/riscv-gnu-toolchain/build/src/newlib-gcc/newlib/libc/stdlib/exit.c:69
    (*_GLOBAL_REENT->__cleanup) (_GLOBAL_REENT);
   10bec:	000780e7          	jalr	a5
/home/nancy/riscv-tools/riscv-gnu-toolchain/build/src/newlib-gcc/newlib/libc/stdlib/exit.c:70
  _exit (code);
   10bf0:	00040513          	mv	a0,s0
   10bf4:	1810f0ef          	jal	20574 <_exit>

0000000000010bf8 <__libc_fini_array>:
__libc_fini_array():
/home/nancy/riscv-tools/riscv-gnu-toolchain/build/src/newlib-gcc/newlib/libc/misc/fini.c:25
extern void _fini (void);

/* Run all the cleanup routines.  */
void
__libc_fini_array (void)
{
   10bf8:	fe010113          	addi	sp,sp,-32
   10bfc:	00813823          	sd	s0,16(sp)
   10c00:	00913423          	sd	s1,8(sp)
/home/nancy/riscv-tools/riscv-gnu-toolchain/build/src/newlib-gcc/newlib/libc/misc/fini.c:29
  size_t count;
  size_t i;
  
  count = __fini_array_end - __fini_array_start;
   10c04:	00022437          	lui	s0,0x22
   10c08:	000224b7          	lui	s1,0x22
   10c0c:	c4848493          	addi	s1,s1,-952 # 21c48 <__init_array_end>
   10c10:	c5040413          	addi	s0,s0,-944 # 21c50 <__fini_array_end>
   10c14:	40940433          	sub	s0,s0,s1
   10c18:	ff840793          	addi	a5,s0,-8
/home/nancy/riscv-tools/riscv-gnu-toolchain/build/src/newlib-gcc/newlib/libc/misc/fini.c:25
extern void _fini (void);

/* Run all the cleanup routines.  */
void
__libc_fini_array (void)
{
   10c1c:	00113c23          	sd	ra,24(sp)
/home/nancy/riscv-tools/riscv-gnu-toolchain/build/src/newlib-gcc/newlib/libc/misc/fini.c:29
  size_t count;
  size_t i;
  
  count = __fini_array_end - __fini_array_start;
   10c20:	40345413          	srai	s0,s0,0x3
   10c24:	009784b3          	add	s1,a5,s1
/home/nancy/riscv-tools/riscv-gnu-toolchain/build/src/newlib-gcc/newlib/libc/misc/fini.c:30
  for (i = count; i > 0; i--)
   10c28:	00040c63          	beqz	s0,10c40 <__libc_fini_array+0x48>
/home/nancy/riscv-tools/riscv-gnu-toolchain/build/src/newlib-gcc/newlib/libc/misc/fini.c:31 (discriminator 3)
    __fini_array_start[i-1] ();
   10c2c:	0004b783          	ld	a5,0(s1)
   10c30:	fff40413          	addi	s0,s0,-1
   10c34:	ff848493          	addi	s1,s1,-8
   10c38:	000780e7          	jalr	a5
/home/nancy/riscv-tools/riscv-gnu-toolchain/build/src/newlib-gcc/newlib/libc/misc/fini.c:30
{
  size_t count;
  size_t i;
  
  count = __fini_array_end - __fini_array_start;
  for (i = count; i > 0; i--)
   10c3c:	fe0418e3          	bnez	s0,10c2c <__libc_fini_array+0x34>
/home/nancy/riscv-tools/riscv-gnu-toolchain/build/src/newlib-gcc/newlib/libc/misc/fini.c:34
    __fini_array_start[i-1] ();

  _fini ();
}
   10c40:	01813083          	ld	ra,24(sp)
   10c44:	01013403          	ld	s0,16(sp)
   10c48:	00813483          	ld	s1,8(sp)
   10c4c:	02010113          	addi	sp,sp,32
/home/nancy/riscv-tools/riscv-gnu-toolchain/build/src/newlib-gcc/newlib/libc/misc/fini.c:33
  
  count = __fini_array_end - __fini_array_start;
  for (i = count; i > 0; i--)
    __fini_array_start[i-1] ();

  _fini ();
   10c50:	bf8ff06f          	j	10048 <_fini>

0000000000010c54 <__libc_init_array>:
__libc_init_array():
/home/nancy/riscv-tools/riscv-gnu-toolchain/build/src/newlib-gcc/newlib/libc/misc/init.c:29
extern void _init (void);

/* Iterate over all the init routines.  */
void
__libc_init_array (void)
{
   10c54:	fe010113          	addi	sp,sp,-32
   10c58:	00813823          	sd	s0,16(sp)
/home/nancy/riscv-tools/riscv-gnu-toolchain/build/src/newlib-gcc/newlib/libc/misc/init.c:33
  size_t count;
  size_t i;

  count = __preinit_array_end - __preinit_array_start;
   10c5c:	000227b7          	lui	a5,0x22
   10c60:	00022437          	lui	s0,0x22
/home/nancy/riscv-tools/riscv-gnu-toolchain/build/src/newlib-gcc/newlib/libc/misc/init.c:29
extern void _init (void);

/* Iterate over all the init routines.  */
void
__libc_init_array (void)
{
   10c64:	01213023          	sd	s2,0(sp)
/home/nancy/riscv-tools/riscv-gnu-toolchain/build/src/newlib-gcc/newlib/libc/misc/init.c:33
  size_t count;
  size_t i;

  count = __preinit_array_end - __preinit_array_start;
   10c68:	c4078793          	addi	a5,a5,-960 # 21c40 <_etext>
   10c6c:	c4040913          	addi	s2,s0,-960 # 21c40 <_etext>
   10c70:	41278933          	sub	s2,a5,s2
/home/nancy/riscv-tools/riscv-gnu-toolchain/build/src/newlib-gcc/newlib/libc/misc/init.c:29
extern void _init (void);

/* Iterate over all the init routines.  */
void
__libc_init_array (void)
{
   10c74:	00913423          	sd	s1,8(sp)
   10c78:	00113c23          	sd	ra,24(sp)
/home/nancy/riscv-tools/riscv-gnu-toolchain/build/src/newlib-gcc/newlib/libc/misc/init.c:33
  size_t count;
  size_t i;

  count = __preinit_array_end - __preinit_array_start;
   10c7c:	40395913          	srai	s2,s2,0x3
   10c80:	c4040413          	addi	s0,s0,-960
   10c84:	00000493          	li	s1,0
/home/nancy/riscv-tools/riscv-gnu-toolchain/build/src/newlib-gcc/newlib/libc/misc/init.c:34
  for (i = 0; i < count; i++)
   10c88:	00090c63          	beqz	s2,10ca0 <__libc_init_array+0x4c>
/home/nancy/riscv-tools/riscv-gnu-toolchain/build/src/newlib-gcc/newlib/libc/misc/init.c:35 (discriminator 3)
    __preinit_array_start[i] ();
   10c8c:	00043783          	ld	a5,0(s0)
/home/nancy/riscv-tools/riscv-gnu-toolchain/build/src/newlib-gcc/newlib/libc/misc/init.c:34
{
  size_t count;
  size_t i;

  count = __preinit_array_end - __preinit_array_start;
  for (i = 0; i < count; i++)
   10c90:	00148493          	addi	s1,s1,1
   10c94:	00840413          	addi	s0,s0,8
/home/nancy/riscv-tools/riscv-gnu-toolchain/build/src/newlib-gcc/newlib/libc/misc/init.c:35
    __preinit_array_start[i] ();
   10c98:	000780e7          	jalr	a5
/home/nancy/riscv-tools/riscv-gnu-toolchain/build/src/newlib-gcc/newlib/libc/misc/init.c:34
{
  size_t count;
  size_t i;

  count = __preinit_array_end - __preinit_array_start;
  for (i = 0; i < count; i++)
   10c9c:	fe9918e3          	bne	s2,s1,10c8c <__libc_init_array+0x38>
/home/nancy/riscv-tools/riscv-gnu-toolchain/build/src/newlib-gcc/newlib/libc/misc/init.c:37
    __preinit_array_start[i] ();

  _init ();
   10ca0:	ba8ff0ef          	jal	10048 <_fini>
/home/nancy/riscv-tools/riscv-gnu-toolchain/build/src/newlib-gcc/newlib/libc/misc/init.c:39

  count = __init_array_end - __init_array_start;
   10ca4:	00022437          	lui	s0,0x22
   10ca8:	000227b7          	lui	a5,0x22
   10cac:	c4040913          	addi	s2,s0,-960 # 21c40 <_etext>
   10cb0:	c4878793          	addi	a5,a5,-952 # 21c48 <__init_array_end>
   10cb4:	41278933          	sub	s2,a5,s2
   10cb8:	40395913          	srai	s2,s2,0x3
   10cbc:	c4040413          	addi	s0,s0,-960
/home/nancy/riscv-tools/riscv-gnu-toolchain/build/src/newlib-gcc/newlib/libc/misc/init.c:40
  for (i = 0; i < count; i++)
   10cc0:	00000493          	li	s1,0
   10cc4:	00090c63          	beqz	s2,10cdc <__libc_init_array+0x88>
/home/nancy/riscv-tools/riscv-gnu-toolchain/build/src/newlib-gcc/newlib/libc/misc/init.c:41 (discriminator 3)
    __init_array_start[i] ();
   10cc8:	00043783          	ld	a5,0(s0)
/home/nancy/riscv-tools/riscv-gnu-toolchain/build/src/newlib-gcc/newlib/libc/misc/init.c:40
    __preinit_array_start[i] ();

  _init ();

  count = __init_array_end - __init_array_start;
  for (i = 0; i < count; i++)
   10ccc:	00148493          	addi	s1,s1,1
   10cd0:	00840413          	addi	s0,s0,8
/home/nancy/riscv-tools/riscv-gnu-toolchain/build/src/newlib-gcc/newlib/libc/misc/init.c:41
    __init_array_start[i] ();
   10cd4:	000780e7          	jalr	a5
/home/nancy/riscv-tools/riscv-gnu-toolchain/build/src/newlib-gcc/newlib/libc/misc/init.c:40
    __preinit_array_start[i] ();

  _init ();

  count = __init_array_end - __init_array_start;
  for (i = 0; i < count; i++)
   10cd8:	fe9918e3          	bne	s2,s1,10cc8 <__libc_init_array+0x74>
/home/nancy/riscv-tools/riscv-gnu-toolchain/build/src/newlib-gcc/newlib/libc/misc/init.c:42
    __init_array_start[i] ();
}
   10cdc:	01813083          	ld	ra,24(sp)
   10ce0:	01013403          	ld	s0,16(sp)
   10ce4:	00813483          	ld	s1,8(sp)
   10ce8:	00013903          	ld	s2,0(sp)
   10cec:	02010113          	addi	sp,sp,32
   10cf0:	00008067          	ret

0000000000010cf4 <malloc>:
malloc():
/home/nancy/riscv-tools/riscv-gnu-toolchain/build/src/newlib-gcc/newlib/libc/stdlib/malloc.c:215

_PTR
_DEFUN (malloc, (nbytes),
	size_t nbytes)		/* get a block */
{
  return _malloc_r (_REENT, nbytes);
   10cf4:	00050593          	mv	a1,a0
   10cf8:	8101b503          	ld	a0,-2032(gp) # 24450 <_impure_ptr>
   10cfc:	0100006f          	j	10d0c <_malloc_r>

0000000000010d00 <free>:
free():
/home/nancy/riscv-tools/riscv-gnu-toolchain/build/src/newlib-gcc/newlib/libc/stdlib/malloc.c:222

void
_DEFUN (free, (aptr),
	_PTR aptr)
{
  _free_r (_REENT, aptr);
   10d00:	00050593          	mv	a1,a0
   10d04:	8101b503          	ld	a0,-2032(gp) # 24450 <_impure_ptr>
   10d08:	62d0506f          	j	16b34 <_free_r>

0000000000010d0c <_malloc_r>:
_malloc_r():
/home/nancy/riscv-tools/riscv-gnu-toolchain/build/src/newlib-gcc/newlib/libc/stdlib/mallocr.c:2328
#if __STD_C
Void_t* mALLOc(RARG size_t bytes)
#else
Void_t* mALLOc(RARG bytes) RDECL size_t bytes;
#endif
{
   10d0c:	fa010113          	addi	sp,sp,-96
   10d10:	04913423          	sd	s1,72(sp)
   10d14:	03313c23          	sd	s3,56(sp)
   10d18:	04113c23          	sd	ra,88(sp)
   10d1c:	04813823          	sd	s0,80(sp)
   10d20:	05213023          	sd	s2,64(sp)
   10d24:	03413823          	sd	s4,48(sp)
   10d28:	03513423          	sd	s5,40(sp)
   10d2c:	03613023          	sd	s6,32(sp)
   10d30:	01713c23          	sd	s7,24(sp)
   10d34:	01813823          	sd	s8,16(sp)
   10d38:	01913423          	sd	s9,8(sp)
/home/nancy/riscv-tools/riscv-gnu-toolchain/build/src/newlib-gcc/newlib/libc/stdlib/mallocr.c:2348
  int       startidx;                /* first bin of a traversed block */
  mchunkptr fwd;                     /* misc temp for linking */
  mchunkptr bck;                     /* misc temp for linking */
  mbinptr q;                         /* misc temp */

  INTERNAL_SIZE_T nb  = request2size(bytes);  /* padded request size; */
   10d3c:	01758493          	addi	s1,a1,23
   10d40:	02e00793          	li	a5,46
/home/nancy/riscv-tools/riscv-gnu-toolchain/build/src/newlib-gcc/newlib/libc/stdlib/mallocr.c:2328
#if __STD_C
Void_t* mALLOc(RARG size_t bytes)
#else
Void_t* mALLOc(RARG bytes) RDECL size_t bytes;
#endif
{
   10d44:	00050993          	mv	s3,a0
/home/nancy/riscv-tools/riscv-gnu-toolchain/build/src/newlib-gcc/newlib/libc/stdlib/mallocr.c:2348
  int       startidx;                /* first bin of a traversed block */
  mchunkptr fwd;                     /* misc temp for linking */
  mchunkptr bck;                     /* misc temp for linking */
  mbinptr q;                         /* misc temp */

  INTERNAL_SIZE_T nb  = request2size(bytes);  /* padded request size; */
   10d48:	1c97fa63          	bleu	s1,a5,10f1c <_malloc_r+0x210>
/home/nancy/riscv-tools/riscv-gnu-toolchain/build/src/newlib-gcc/newlib/libc/stdlib/mallocr.c:2351 (discriminator 1)

  /* Check for overflow and just fail, if so. */
  if (nb > INT_MAX || nb < bytes)
   10d4c:	800007b7          	lui	a5,0x80000
/home/nancy/riscv-tools/riscv-gnu-toolchain/build/src/newlib-gcc/newlib/libc/stdlib/mallocr.c:2348
  int       startidx;                /* first bin of a traversed block */
  mchunkptr fwd;                     /* misc temp for linking */
  mchunkptr bck;                     /* misc temp for linking */
  mbinptr q;                         /* misc temp */

  INTERNAL_SIZE_T nb  = request2size(bytes);  /* padded request size; */
   10d50:	ff04f493          	andi	s1,s1,-16
/home/nancy/riscv-tools/riscv-gnu-toolchain/build/src/newlib-gcc/newlib/libc/stdlib/mallocr.c:2351

  /* Check for overflow and just fail, if so. */
  if (nb > INT_MAX || nb < bytes)
   10d54:	fff7c793          	not	a5,a5
   10d58:	2497ee63          	bltu	a5,s1,10fb4 <_malloc_r+0x2a8>
   10d5c:	24b4ec63          	bltu	s1,a1,10fb4 <_malloc_r+0x2a8>
/home/nancy/riscv-tools/riscv-gnu-toolchain/build/src/newlib-gcc/newlib/libc/stdlib/mallocr.c:2357
  {
    RERRNO = ENOMEM;
    return 0;
  }

  MALLOC_LOCK;
   10d60:	71c000ef          	jal	1147c <__malloc_lock>
/home/nancy/riscv-tools/riscv-gnu-toolchain/build/src/newlib-gcc/newlib/libc/stdlib/mallocr.c:2361

  /* Check for exact match in a bin */

  if (is_small_request(nb))  /* Faster version for small requests */
   10d64:	1f700793          	li	a5,503
   10d68:	7097f063          	bleu	s1,a5,11468 <_malloc_r+0x75c>
/home/nancy/riscv-tools/riscv-gnu-toolchain/build/src/newlib-gcc/newlib/libc/stdlib/mallocr.c:2393
    idx += 2; /* Set for bin scan below. We've already scanned 2 bins. */

  }
  else
  {
    idx = bin_index(nb);
   10d6c:	0094d793          	srli	a5,s1,0x9
   10d70:	08000693          	li	a3,128
   10d74:	04000513          	li	a0,64
   10d78:	03f00593          	li	a1,63
   10d7c:	24079463          	bnez	a5,10fc4 <_malloc_r+0x2b8>
/home/nancy/riscv-tools/riscv-gnu-toolchain/build/src/newlib-gcc/newlib/libc/stdlib/mallocr.c:2394 (discriminator 24)
    bin = bin_at(idx);
   10d80:	00024937          	lui	s2,0x24
   10d84:	b8890913          	addi	s2,s2,-1144 # 23b88 <__malloc_av_>
   10d88:	00369693          	slli	a3,a3,0x3
   10d8c:	00d906b3          	add	a3,s2,a3
/home/nancy/riscv-tools/riscv-gnu-toolchain/build/src/newlib-gcc/newlib/libc/stdlib/mallocr.c:2396

    for (victim = last(bin); victim != bin; victim = victim->bk)
   10d90:	0086b403          	ld	s0,8(a3)
/home/nancy/riscv-tools/riscv-gnu-toolchain/build/src/newlib-gcc/newlib/libc/stdlib/mallocr.c:2394

  }
  else
  {
    idx = bin_index(nb);
    bin = bin_at(idx);
   10d94:	ff068693          	addi	a3,a3,-16
/home/nancy/riscv-tools/riscv-gnu-toolchain/build/src/newlib-gcc/newlib/libc/stdlib/mallocr.c:2396

    for (victim = last(bin); victim != bin; victim = victim->bk)
   10d98:	24868663          	beq	a3,s0,10fe4 <_malloc_r+0x2d8>
/home/nancy/riscv-tools/riscv-gnu-toolchain/build/src/newlib-gcc/newlib/libc/stdlib/mallocr.c:2398
    {
      victim_size = chunksize(victim);
   10d9c:	00843783          	ld	a5,8(s0)
/home/nancy/riscv-tools/riscv-gnu-toolchain/build/src/newlib-gcc/newlib/libc/stdlib/mallocr.c:2401
      remainder_size = long_sub_size_t(victim_size, nb);
      
      if (remainder_size >= (long)MINSIZE) /* too big */
   10da0:	01f00613          	li	a2,31
/home/nancy/riscv-tools/riscv-gnu-toolchain/build/src/newlib-gcc/newlib/libc/stdlib/mallocr.c:2398
    idx = bin_index(nb);
    bin = bin_at(idx);

    for (victim = last(bin); victim != bin; victim = victim->bk)
    {
      victim_size = chunksize(victim);
   10da4:	ffc7f793          	andi	a5,a5,-4
/home/nancy/riscv-tools/riscv-gnu-toolchain/build/src/newlib-gcc/newlib/libc/stdlib/mallocr.c:2399
      remainder_size = long_sub_size_t(victim_size, nb);
   10da8:	40978733          	sub	a4,a5,s1
/home/nancy/riscv-tools/riscv-gnu-toolchain/build/src/newlib-gcc/newlib/libc/stdlib/mallocr.c:2401
      
      if (remainder_size >= (long)MINSIZE) /* too big */
   10dac:	02e64063          	blt	a2,a4,10dcc <_malloc_r+0xc0>
/home/nancy/riscv-tools/riscv-gnu-toolchain/build/src/newlib-gcc/newlib/libc/stdlib/mallocr.c:2407
      {
        --idx; /* adjust to rescan below after checking last remainder */
        break;   
      }

      else if (remainder_size >= 0) /* exact fit */
   10db0:	22075e63          	bgez	a4,10fec <_malloc_r+0x2e0>
/home/nancy/riscv-tools/riscv-gnu-toolchain/build/src/newlib-gcc/newlib/libc/stdlib/mallocr.c:2396 (discriminator 2)
  else
  {
    idx = bin_index(nb);
    bin = bin_at(idx);

    for (victim = last(bin); victim != bin; victim = victim->bk)
   10db4:	01843403          	ld	s0,24(s0)
   10db8:	22868663          	beq	a3,s0,10fe4 <_malloc_r+0x2d8>
/home/nancy/riscv-tools/riscv-gnu-toolchain/build/src/newlib-gcc/newlib/libc/stdlib/mallocr.c:2398
    {
      victim_size = chunksize(victim);
   10dbc:	00843783          	ld	a5,8(s0)
   10dc0:	ffc7f793          	andi	a5,a5,-4
/home/nancy/riscv-tools/riscv-gnu-toolchain/build/src/newlib-gcc/newlib/libc/stdlib/mallocr.c:2399
      remainder_size = long_sub_size_t(victim_size, nb);
   10dc4:	40978733          	sub	a4,a5,s1
/home/nancy/riscv-tools/riscv-gnu-toolchain/build/src/newlib-gcc/newlib/libc/stdlib/mallocr.c:2401
      
      if (remainder_size >= (long)MINSIZE) /* too big */
   10dc8:	fee654e3          	ble	a4,a2,10db0 <_malloc_r+0xa4>
/home/nancy/riscv-tools/riscv-gnu-toolchain/build/src/newlib-gcc/newlib/libc/stdlib/mallocr.c:2404
      {
        --idx; /* adjust to rescan below after checking last remainder */
        break;   
   10dcc:	00058693          	mv	a3,a1
/home/nancy/riscv-tools/riscv-gnu-toolchain/build/src/newlib-gcc/newlib/libc/stdlib/mallocr.c:2423

  }

  /* Try to use the last split-off remainder */

  if ( (victim = last_remainder->fd) != last_remainder)
   10dd0:	02093403          	ld	s0,32(s2)
   10dd4:	01090813          	addi	a6,s2,16
   10dd8:	47040a63          	beq	s0,a6,1124c <_malloc_r+0x540>
/home/nancy/riscv-tools/riscv-gnu-toolchain/build/src/newlib-gcc/newlib/libc/stdlib/mallocr.c:2425
  {
    victim_size = chunksize(victim);
   10ddc:	00843783          	ld	a5,8(s0)
/home/nancy/riscv-tools/riscv-gnu-toolchain/build/src/newlib-gcc/newlib/libc/stdlib/mallocr.c:2428
    remainder_size = long_sub_size_t(victim_size, nb);

    if (remainder_size >= (long)MINSIZE) /* re-split */
   10de0:	01f00613          	li	a2,31
/home/nancy/riscv-tools/riscv-gnu-toolchain/build/src/newlib-gcc/newlib/libc/stdlib/mallocr.c:2425

  /* Try to use the last split-off remainder */

  if ( (victim = last_remainder->fd) != last_remainder)
  {
    victim_size = chunksize(victim);
   10de4:	ffc7f793          	andi	a5,a5,-4
/home/nancy/riscv-tools/riscv-gnu-toolchain/build/src/newlib-gcc/newlib/libc/stdlib/mallocr.c:2426
    remainder_size = long_sub_size_t(victim_size, nb);
   10de8:	40978733          	sub	a4,a5,s1
/home/nancy/riscv-tools/riscv-gnu-toolchain/build/src/newlib-gcc/newlib/libc/stdlib/mallocr.c:2428

    if (remainder_size >= (long)MINSIZE) /* re-split */
   10dec:	44e64a63          	blt	a2,a4,11240 <_malloc_r+0x534>
/home/nancy/riscv-tools/riscv-gnu-toolchain/build/src/newlib-gcc/newlib/libc/stdlib/mallocr.c:2440
      check_malloced_chunk(victim, nb);
      MALLOC_UNLOCK;
      return chunk2mem(victim);
    }

    clear_last_remainder;
   10df0:	03093423          	sd	a6,40(s2)
   10df4:	03093023          	sd	a6,32(s2)
/home/nancy/riscv-tools/riscv-gnu-toolchain/build/src/newlib-gcc/newlib/libc/stdlib/mallocr.c:2442

    if (remainder_size >= 0)  /* exhaust */
   10df8:	20075063          	bgez	a4,10ff8 <_malloc_r+0x2ec>
/home/nancy/riscv-tools/riscv-gnu-toolchain/build/src/newlib-gcc/newlib/libc/stdlib/mallocr.c:2452
      return chunk2mem(victim);
    }

    /* Else place in bin */

    frontlink(victim, victim_size, remainder_index, bck, fwd);
   10dfc:	1ff00713          	li	a4,511
   10e00:	3cf76c63          	bltu	a4,a5,111d8 <_malloc_r+0x4cc>
/home/nancy/riscv-tools/riscv-gnu-toolchain/build/src/newlib-gcc/newlib/libc/stdlib/mallocr.c:2452 (discriminator 1)
   10e04:	0037d793          	srli	a5,a5,0x3
   10e08:	0007879b          	sext.w	a5,a5
   10e0c:	0017861b          	addiw	a2,a5,1
   10e10:	0016161b          	slliw	a2,a2,0x1
   10e14:	00361613          	slli	a2,a2,0x3
   10e18:	00893703          	ld	a4,8(s2)
   10e1c:	00c90633          	add	a2,s2,a2
   10e20:	00063503          	ld	a0,0(a2)
   10e24:	4027d79b          	sraiw	a5,a5,0x2
   10e28:	00100593          	li	a1,1
   10e2c:	00f597b3          	sll	a5,a1,a5
   10e30:	00e7e7b3          	or	a5,a5,a4
   10e34:	ff060713          	addi	a4,a2,-16
   10e38:	00e43c23          	sd	a4,24(s0)
   10e3c:	00a43823          	sd	a0,16(s0)
   10e40:	00f93423          	sd	a5,8(s2)
   10e44:	00863023          	sd	s0,0(a2)
   10e48:	00853c23          	sd	s0,24(a0)
/home/nancy/riscv-tools/riscv-gnu-toolchain/build/src/newlib-gcc/newlib/libc/stdlib/mallocr.c:2460
  /* 
     If there are any possibly nonempty big-enough blocks, 
     search for best fitting chunk by scanning bins in blockwidth units.
  */

  if ( (block = idx2binblock(idx)) <= binblocks)  
   10e4c:	4026d61b          	sraiw	a2,a3,0x2
   10e50:	00100713          	li	a4,1
   10e54:	00c71633          	sll	a2,a4,a2
   10e58:	1cc7e063          	bltu	a5,a2,11018 <_malloc_r+0x30c>
/home/nancy/riscv-tools/riscv-gnu-toolchain/build/src/newlib-gcc/newlib/libc/stdlib/mallocr.c:2465
  {

    /* Get to the first marked block */

    if ( (block & binblocks) == 0) 
   10e5c:	00f67733          	and	a4,a2,a5
   10e60:	02071463          	bnez	a4,10e88 <_malloc_r+0x17c>
/home/nancy/riscv-tools/riscv-gnu-toolchain/build/src/newlib-gcc/newlib/libc/stdlib/mallocr.c:2469
    {
      /* force to an even block boundary */
      idx = (idx & ~(BINBLOCKWIDTH - 1)) + BINBLOCKWIDTH;
      block <<= 1;
   10e64:	00161613          	slli	a2,a2,0x1
/home/nancy/riscv-tools/riscv-gnu-toolchain/build/src/newlib-gcc/newlib/libc/stdlib/mallocr.c:2468
    /* Get to the first marked block */

    if ( (block & binblocks) == 0) 
    {
      /* force to an even block boundary */
      idx = (idx & ~(BINBLOCKWIDTH - 1)) + BINBLOCKWIDTH;
   10e68:	ffc6f693          	andi	a3,a3,-4
/home/nancy/riscv-tools/riscv-gnu-toolchain/build/src/newlib-gcc/newlib/libc/stdlib/mallocr.c:2470
      block <<= 1;
      while ((block & binblocks) == 0)
   10e6c:	00f67733          	and	a4,a2,a5
/home/nancy/riscv-tools/riscv-gnu-toolchain/build/src/newlib-gcc/newlib/libc/stdlib/mallocr.c:2468
    /* Get to the first marked block */

    if ( (block & binblocks) == 0) 
    {
      /* force to an even block boundary */
      idx = (idx & ~(BINBLOCKWIDTH - 1)) + BINBLOCKWIDTH;
   10e70:	0046869b          	addiw	a3,a3,4
/home/nancy/riscv-tools/riscv-gnu-toolchain/build/src/newlib-gcc/newlib/libc/stdlib/mallocr.c:2470
      block <<= 1;
      while ((block & binblocks) == 0)
   10e74:	00071a63          	bnez	a4,10e88 <_malloc_r+0x17c>
/home/nancy/riscv-tools/riscv-gnu-toolchain/build/src/newlib-gcc/newlib/libc/stdlib/mallocr.c:2473
      {
        idx += BINBLOCKWIDTH;
        block <<= 1;
   10e78:	00161613          	slli	a2,a2,0x1
/home/nancy/riscv-tools/riscv-gnu-toolchain/build/src/newlib-gcc/newlib/libc/stdlib/mallocr.c:2470
    if ( (block & binblocks) == 0) 
    {
      /* force to an even block boundary */
      idx = (idx & ~(BINBLOCKWIDTH - 1)) + BINBLOCKWIDTH;
      block <<= 1;
      while ((block & binblocks) == 0)
   10e7c:	00f67733          	and	a4,a2,a5
/home/nancy/riscv-tools/riscv-gnu-toolchain/build/src/newlib-gcc/newlib/libc/stdlib/mallocr.c:2472
      {
        idx += BINBLOCKWIDTH;
   10e80:	0046869b          	addiw	a3,a3,4
/home/nancy/riscv-tools/riscv-gnu-toolchain/build/src/newlib-gcc/newlib/libc/stdlib/mallocr.c:2470
    if ( (block & binblocks) == 0) 
    {
      /* force to an even block boundary */
      idx = (idx & ~(BINBLOCKWIDTH - 1)) + BINBLOCKWIDTH;
      block <<= 1;
      while ((block & binblocks) == 0)
   10e84:	fe070ae3          	beqz	a4,10e78 <_malloc_r+0x16c>
/home/nancy/riscv-tools/riscv-gnu-toolchain/build/src/newlib-gcc/newlib/libc/stdlib/mallocr.c:2493
        for (victim = last(bin); victim != bin; victim = victim->bk)
        {
          victim_size = chunksize(victim);
          remainder_size = long_sub_size_t(victim_size, nb);

          if (remainder_size >= (long)MINSIZE) /* split */
   10e88:	01f00513          	li	a0,31
/home/nancy/riscv-tools/riscv-gnu-toolchain/build/src/newlib-gcc/newlib/libc/stdlib/mallocr.c:2481
      
    /* For each possibly nonempty block ... */
    for (;;)  
    {
      startidx = idx;          /* (track incomplete blocks) */
      q = bin = bin_at(idx);
   10e8c:	0016889b          	addiw	a7,a3,1
   10e90:	0018989b          	slliw	a7,a7,0x1
   10e94:	00389893          	slli	a7,a7,0x3
   10e98:	011908b3          	add	a7,s2,a7
   10e9c:	ff088893          	addi	a7,a7,-16
   10ea0:	00088593          	mv	a1,a7
   10ea4:	00068313          	mv	t1,a3
/home/nancy/riscv-tools/riscv-gnu-toolchain/build/src/newlib-gcc/newlib/libc/stdlib/mallocr.c:2488
      /* For each bin in this block ... */
      do
      {
        /* Find and use first big enough chunk ... */

        for (victim = last(bin); victim != bin; victim = victim->bk)
   10ea8:	0185b403          	ld	s0,24(a1)
   10eac:	00859a63          	bne	a1,s0,10ec0 <_malloc_r+0x1b4>
   10eb0:	3a40006f          	j	11254 <_malloc_r+0x548>
/home/nancy/riscv-tools/riscv-gnu-toolchain/build/src/newlib-gcc/newlib/libc/stdlib/mallocr.c:2506
            check_malloced_chunk(victim, nb);
	    MALLOC_UNLOCK;
            return chunk2mem(victim);
          }

          else if (remainder_size >= 0)  /* take */
   10eb4:	3c075263          	bgez	a4,11278 <_malloc_r+0x56c>
/home/nancy/riscv-tools/riscv-gnu-toolchain/build/src/newlib-gcc/newlib/libc/stdlib/mallocr.c:2488 (discriminator 2)
      /* For each bin in this block ... */
      do
      {
        /* Find and use first big enough chunk ... */

        for (victim = last(bin); victim != bin; victim = victim->bk)
   10eb8:	01843403          	ld	s0,24(s0)
   10ebc:	38858c63          	beq	a1,s0,11254 <_malloc_r+0x548>
/home/nancy/riscv-tools/riscv-gnu-toolchain/build/src/newlib-gcc/newlib/libc/stdlib/mallocr.c:2490
        {
          victim_size = chunksize(victim);
   10ec0:	00843783          	ld	a5,8(s0)
   10ec4:	ffc7f793          	andi	a5,a5,-4
/home/nancy/riscv-tools/riscv-gnu-toolchain/build/src/newlib-gcc/newlib/libc/stdlib/mallocr.c:2491
          remainder_size = long_sub_size_t(victim_size, nb);
   10ec8:	40978733          	sub	a4,a5,s1
/home/nancy/riscv-tools/riscv-gnu-toolchain/build/src/newlib-gcc/newlib/libc/stdlib/mallocr.c:2493

          if (remainder_size >= (long)MINSIZE) /* split */
   10ecc:	fee554e3          	ble	a4,a0,10eb4 <_malloc_r+0x1a8>
/home/nancy/riscv-tools/riscv-gnu-toolchain/build/src/newlib-gcc/newlib/libc/stdlib/mallocr.c:2497
          {
            remainder = chunk_at_offset(victim, nb);
            set_head(victim, nb | PREV_INUSE);
            unlink(victim, bck, fwd);
   10ed0:	01843783          	ld	a5,24(s0)
   10ed4:	01043683          	ld	a3,16(s0)
/home/nancy/riscv-tools/riscv-gnu-toolchain/build/src/newlib-gcc/newlib/libc/stdlib/mallocr.c:2496
          remainder_size = long_sub_size_t(victim_size, nb);

          if (remainder_size >= (long)MINSIZE) /* split */
          {
            remainder = chunk_at_offset(victim, nb);
            set_head(victim, nb | PREV_INUSE);
   10ed8:	0014e613          	ori	a2,s1,1
   10edc:	00c43423          	sd	a2,8(s0)
/home/nancy/riscv-tools/riscv-gnu-toolchain/build/src/newlib-gcc/newlib/libc/stdlib/mallocr.c:2497
            unlink(victim, bck, fwd);
   10ee0:	00f6bc23          	sd	a5,24(a3)
   10ee4:	00d7b823          	sd	a3,16(a5) # ffffffff80000010 <_end+0xffffffff7ffd91f8>
/home/nancy/riscv-tools/riscv-gnu-toolchain/build/src/newlib-gcc/newlib/libc/stdlib/mallocr.c:2495
          victim_size = chunksize(victim);
          remainder_size = long_sub_size_t(victim_size, nb);

          if (remainder_size >= (long)MINSIZE) /* split */
          {
            remainder = chunk_at_offset(victim, nb);
   10ee8:	009404b3          	add	s1,s0,s1
/home/nancy/riscv-tools/riscv-gnu-toolchain/build/src/newlib-gcc/newlib/libc/stdlib/mallocr.c:2498
            set_head(victim, nb | PREV_INUSE);
            unlink(victim, bck, fwd);
            link_last_remainder(remainder);
   10eec:	02993423          	sd	s1,40(s2)
   10ef0:	02993023          	sd	s1,32(s2)
/home/nancy/riscv-tools/riscv-gnu-toolchain/build/src/newlib-gcc/newlib/libc/stdlib/mallocr.c:2499
            set_head(remainder, remainder_size | PREV_INUSE);
   10ef4:	00176793          	ori	a5,a4,1
/home/nancy/riscv-tools/riscv-gnu-toolchain/build/src/newlib-gcc/newlib/libc/stdlib/mallocr.c:2498
          if (remainder_size >= (long)MINSIZE) /* split */
          {
            remainder = chunk_at_offset(victim, nb);
            set_head(victim, nb | PREV_INUSE);
            unlink(victim, bck, fwd);
            link_last_remainder(remainder);
   10ef8:	0104bc23          	sd	a6,24(s1)
   10efc:	0104b823          	sd	a6,16(s1)
/home/nancy/riscv-tools/riscv-gnu-toolchain/build/src/newlib-gcc/newlib/libc/stdlib/mallocr.c:2499
            set_head(remainder, remainder_size | PREV_INUSE);
   10f00:	00f4b423          	sd	a5,8(s1)
/home/nancy/riscv-tools/riscv-gnu-toolchain/build/src/newlib-gcc/newlib/libc/stdlib/mallocr.c:2500
            set_foot(remainder, remainder_size);
   10f04:	00e484b3          	add	s1,s1,a4
/home/nancy/riscv-tools/riscv-gnu-toolchain/build/src/newlib-gcc/newlib/libc/stdlib/mallocr.c:2502
            check_malloced_chunk(victim, nb);
	    MALLOC_UNLOCK;
   10f08:	00098513          	mv	a0,s3
/home/nancy/riscv-tools/riscv-gnu-toolchain/build/src/newlib-gcc/newlib/libc/stdlib/mallocr.c:2500
            remainder = chunk_at_offset(victim, nb);
            set_head(victim, nb | PREV_INUSE);
            unlink(victim, bck, fwd);
            link_last_remainder(remainder);
            set_head(remainder, remainder_size | PREV_INUSE);
            set_foot(remainder, remainder_size);
   10f0c:	00e4b023          	sd	a4,0(s1)
/home/nancy/riscv-tools/riscv-gnu-toolchain/build/src/newlib-gcc/newlib/libc/stdlib/mallocr.c:2502
            check_malloced_chunk(victim, nb);
	    MALLOC_UNLOCK;
   10f10:	570000ef          	jal	11480 <__malloc_unlock>
/home/nancy/riscv-tools/riscv-gnu-toolchain/build/src/newlib-gcc/newlib/libc/stdlib/mallocr.c:2503
            return chunk2mem(victim);
   10f14:	01040513          	addi	a0,s0,16
   10f18:	0680006f          	j	10f80 <_malloc_r+0x274>
/home/nancy/riscv-tools/riscv-gnu-toolchain/build/src/newlib-gcc/newlib/libc/stdlib/mallocr.c:2351
  mbinptr q;                         /* misc temp */

  INTERNAL_SIZE_T nb  = request2size(bytes);  /* padded request size; */

  /* Check for overflow and just fail, if so. */
  if (nb > INT_MAX || nb < bytes)
   10f1c:	02000493          	li	s1,32
   10f20:	08b4ea63          	bltu	s1,a1,10fb4 <_malloc_r+0x2a8>
/home/nancy/riscv-tools/riscv-gnu-toolchain/build/src/newlib-gcc/newlib/libc/stdlib/mallocr.c:2357
  {
    RERRNO = ENOMEM;
    return 0;
  }

  MALLOC_LOCK;
   10f24:	558000ef          	jal	1147c <__malloc_lock>
   10f28:	00a00793          	li	a5,10
   10f2c:	00400693          	li	a3,4
/home/nancy/riscv-tools/riscv-gnu-toolchain/build/src/newlib-gcc/newlib/libc/stdlib/mallocr.c:2367
  {
    idx = smallbin_index(nb); 

    /* No traversal or size check necessary for small bins.  */

    q = bin_at(idx);
   10f30:	00024937          	lui	s2,0x24
   10f34:	b8890913          	addi	s2,s2,-1144 # 23b88 <__malloc_av_>
   10f38:	00379793          	slli	a5,a5,0x3
   10f3c:	00f907b3          	add	a5,s2,a5
/home/nancy/riscv-tools/riscv-gnu-toolchain/build/src/newlib-gcc/newlib/libc/stdlib/mallocr.c:2368
    victim = last(q);
   10f40:	0087b403          	ld	s0,8(a5)
/home/nancy/riscv-tools/riscv-gnu-toolchain/build/src/newlib-gcc/newlib/libc/stdlib/mallocr.c:2372

#if MALLOC_ALIGN != 16
    /* Also scan the next one, since it would have a remainder < MINSIZE */
    if (victim == q)
   10f44:	ff078713          	addi	a4,a5,-16
   10f48:	32e40063          	beq	s0,a4,11268 <_malloc_r+0x55c>
/home/nancy/riscv-tools/riscv-gnu-toolchain/build/src/newlib-gcc/newlib/libc/stdlib/mallocr.c:2380
      victim = last(q);
    }
#endif
    if (victim != q)
    {
      victim_size = chunksize(victim);
   10f4c:	00843783          	ld	a5,8(s0)
/home/nancy/riscv-tools/riscv-gnu-toolchain/build/src/newlib-gcc/newlib/libc/stdlib/mallocr.c:2381
      unlink(victim, bck, fwd);
   10f50:	01843683          	ld	a3,24(s0)
   10f54:	01043603          	ld	a2,16(s0)
/home/nancy/riscv-tools/riscv-gnu-toolchain/build/src/newlib-gcc/newlib/libc/stdlib/mallocr.c:2380
      victim = last(q);
    }
#endif
    if (victim != q)
    {
      victim_size = chunksize(victim);
   10f58:	ffc7f793          	andi	a5,a5,-4
/home/nancy/riscv-tools/riscv-gnu-toolchain/build/src/newlib-gcc/newlib/libc/stdlib/mallocr.c:2410
      }

      else if (remainder_size >= 0) /* exact fit */
      {
        unlink(victim, bck, fwd);
        set_inuse_bit_at_offset(victim, victim_size);
   10f5c:	00f407b3          	add	a5,s0,a5
   10f60:	0087b703          	ld	a4,8(a5)
/home/nancy/riscv-tools/riscv-gnu-toolchain/build/src/newlib-gcc/newlib/libc/stdlib/mallocr.c:2409
        break;   
      }

      else if (remainder_size >= 0) /* exact fit */
      {
        unlink(victim, bck, fwd);
   10f64:	00d63c23          	sd	a3,24(a2)
   10f68:	00c6b823          	sd	a2,16(a3)
/home/nancy/riscv-tools/riscv-gnu-toolchain/build/src/newlib-gcc/newlib/libc/stdlib/mallocr.c:2410
        set_inuse_bit_at_offset(victim, victim_size);
   10f6c:	00176713          	ori	a4,a4,1
/home/nancy/riscv-tools/riscv-gnu-toolchain/build/src/newlib-gcc/newlib/libc/stdlib/mallocr.c:2412
        check_malloced_chunk(victim, nb);
	MALLOC_UNLOCK;
   10f70:	00098513          	mv	a0,s3
/home/nancy/riscv-tools/riscv-gnu-toolchain/build/src/newlib-gcc/newlib/libc/stdlib/mallocr.c:2410
      }

      else if (remainder_size >= 0) /* exact fit */
      {
        unlink(victim, bck, fwd);
        set_inuse_bit_at_offset(victim, victim_size);
   10f74:	00e7b423          	sd	a4,8(a5)
/home/nancy/riscv-tools/riscv-gnu-toolchain/build/src/newlib-gcc/newlib/libc/stdlib/mallocr.c:2412
        check_malloced_chunk(victim, nb);
	MALLOC_UNLOCK;
   10f78:	508000ef          	jal	11480 <__malloc_unlock>
/home/nancy/riscv-tools/riscv-gnu-toolchain/build/src/newlib-gcc/newlib/libc/stdlib/mallocr.c:2413
        return chunk2mem(victim);
   10f7c:	01040513          	addi	a0,s0,16
/home/nancy/riscv-tools/riscv-gnu-toolchain/build/src/newlib-gcc/newlib/libc/stdlib/mallocr.c:2593
  check_malloced_chunk(victim, nb);
  MALLOC_UNLOCK;
  return chunk2mem(victim);

#endif /* MALLOC_PROVIDED */
}
   10f80:	05813083          	ld	ra,88(sp)
   10f84:	05013403          	ld	s0,80(sp)
   10f88:	04813483          	ld	s1,72(sp)
   10f8c:	04013903          	ld	s2,64(sp)
   10f90:	03813983          	ld	s3,56(sp)
   10f94:	03013a03          	ld	s4,48(sp)
   10f98:	02813a83          	ld	s5,40(sp)
   10f9c:	02013b03          	ld	s6,32(sp)
   10fa0:	01813b83          	ld	s7,24(sp)
   10fa4:	01013c03          	ld	s8,16(sp)
   10fa8:	00813c83          	ld	s9,8(sp)
   10fac:	06010113          	addi	sp,sp,96
   10fb0:	00008067          	ret
/home/nancy/riscv-tools/riscv-gnu-toolchain/build/src/newlib-gcc/newlib/libc/stdlib/mallocr.c:2353
  INTERNAL_SIZE_T nb  = request2size(bytes);  /* padded request size; */

  /* Check for overflow and just fail, if so. */
  if (nb > INT_MAX || nb < bytes)
  {
    RERRNO = ENOMEM;
   10fb4:	00c00793          	li	a5,12
   10fb8:	00f9a023          	sw	a5,0(s3)
/home/nancy/riscv-tools/riscv-gnu-toolchain/build/src/newlib-gcc/newlib/libc/stdlib/mallocr.c:2354
    return 0;
   10fbc:	00000513          	li	a0,0
   10fc0:	fc1ff06f          	j	10f80 <_malloc_r+0x274>
/home/nancy/riscv-tools/riscv-gnu-toolchain/build/src/newlib-gcc/newlib/libc/stdlib/mallocr.c:2393 (discriminator 2)
    idx += 2; /* Set for bin scan below. We've already scanned 2 bins. */

  }
  else
  {
    idx = bin_index(nb);
   10fc4:	00400713          	li	a4,4
   10fc8:	1ef76463          	bltu	a4,a5,111b0 <_malloc_r+0x4a4>
/home/nancy/riscv-tools/riscv-gnu-toolchain/build/src/newlib-gcc/newlib/libc/stdlib/mallocr.c:2393 (discriminator 4)
   10fcc:	0064d593          	srli	a1,s1,0x6
   10fd0:	0005859b          	sext.w	a1,a1
   10fd4:	0395851b          	addiw	a0,a1,57
   10fd8:	0015169b          	slliw	a3,a0,0x1
   10fdc:	0385859b          	addiw	a1,a1,56
   10fe0:	da1ff06f          	j	10d80 <_malloc_r+0x74>
/home/nancy/riscv-tools/riscv-gnu-toolchain/build/src/newlib-gcc/newlib/libc/stdlib/mallocr.c:2396
    bin = bin_at(idx);

    for (victim = last(bin); victim != bin; victim = victim->bk)
   10fe4:	00050693          	mv	a3,a0
   10fe8:	de9ff06f          	j	10dd0 <_malloc_r+0xc4>
/home/nancy/riscv-tools/riscv-gnu-toolchain/build/src/newlib-gcc/newlib/libc/stdlib/mallocr.c:2409
        break;   
      }

      else if (remainder_size >= 0) /* exact fit */
      {
        unlink(victim, bck, fwd);
   10fec:	01843683          	ld	a3,24(s0)
   10ff0:	01043603          	ld	a2,16(s0)
   10ff4:	f69ff06f          	j	10f5c <_malloc_r+0x250>
/home/nancy/riscv-tools/riscv-gnu-toolchain/build/src/newlib-gcc/newlib/libc/stdlib/mallocr.c:2444

    clear_last_remainder;

    if (remainder_size >= 0)  /* exhaust */
    {
      set_inuse_bit_at_offset(victim, victim_size);
   10ff8:	00f407b3          	add	a5,s0,a5
   10ffc:	0087b703          	ld	a4,8(a5)
/home/nancy/riscv-tools/riscv-gnu-toolchain/build/src/newlib-gcc/newlib/libc/stdlib/mallocr.c:2446
      check_malloced_chunk(victim, nb);
      MALLOC_UNLOCK;
   11000:	00098513          	mv	a0,s3
/home/nancy/riscv-tools/riscv-gnu-toolchain/build/src/newlib-gcc/newlib/libc/stdlib/mallocr.c:2444

    clear_last_remainder;

    if (remainder_size >= 0)  /* exhaust */
    {
      set_inuse_bit_at_offset(victim, victim_size);
   11004:	00176713          	ori	a4,a4,1
   11008:	00e7b423          	sd	a4,8(a5)
/home/nancy/riscv-tools/riscv-gnu-toolchain/build/src/newlib-gcc/newlib/libc/stdlib/mallocr.c:2446
      check_malloced_chunk(victim, nb);
      MALLOC_UNLOCK;
   1100c:	474000ef          	jal	11480 <__malloc_unlock>
/home/nancy/riscv-tools/riscv-gnu-toolchain/build/src/newlib-gcc/newlib/libc/stdlib/mallocr.c:2447
      return chunk2mem(victim);
   11010:	01040513          	addi	a0,s0,16
   11014:	f6dff06f          	j	10f80 <_malloc_r+0x274>
/home/nancy/riscv-tools/riscv-gnu-toolchain/build/src/newlib-gcc/newlib/libc/stdlib/mallocr.c:2560


  /* Try to use top chunk */

  /* Require that there be a remainder, ensuring top always exists  */
  remainder_size = long_sub_size_t(chunksize(top), nb);
   11018:	01093403          	ld	s0,16(s2)
   1101c:	00843703          	ld	a4,8(s0)
   11020:	ffc77b93          	andi	s7,a4,-4
/home/nancy/riscv-tools/riscv-gnu-toolchain/build/src/newlib-gcc/newlib/libc/stdlib/mallocr.c:2561
  if (chunksize(top) < nb || remainder_size < (long)MINSIZE)
   11024:	009be863          	bltu	s7,s1,11034 <_malloc_r+0x328>
/home/nancy/riscv-tools/riscv-gnu-toolchain/build/src/newlib-gcc/newlib/libc/stdlib/mallocr.c:2560 (discriminator 1)


  /* Try to use top chunk */

  /* Require that there be a remainder, ensuring top always exists  */
  remainder_size = long_sub_size_t(chunksize(top), nb);
   11028:	409b87b3          	sub	a5,s7,s1
/home/nancy/riscv-tools/riscv-gnu-toolchain/build/src/newlib-gcc/newlib/libc/stdlib/mallocr.c:2561
  if (chunksize(top) < nb || remainder_size < (long)MINSIZE)
   1102c:	01f00713          	li	a4,31
   11030:	14f74c63          	blt	a4,a5,11188 <_malloc_r+0x47c>
malloc_extend_top():
/home/nancy/riscv-tools/riscv-gnu-toolchain/build/src/newlib-gcc/newlib/libc/stdlib/mallocr.c:2155
  INTERNAL_SIZE_T old_top_size = chunksize(old_top);
  char*     old_end      = (char*)(chunk_at_offset(old_top, old_top_size));

  /* Pad request with top_pad plus minimal overhead */
  
  INTERNAL_SIZE_T    sbrk_size     = nb + top_pad + MINSIZE;
   11034:	9101b783          	ld	a5,-1776(gp) # 24550 <__malloc_top_pad>
/home/nancy/riscv-tools/riscv-gnu-toolchain/build/src/newlib-gcc/newlib/libc/stdlib/mallocr.c:2162

  /* If not the first time through, round to preserve page boundary */
  /* Otherwise, we need to correct to a page size below anyway. */
  /* (We also correct below if an intervening foreign sbrk call.) */

  if (sbrk_base != (char*)(-1))
   11038:	8181b683          	ld	a3,-2024(gp) # 24458 <__malloc_sbrk_base>
   1103c:	fff00713          	li	a4,-1
/home/nancy/riscv-tools/riscv-gnu-toolchain/build/src/newlib-gcc/newlib/libc/stdlib/mallocr.c:2155
  INTERNAL_SIZE_T old_top_size = chunksize(old_top);
  char*     old_end      = (char*)(chunk_at_offset(old_top, old_top_size));

  /* Pad request with top_pad plus minimal overhead */
  
  INTERNAL_SIZE_T    sbrk_size     = nb + top_pad + MINSIZE;
   11040:	00f487b3          	add	a5,s1,a5
/home/nancy/riscv-tools/riscv-gnu-toolchain/build/src/newlib-gcc/newlib/libc/stdlib/mallocr.c:2151
  char*     new_brk;              /* return of 2nd sbrk call */
  INTERNAL_SIZE_T top_size;       /* new size of top chunk */

  mchunkptr old_top     = top;  /* Record state of old top */
  INTERNAL_SIZE_T old_top_size = chunksize(old_top);
  char*     old_end      = (char*)(chunk_at_offset(old_top, old_top_size));
   11044:	01740a33          	add	s4,s0,s7
/home/nancy/riscv-tools/riscv-gnu-toolchain/build/src/newlib-gcc/newlib/libc/stdlib/mallocr.c:2155

  /* Pad request with top_pad plus minimal overhead */
  
  INTERNAL_SIZE_T    sbrk_size     = nb + top_pad + MINSIZE;
   11048:	02078b13          	addi	s6,a5,32
/home/nancy/riscv-tools/riscv-gnu-toolchain/build/src/newlib-gcc/newlib/libc/stdlib/mallocr.c:2162

  /* If not the first time through, round to preserve page boundary */
  /* Otherwise, we need to correct to a page size below anyway. */
  /* (We also correct below if an intervening foreign sbrk call.) */

  if (sbrk_base != (char*)(-1))
   1104c:	00e68c63          	beq	a3,a4,11064 <_malloc_r+0x358>
/home/nancy/riscv-tools/riscv-gnu-toolchain/build/src/newlib-gcc/newlib/libc/stdlib/mallocr.c:2163
    sbrk_size = (sbrk_size + (pagesz - 1)) & ~(pagesz - 1);
   11050:	00001b37          	lui	s6,0x1
   11054:	01fb0b13          	addi	s6,s6,31 # 101f <_ftext-0xefe1>
   11058:	01678b33          	add	s6,a5,s6
   1105c:	fffff7b7          	lui	a5,0xfffff
   11060:	00fb7b33          	and	s6,s6,a5
/home/nancy/riscv-tools/riscv-gnu-toolchain/build/src/newlib-gcc/newlib/libc/stdlib/mallocr.c:2165

  brk = (char*)(MORECORE (sbrk_size));
   11064:	000b0513          	mv	a0,s6
   11068:	4b80f0ef          	jal	20520 <sbrk>
/home/nancy/riscv-tools/riscv-gnu-toolchain/build/src/newlib-gcc/newlib/libc/stdlib/mallocr.c:2168

  /* Fail if sbrk failed or if a foreign sbrk call killed our space */
  if (brk == (char*)(MORECORE_FAILURE) || 
   1106c:	fff00793          	li	a5,-1
/home/nancy/riscv-tools/riscv-gnu-toolchain/build/src/newlib-gcc/newlib/libc/stdlib/mallocr.c:2165
  /* (We also correct below if an intervening foreign sbrk call.) */

  if (sbrk_base != (char*)(-1))
    sbrk_size = (sbrk_size + (pagesz - 1)) & ~(pagesz - 1);

  brk = (char*)(MORECORE (sbrk_size));
   11070:	00050a93          	mv	s5,a0
/home/nancy/riscv-tools/riscv-gnu-toolchain/build/src/newlib-gcc/newlib/libc/stdlib/mallocr.c:2168

  /* Fail if sbrk failed or if a foreign sbrk call killed our space */
  if (brk == (char*)(MORECORE_FAILURE) || 
   11074:	26f50263          	beq	a0,a5,112d8 <_malloc_r+0x5cc>
   11078:	25456e63          	bltu	a0,s4,112d4 <_malloc_r+0x5c8>
/home/nancy/riscv-tools/riscv-gnu-toolchain/build/src/newlib-gcc/newlib/libc/stdlib/mallocr.c:2172
      (brk < old_end && old_top != initial_top))
    return;

  sbrked_mem += sbrk_size;
   1107c:	96818c13          	addi	s8,gp,-1688 # 245a8 <__malloc_current_mallinfo>
   11080:	000c2783          	lw	a5,0(s8)
   11084:	00fb07bb          	addw	a5,s6,a5
   11088:	00fc2023          	sw	a5,0(s8)
/home/nancy/riscv-tools/riscv-gnu-toolchain/build/src/newlib-gcc/newlib/libc/stdlib/mallocr.c:2174

  if (brk == old_end /* can just add bytes to current top, unless
   1108c:	355a0463          	beq	s4,s5,113d4 <_malloc_r+0x6c8>
/home/nancy/riscv-tools/riscv-gnu-toolchain/build/src/newlib-gcc/newlib/libc/stdlib/mallocr.c:2183
    top_size = sbrk_size + old_top_size;
    set_head(top, top_size | PREV_INUSE);
  }
  else
  {
    if (sbrk_base == (char*)(-1))  /* First time through. Record base */
   11090:	8181b683          	ld	a3,-2024(gp) # 24458 <__malloc_sbrk_base>
   11094:	fff00713          	li	a4,-1
   11098:	36e68263          	beq	a3,a4,113fc <_malloc_r+0x6f0>
/home/nancy/riscv-tools/riscv-gnu-toolchain/build/src/newlib-gcc/newlib/libc/stdlib/mallocr.c:2186
      sbrk_base = brk;
    else  /* Someone else called sbrk().  Count those bytes as sbrked_mem. */
      sbrked_mem += brk - (char*)old_end;
   1109c:	414a8a33          	sub	s4,s5,s4
   110a0:	00fa07bb          	addw	a5,s4,a5
   110a4:	00fc2023          	sw	a5,0(s8)
/home/nancy/riscv-tools/riscv-gnu-toolchain/build/src/newlib-gcc/newlib/libc/stdlib/mallocr.c:2189

    /* Guarantee alignment of first new chunk made from this space */
    front_misalign = (POINTER_UINT)chunk2mem(brk) & MALLOC_ALIGN_MASK;
   110a8:	00faf713          	andi	a4,s5,15
/home/nancy/riscv-tools/riscv-gnu-toolchain/build/src/newlib-gcc/newlib/libc/stdlib/mallocr.c:2190
    if (front_misalign > 0) 
   110ac:	000017b7          	lui	a5,0x1
   110b0:	00070a63          	beqz	a4,110c4 <_malloc_r+0x3b8>
/home/nancy/riscv-tools/riscv-gnu-toolchain/build/src/newlib-gcc/newlib/libc/stdlib/mallocr.c:2193
    {
      correction = (MALLOC_ALIGNMENT) - front_misalign;
      brk += correction;
   110b4:	40ea8ab3          	sub	s5,s5,a4
   110b8:	01078a13          	addi	s4,a5,16 # 1010 <_ftext-0xeff0>
   110bc:	010a8a93          	addi	s5,s5,16
   110c0:	40ea07b3          	sub	a5,s4,a4
/home/nancy/riscv-tools/riscv-gnu-toolchain/build/src/newlib-gcc/newlib/libc/stdlib/mallocr.c:2199
    }
    else
      correction = 0;

    /* Guarantee the next brk will be at a page boundary */
    correction += pagesz - ((POINTER_UINT)(brk + sbrk_size) & (pagesz - 1));
   110c4:	00001a37          	lui	s4,0x1
   110c8:	fffa0a13          	addi	s4,s4,-1 # fff <_ftext-0xf001>
   110cc:	016a8b33          	add	s6,s5,s6
   110d0:	014b7b33          	and	s6,s6,s4
   110d4:	41678a33          	sub	s4,a5,s6
/home/nancy/riscv-tools/riscv-gnu-toolchain/build/src/newlib-gcc/newlib/libc/stdlib/mallocr.c:2202

    /* Allocate correction */
    new_brk = (char*)(MORECORE (correction));
   110d8:	000a0513          	mv	a0,s4
   110dc:	4440f0ef          	jal	20520 <sbrk>
/home/nancy/riscv-tools/riscv-gnu-toolchain/build/src/newlib-gcc/newlib/libc/stdlib/mallocr.c:2203
    if (new_brk == (char*)(MORECORE_FAILURE))
   110e0:	fff00793          	li	a5,-1
   110e4:	30f50663          	beq	a0,a5,113f0 <_malloc_r+0x6e4>
   110e8:	41550733          	sub	a4,a0,s5
   110ec:	01470733          	add	a4,a4,s4
   110f0:	00176713          	ori	a4,a4,1
   110f4:	000a0a1b          	sext.w	s4,s4
/home/nancy/riscv-tools/riscv-gnu-toolchain/build/src/newlib-gcc/newlib/libc/stdlib/mallocr.c:2210
	correction = 0;
	correction_failed = 1;
	new_brk = brk;
      }

    sbrked_mem += correction;
   110f8:	000c2783          	lw	a5,0(s8)
/home/nancy/riscv-tools/riscv-gnu-toolchain/build/src/newlib-gcc/newlib/libc/stdlib/mallocr.c:2212

    top = (mchunkptr)brk;
   110fc:	01593823          	sd	s5,16(s2)
/home/nancy/riscv-tools/riscv-gnu-toolchain/build/src/newlib-gcc/newlib/libc/stdlib/mallocr.c:2214
    top_size = new_brk - brk + correction;
    set_head(top, top_size | PREV_INUSE);
   11100:	00eab423          	sd	a4,8(s5)
/home/nancy/riscv-tools/riscv-gnu-toolchain/build/src/newlib-gcc/newlib/libc/stdlib/mallocr.c:2210
	correction = 0;
	correction_failed = 1;
	new_brk = brk;
      }

    sbrked_mem += correction;
   11104:	00fa07bb          	addw	a5,s4,a5
   11108:	00fc2023          	sw	a5,0(s8)
/home/nancy/riscv-tools/riscv-gnu-toolchain/build/src/newlib-gcc/newlib/libc/stdlib/mallocr.c:2216

    top = (mchunkptr)brk;
    top_size = new_brk - brk + correction;
    set_head(top, top_size | PREV_INUSE);

    if (old_top != initial_top)
   1110c:	03240c63          	beq	s0,s2,11144 <_malloc_r+0x438>
/home/nancy/riscv-tools/riscv-gnu-toolchain/build/src/newlib-gcc/newlib/libc/stdlib/mallocr.c:2223

      /* There must have been an intervening foreign sbrk call. */
      /* A double fencepost is necessary to prevent consolidation */

      /* If not enough space to do this, then user did something very wrong */
      if (old_top_size < MINSIZE) 
   11110:	01f00613          	li	a2,31
   11114:	27767463          	bleu	s7,a2,1137c <_malloc_r+0x670>
/home/nancy/riscv-tools/riscv-gnu-toolchain/build/src/newlib-gcc/newlib/libc/stdlib/mallocr.c:2231
        return;
      }

      /* Also keep size a multiple of MALLOC_ALIGNMENT */
      old_top_size = (old_top_size - 3*SIZE_SZ) & ~MALLOC_ALIGN_MASK;
      set_head_size(old_top, old_top_size);
   11118:	00843683          	ld	a3,8(s0)
/home/nancy/riscv-tools/riscv-gnu-toolchain/build/src/newlib-gcc/newlib/libc/stdlib/mallocr.c:2230
        set_head(top, PREV_INUSE); /* will force null return from malloc */
        return;
      }

      /* Also keep size a multiple of MALLOC_ALIGNMENT */
      old_top_size = (old_top_size - 3*SIZE_SZ) & ~MALLOC_ALIGN_MASK;
   1111c:	fe8b8713          	addi	a4,s7,-24
   11120:	ff077713          	andi	a4,a4,-16
/home/nancy/riscv-tools/riscv-gnu-toolchain/build/src/newlib-gcc/newlib/libc/stdlib/mallocr.c:2231
      set_head_size(old_top, old_top_size);
   11124:	0016f693          	andi	a3,a3,1
   11128:	00e6e6b3          	or	a3,a3,a4
   1112c:	00d43423          	sd	a3,8(s0)
/home/nancy/riscv-tools/riscv-gnu-toolchain/build/src/newlib-gcc/newlib/libc/stdlib/mallocr.c:2232
      chunk_at_offset(old_top, old_top_size          )->size =
   11130:	00900593          	li	a1,9
   11134:	00e406b3          	add	a3,s0,a4
   11138:	00b6b423          	sd	a1,8(a3)
/home/nancy/riscv-tools/riscv-gnu-toolchain/build/src/newlib-gcc/newlib/libc/stdlib/mallocr.c:2234
        SIZE_SZ|PREV_INUSE;
      chunk_at_offset(old_top, old_top_size + SIZE_SZ)->size =
   1113c:	00b6b823          	sd	a1,16(a3)
/home/nancy/riscv-tools/riscv-gnu-toolchain/build/src/newlib-gcc/newlib/libc/stdlib/mallocr.c:2237
        SIZE_SZ|PREV_INUSE;
      /* If possible, release the rest. */
      if (old_top_size >= MINSIZE) 
   11140:	2ce66263          	bltu	a2,a4,11404 <_malloc_r+0x6f8>
/home/nancy/riscv-tools/riscv-gnu-toolchain/build/src/newlib-gcc/newlib/libc/stdlib/mallocr.c:2242
        fREe(RCALL chunk2mem(old_top));
    }
  }

  if ((unsigned long)sbrked_mem > (unsigned long)max_sbrked_mem) 
   11144:	9081b683          	ld	a3,-1784(gp) # 24548 <__malloc_max_sbrked_mem>
   11148:	00f6f463          	bleu	a5,a3,11150 <_malloc_r+0x444>
/home/nancy/riscv-tools/riscv-gnu-toolchain/build/src/newlib-gcc/newlib/libc/stdlib/mallocr.c:2243
    max_sbrked_mem = sbrked_mem;
   1114c:	90f1b423          	sd	a5,-1784(gp) # 24548 <__malloc_max_sbrked_mem>
/home/nancy/riscv-tools/riscv-gnu-toolchain/build/src/newlib-gcc/newlib/libc/stdlib/mallocr.c:2248
#if HAVE_MMAP
  if ((unsigned long)(mmapped_mem + sbrked_mem) > (unsigned long)max_total_mem) 
    max_total_mem = mmapped_mem + sbrked_mem;
#else
  if ((unsigned long)(sbrked_mem) > (unsigned long)max_total_mem) 
   11150:	9001b683          	ld	a3,-1792(gp) # 24540 <__malloc_max_total_mem>
   11154:	01093403          	ld	s0,16(s2)
   11158:	00f6f463          	bleu	a5,a3,11160 <_malloc_r+0x454>
/home/nancy/riscv-tools/riscv-gnu-toolchain/build/src/newlib-gcc/newlib/libc/stdlib/mallocr.c:2249
    max_total_mem = sbrked_mem;
   1115c:	90f1b023          	sd	a5,-1792(gp) # 24540 <__malloc_max_total_mem>
   11160:	00843703          	ld	a4,8(s0)
   11164:	ffc77713          	andi	a4,a4,-4
_malloc_r():
/home/nancy/riscv-tools/riscv-gnu-toolchain/build/src/newlib-gcc/newlib/libc/stdlib/mallocr.c:2576
    }
#endif

    /* Try to extend */
    malloc_extend_top(RCALL nb);
    remainder_size = long_sub_size_t(chunksize(top), nb);
   11168:	409707b3          	sub	a5,a4,s1
/home/nancy/riscv-tools/riscv-gnu-toolchain/build/src/newlib-gcc/newlib/libc/stdlib/mallocr.c:2577
    if (chunksize(top) < nb || remainder_size < (long)MINSIZE)
   1116c:	00976663          	bltu	a4,s1,11178 <_malloc_r+0x46c>
/home/nancy/riscv-tools/riscv-gnu-toolchain/build/src/newlib-gcc/newlib/libc/stdlib/mallocr.c:2577 (discriminator 1)
   11170:	01f00713          	li	a4,31
   11174:	00f74a63          	blt	a4,a5,11188 <_malloc_r+0x47c>
/home/nancy/riscv-tools/riscv-gnu-toolchain/build/src/newlib-gcc/newlib/libc/stdlib/mallocr.c:2579
    {
      MALLOC_UNLOCK;
   11178:	00098513          	mv	a0,s3
   1117c:	304000ef          	jal	11480 <__malloc_unlock>
/home/nancy/riscv-tools/riscv-gnu-toolchain/build/src/newlib-gcc/newlib/libc/stdlib/mallocr.c:2580
      return 0; /* propagate failure */
   11180:	00000513          	li	a0,0
   11184:	dfdff06f          	j	10f80 <_malloc_r+0x274>
/home/nancy/riscv-tools/riscv-gnu-toolchain/build/src/newlib-gcc/newlib/libc/stdlib/mallocr.c:2585
    }
  }

  victim = top;
  set_head(victim, nb | PREV_INUSE);
   11188:	0014e713          	ori	a4,s1,1
   1118c:	00e43423          	sd	a4,8(s0)
/home/nancy/riscv-tools/riscv-gnu-toolchain/build/src/newlib-gcc/newlib/libc/stdlib/mallocr.c:2586
  top = chunk_at_offset(victim, nb);
   11190:	009404b3          	add	s1,s0,s1
   11194:	00993823          	sd	s1,16(s2)
/home/nancy/riscv-tools/riscv-gnu-toolchain/build/src/newlib-gcc/newlib/libc/stdlib/mallocr.c:2587
  set_head(top, remainder_size | PREV_INUSE);
   11198:	0017e793          	ori	a5,a5,1
/home/nancy/riscv-tools/riscv-gnu-toolchain/build/src/newlib-gcc/newlib/libc/stdlib/mallocr.c:2589
  check_malloced_chunk(victim, nb);
  MALLOC_UNLOCK;
   1119c:	00098513          	mv	a0,s3
/home/nancy/riscv-tools/riscv-gnu-toolchain/build/src/newlib-gcc/newlib/libc/stdlib/mallocr.c:2587
  }

  victim = top;
  set_head(victim, nb | PREV_INUSE);
  top = chunk_at_offset(victim, nb);
  set_head(top, remainder_size | PREV_INUSE);
   111a0:	00f4b423          	sd	a5,8(s1)
/home/nancy/riscv-tools/riscv-gnu-toolchain/build/src/newlib-gcc/newlib/libc/stdlib/mallocr.c:2589
  check_malloced_chunk(victim, nb);
  MALLOC_UNLOCK;
   111a4:	2dc000ef          	jal	11480 <__malloc_unlock>
/home/nancy/riscv-tools/riscv-gnu-toolchain/build/src/newlib-gcc/newlib/libc/stdlib/mallocr.c:2590
  return chunk2mem(victim);
   111a8:	01040513          	addi	a0,s0,16
   111ac:	dd5ff06f          	j	10f80 <_malloc_r+0x274>
/home/nancy/riscv-tools/riscv-gnu-toolchain/build/src/newlib-gcc/newlib/libc/stdlib/mallocr.c:2393 (discriminator 5)
    idx += 2; /* Set for bin scan below. We've already scanned 2 bins. */

  }
  else
  {
    idx = bin_index(nb);
   111b0:	01400713          	li	a4,20
   111b4:	0ef77a63          	bleu	a5,a4,112a8 <_malloc_r+0x59c>
/home/nancy/riscv-tools/riscv-gnu-toolchain/build/src/newlib-gcc/newlib/libc/stdlib/mallocr.c:2393 (discriminator 8)
   111b8:	05400713          	li	a4,84
   111bc:	18f76063          	bltu	a4,a5,1133c <_malloc_r+0x630>
/home/nancy/riscv-tools/riscv-gnu-toolchain/build/src/newlib-gcc/newlib/libc/stdlib/mallocr.c:2393 (discriminator 10)
   111c0:	00c4d593          	srli	a1,s1,0xc
   111c4:	0005859b          	sext.w	a1,a1
   111c8:	06f5851b          	addiw	a0,a1,111
   111cc:	0015169b          	slliw	a3,a0,0x1
   111d0:	06e5859b          	addiw	a1,a1,110
   111d4:	badff06f          	j	10d80 <_malloc_r+0x74>
/home/nancy/riscv-tools/riscv-gnu-toolchain/build/src/newlib-gcc/newlib/libc/stdlib/mallocr.c:2452 (discriminator 2)
      return chunk2mem(victim);
    }

    /* Else place in bin */

    frontlink(victim, victim_size, remainder_index, bck, fwd);
   111d8:	0097d713          	srli	a4,a5,0x9
   111dc:	00400613          	li	a2,4
   111e0:	0ce67e63          	bleu	a4,a2,112bc <_malloc_r+0x5b0>
/home/nancy/riscv-tools/riscv-gnu-toolchain/build/src/newlib-gcc/newlib/libc/stdlib/mallocr.c:2452 (discriminator 7)
   111e4:	01400613          	li	a2,20
   111e8:	1ce66663          	bltu	a2,a4,113b4 <_malloc_r+0x6a8>
/home/nancy/riscv-tools/riscv-gnu-toolchain/build/src/newlib-gcc/newlib/libc/stdlib/mallocr.c:2452 (discriminator 9)
   111ec:	0007071b          	sext.w	a4,a4
   111f0:	05c7059b          	addiw	a1,a4,92
   111f4:	05b7061b          	addiw	a2,a4,91
   111f8:	0015959b          	slliw	a1,a1,0x1
/home/nancy/riscv-tools/riscv-gnu-toolchain/build/src/newlib-gcc/newlib/libc/stdlib/mallocr.c:2452 (discriminator 26)
   111fc:	00359593          	slli	a1,a1,0x3
   11200:	00b905b3          	add	a1,s2,a1
   11204:	0005b703          	ld	a4,0(a1)
   11208:	ff058593          	addi	a1,a1,-16
   1120c:	14e58863          	beq	a1,a4,1135c <_malloc_r+0x650>
/home/nancy/riscv-tools/riscv-gnu-toolchain/build/src/newlib-gcc/newlib/libc/stdlib/mallocr.c:2452 (discriminator 30)
   11210:	00873603          	ld	a2,8(a4)
   11214:	ffc67613          	andi	a2,a2,-4
   11218:	00c7f663          	bleu	a2,a5,11224 <_malloc_r+0x518>
/home/nancy/riscv-tools/riscv-gnu-toolchain/build/src/newlib-gcc/newlib/libc/stdlib/mallocr.c:2452 (discriminator 32)
   1121c:	01073703          	ld	a4,16(a4)
   11220:	fee598e3          	bne	a1,a4,11210 <_malloc_r+0x504>
/home/nancy/riscv-tools/riscv-gnu-toolchain/build/src/newlib-gcc/newlib/libc/stdlib/mallocr.c:2452 (discriminator 33)
   11224:	01873583          	ld	a1,24(a4)
   11228:	00893783          	ld	a5,8(s2)
/home/nancy/riscv-tools/riscv-gnu-toolchain/build/src/newlib-gcc/newlib/libc/stdlib/mallocr.c:2452 (discriminator 34)
   1122c:	00b43c23          	sd	a1,24(s0)
   11230:	00e43823          	sd	a4,16(s0)
   11234:	0085b823          	sd	s0,16(a1)
   11238:	00873c23          	sd	s0,24(a4)
   1123c:	c11ff06f          	j	10e4c <_malloc_r+0x140>
/home/nancy/riscv-tools/riscv-gnu-toolchain/build/src/newlib-gcc/newlib/libc/stdlib/mallocr.c:2431
    remainder_size = long_sub_size_t(victim_size, nb);

    if (remainder_size >= (long)MINSIZE) /* re-split */
    {
      remainder = chunk_at_offset(victim, nb);
      set_head(victim, nb | PREV_INUSE);
   11240:	0014e793          	ori	a5,s1,1
   11244:	00f43423          	sd	a5,8(s0)
   11248:	ca1ff06f          	j	10ee8 <_malloc_r+0x1dc>
   1124c:	00893783          	ld	a5,8(s2)
   11250:	bfdff06f          	j	10e4c <_malloc_r+0x140>
/home/nancy/riscv-tools/riscv-gnu-toolchain/build/src/newlib-gcc/newlib/libc/stdlib/mallocr.c:2526
         {
           bin = next_bin(bin);
           ++idx;
         }
#endif
      } while ((++idx & (BINBLOCKWIDTH - 1)) != 0);
   11254:	0013031b          	addiw	t1,t1,1
   11258:	00337793          	andi	a5,t1,3
/home/nancy/riscv-tools/riscv-gnu-toolchain/build/src/newlib-gcc/newlib/libc/stdlib/mallocr.c:2517
            return chunk2mem(victim);
          }

        }

       bin = next_bin(bin);
   1125c:	01058593          	addi	a1,a1,16
/home/nancy/riscv-tools/riscv-gnu-toolchain/build/src/newlib-gcc/newlib/libc/stdlib/mallocr.c:2526
         {
           bin = next_bin(bin);
           ++idx;
         }
#endif
      } while ((++idx & (BINBLOCKWIDTH - 1)) != 0);
   11260:	c40794e3          	bnez	a5,10ea8 <_malloc_r+0x19c>
   11264:	0900006f          	j	112f4 <_malloc_r+0x5e8>
/home/nancy/riscv-tools/riscv-gnu-toolchain/build/src/newlib-gcc/newlib/libc/stdlib/mallocr.c:2375
#if MALLOC_ALIGN != 16
    /* Also scan the next one, since it would have a remainder < MINSIZE */
    if (victim == q)
    {
      q = next_bin(q);
      victim = last(q);
   11268:	0187b403          	ld	s0,24(a5)
/home/nancy/riscv-tools/riscv-gnu-toolchain/build/src/newlib-gcc/newlib/libc/stdlib/mallocr.c:2388
      check_malloced_chunk(victim, nb);
      MALLOC_UNLOCK;
      return chunk2mem(victim);
    }

    idx += 2; /* Set for bin scan below. We've already scanned 2 bins. */
   1126c:	0026869b          	addiw	a3,a3,2
/home/nancy/riscv-tools/riscv-gnu-toolchain/build/src/newlib-gcc/newlib/libc/stdlib/mallocr.c:2378
    {
      q = next_bin(q);
      victim = last(q);
    }
#endif
    if (victim != q)
   11270:	b68780e3          	beq	a5,s0,10dd0 <_malloc_r+0xc4>
   11274:	cd9ff06f          	j	10f4c <_malloc_r+0x240>
/home/nancy/riscv-tools/riscv-gnu-toolchain/build/src/newlib-gcc/newlib/libc/stdlib/mallocr.c:2508
            return chunk2mem(victim);
          }

          else if (remainder_size >= 0)  /* take */
          {
            set_inuse_bit_at_offset(victim, victim_size);
   11278:	00f407b3          	add	a5,s0,a5
   1127c:	0087b703          	ld	a4,8(a5)
/home/nancy/riscv-tools/riscv-gnu-toolchain/build/src/newlib-gcc/newlib/libc/stdlib/mallocr.c:2509
            unlink(victim, bck, fwd);
   11280:	01843683          	ld	a3,24(s0)
   11284:	01043603          	ld	a2,16(s0)
/home/nancy/riscv-tools/riscv-gnu-toolchain/build/src/newlib-gcc/newlib/libc/stdlib/mallocr.c:2508
            return chunk2mem(victim);
          }

          else if (remainder_size >= 0)  /* take */
          {
            set_inuse_bit_at_offset(victim, victim_size);
   11288:	00176713          	ori	a4,a4,1
   1128c:	00e7b423          	sd	a4,8(a5)
/home/nancy/riscv-tools/riscv-gnu-toolchain/build/src/newlib-gcc/newlib/libc/stdlib/mallocr.c:2509
            unlink(victim, bck, fwd);
   11290:	00d63c23          	sd	a3,24(a2)
/home/nancy/riscv-tools/riscv-gnu-toolchain/build/src/newlib-gcc/newlib/libc/stdlib/mallocr.c:2511
            check_malloced_chunk(victim, nb);
	    MALLOC_UNLOCK;
   11294:	00098513          	mv	a0,s3
/home/nancy/riscv-tools/riscv-gnu-toolchain/build/src/newlib-gcc/newlib/libc/stdlib/mallocr.c:2509
          }

          else if (remainder_size >= 0)  /* take */
          {
            set_inuse_bit_at_offset(victim, victim_size);
            unlink(victim, bck, fwd);
   11298:	00c6b823          	sd	a2,16(a3)
/home/nancy/riscv-tools/riscv-gnu-toolchain/build/src/newlib-gcc/newlib/libc/stdlib/mallocr.c:2511
            check_malloced_chunk(victim, nb);
	    MALLOC_UNLOCK;
   1129c:	1e4000ef          	jal	11480 <__malloc_unlock>
/home/nancy/riscv-tools/riscv-gnu-toolchain/build/src/newlib-gcc/newlib/libc/stdlib/mallocr.c:2512
            return chunk2mem(victim);
   112a0:	01040513          	addi	a0,s0,16
   112a4:	cddff06f          	j	10f80 <_malloc_r+0x274>
/home/nancy/riscv-tools/riscv-gnu-toolchain/build/src/newlib-gcc/newlib/libc/stdlib/mallocr.c:2393 (discriminator 7)
    idx += 2; /* Set for bin scan below. We've already scanned 2 bins. */

  }
  else
  {
    idx = bin_index(nb);
   112a8:	0007879b          	sext.w	a5,a5
   112ac:	05c7851b          	addiw	a0,a5,92
   112b0:	05b7859b          	addiw	a1,a5,91
   112b4:	0015169b          	slliw	a3,a0,0x1
   112b8:	ac9ff06f          	j	10d80 <_malloc_r+0x74>
/home/nancy/riscv-tools/riscv-gnu-toolchain/build/src/newlib-gcc/newlib/libc/stdlib/mallocr.c:2452 (discriminator 6)
      return chunk2mem(victim);
    }

    /* Else place in bin */

    frontlink(victim, victim_size, remainder_index, bck, fwd);
   112bc:	0067d713          	srli	a4,a5,0x6
   112c0:	0007071b          	sext.w	a4,a4
   112c4:	0397059b          	addiw	a1,a4,57
   112c8:	0387061b          	addiw	a2,a4,56
   112cc:	0015959b          	slliw	a1,a1,0x1
   112d0:	f2dff06f          	j	111fc <_malloc_r+0x4f0>
malloc_extend_top():
/home/nancy/riscv-tools/riscv-gnu-toolchain/build/src/newlib-gcc/newlib/libc/stdlib/mallocr.c:2169

  brk = (char*)(MORECORE (sbrk_size));

  /* Fail if sbrk failed or if a foreign sbrk call killed our space */
  if (brk == (char*)(MORECORE_FAILURE) || 
      (brk < old_end && old_top != initial_top))
   112d4:	db2404e3          	beq	s0,s2,1107c <_malloc_r+0x370>
   112d8:	01093403          	ld	s0,16(s2)
   112dc:	00843703          	ld	a4,8(s0)
   112e0:	ffc77713          	andi	a4,a4,-4
   112e4:	e85ff06f          	j	11168 <_malloc_r+0x45c>
_malloc_r():
/home/nancy/riscv-tools/riscv-gnu-toolchain/build/src/newlib-gcc/newlib/libc/stdlib/mallocr.c:2539
          binblocks &= ~block;
          break;
        }
        --startidx;
       q = prev_bin(q);
      } while (first(q) == q);
   112e8:	0108b783          	ld	a5,16(a7)
/home/nancy/riscv-tools/riscv-gnu-toolchain/build/src/newlib-gcc/newlib/libc/stdlib/mallocr.c:2537
        if ((startidx & (BINBLOCKWIDTH - 1)) == 0)
        {
          binblocks &= ~block;
          break;
        }
        --startidx;
   112ec:	fff6869b          	addiw	a3,a3,-1
/home/nancy/riscv-tools/riscv-gnu-toolchain/build/src/newlib-gcc/newlib/libc/stdlib/mallocr.c:2539
       q = prev_bin(q);
      } while (first(q) == q);
   112f0:	16f89863          	bne	a7,a5,11460 <_malloc_r+0x754>
/home/nancy/riscv-tools/riscv-gnu-toolchain/build/src/newlib-gcc/newlib/libc/stdlib/mallocr.c:2532

      /* Clear out the block bit. */

      do   /* Possibly backtrack to try to clear a partial block */
      {
        if ((startidx & (BINBLOCKWIDTH - 1)) == 0)
   112f4:	0036f793          	andi	a5,a3,3
/home/nancy/riscv-tools/riscv-gnu-toolchain/build/src/newlib-gcc/newlib/libc/stdlib/mallocr.c:2538
        {
          binblocks &= ~block;
          break;
        }
        --startidx;
       q = prev_bin(q);
   112f8:	ff088893          	addi	a7,a7,-16
/home/nancy/riscv-tools/riscv-gnu-toolchain/build/src/newlib-gcc/newlib/libc/stdlib/mallocr.c:2532

      /* Clear out the block bit. */

      do   /* Possibly backtrack to try to clear a partial block */
      {
        if ((startidx & (BINBLOCKWIDTH - 1)) == 0)
   112fc:	fe0796e3          	bnez	a5,112e8 <_malloc_r+0x5dc>
/home/nancy/riscv-tools/riscv-gnu-toolchain/build/src/newlib-gcc/newlib/libc/stdlib/mallocr.c:2534
        {
          binblocks &= ~block;
   11300:	00893783          	ld	a5,8(s2)
   11304:	fff64713          	not	a4,a2
   11308:	00f777b3          	and	a5,a4,a5
   1130c:	00f93423          	sd	a5,8(s2)
/home/nancy/riscv-tools/riscv-gnu-toolchain/build/src/newlib-gcc/newlib/libc/stdlib/mallocr.c:2543
       q = prev_bin(q);
      } while (first(q) == q);

      /* Get to the next possibly nonempty block */

      if ( (block <<= 1) <= binblocks && (block != 0) ) 
   11310:	00161613          	slli	a2,a2,0x1
   11314:	d0c7e2e3          	bltu	a5,a2,11018 <_malloc_r+0x30c>
/home/nancy/riscv-tools/riscv-gnu-toolchain/build/src/newlib-gcc/newlib/libc/stdlib/mallocr.c:2543 (discriminator 1)
   11318:	d00600e3          	beqz	a2,11018 <_malloc_r+0x30c>
/home/nancy/riscv-tools/riscv-gnu-toolchain/build/src/newlib-gcc/newlib/libc/stdlib/mallocr.c:2545
      {
        while ((block & binblocks) == 0)
   1131c:	00f67733          	and	a4,a2,a5
   11320:	00030693          	mv	a3,t1
   11324:	b60714e3          	bnez	a4,10e8c <_malloc_r+0x180>
/home/nancy/riscv-tools/riscv-gnu-toolchain/build/src/newlib-gcc/newlib/libc/stdlib/mallocr.c:2548
        {
          idx += BINBLOCKWIDTH;
          block <<= 1;
   11328:	00161613          	slli	a2,a2,0x1
/home/nancy/riscv-tools/riscv-gnu-toolchain/build/src/newlib-gcc/newlib/libc/stdlib/mallocr.c:2545

      /* Get to the next possibly nonempty block */

      if ( (block <<= 1) <= binblocks && (block != 0) ) 
      {
        while ((block & binblocks) == 0)
   1132c:	00f67733          	and	a4,a2,a5
/home/nancy/riscv-tools/riscv-gnu-toolchain/build/src/newlib-gcc/newlib/libc/stdlib/mallocr.c:2547
        {
          idx += BINBLOCKWIDTH;
   11330:	0046869b          	addiw	a3,a3,4
/home/nancy/riscv-tools/riscv-gnu-toolchain/build/src/newlib-gcc/newlib/libc/stdlib/mallocr.c:2545

      /* Get to the next possibly nonempty block */

      if ( (block <<= 1) <= binblocks && (block != 0) ) 
      {
        while ((block & binblocks) == 0)
   11334:	fe070ae3          	beqz	a4,11328 <_malloc_r+0x61c>
   11338:	b55ff06f          	j	10e8c <_malloc_r+0x180>
/home/nancy/riscv-tools/riscv-gnu-toolchain/build/src/newlib-gcc/newlib/libc/stdlib/mallocr.c:2393 (discriminator 11)
    idx += 2; /* Set for bin scan below. We've already scanned 2 bins. */

  }
  else
  {
    idx = bin_index(nb);
   1133c:	15400713          	li	a4,340
   11340:	04f76463          	bltu	a4,a5,11388 <_malloc_r+0x67c>
/home/nancy/riscv-tools/riscv-gnu-toolchain/build/src/newlib-gcc/newlib/libc/stdlib/mallocr.c:2393 (discriminator 13)
   11344:	00f4d593          	srli	a1,s1,0xf
   11348:	0005859b          	sext.w	a1,a1
   1134c:	0785851b          	addiw	a0,a1,120
   11350:	0015169b          	slliw	a3,a0,0x1
   11354:	0775859b          	addiw	a1,a1,119
   11358:	a29ff06f          	j	10d80 <_malloc_r+0x74>
/home/nancy/riscv-tools/riscv-gnu-toolchain/build/src/newlib-gcc/newlib/libc/stdlib/mallocr.c:2452 (discriminator 27)
      return chunk2mem(victim);
    }

    /* Else place in bin */

    frontlink(victim, victim_size, remainder_index, bck, fwd);
   1135c:	00893783          	ld	a5,8(s2)
   11360:	4026571b          	sraiw	a4,a2,0x2
   11364:	00100613          	li	a2,1
   11368:	00e61733          	sll	a4,a2,a4
   1136c:	00f767b3          	or	a5,a4,a5
   11370:	00f93423          	sd	a5,8(s2)
   11374:	00058713          	mv	a4,a1
   11378:	eb5ff06f          	j	1122c <_malloc_r+0x520>
malloc_extend_top():
/home/nancy/riscv-tools/riscv-gnu-toolchain/build/src/newlib-gcc/newlib/libc/stdlib/mallocr.c:2225
      /* A double fencepost is necessary to prevent consolidation */

      /* If not enough space to do this, then user did something very wrong */
      if (old_top_size < MINSIZE) 
      {
        set_head(top, PREV_INUSE); /* will force null return from malloc */
   1137c:	00100793          	li	a5,1
   11380:	00fab423          	sd	a5,8(s5)
   11384:	df5ff06f          	j	11178 <_malloc_r+0x46c>
_malloc_r():
/home/nancy/riscv-tools/riscv-gnu-toolchain/build/src/newlib-gcc/newlib/libc/stdlib/mallocr.c:2393 (discriminator 14)
    idx += 2; /* Set for bin scan below. We've already scanned 2 bins. */

  }
  else
  {
    idx = bin_index(nb);
   11388:	55400713          	li	a4,1364
   1138c:	0fe00693          	li	a3,254
   11390:	07f00513          	li	a0,127
   11394:	07e00593          	li	a1,126
   11398:	9ef764e3          	bltu	a4,a5,10d80 <_malloc_r+0x74>
/home/nancy/riscv-tools/riscv-gnu-toolchain/build/src/newlib-gcc/newlib/libc/stdlib/mallocr.c:2393 (discriminator 16)
   1139c:	0124d593          	srli	a1,s1,0x12
   113a0:	0005859b          	sext.w	a1,a1
   113a4:	07d5851b          	addiw	a0,a1,125
   113a8:	0015169b          	slliw	a3,a0,0x1
   113ac:	07c5859b          	addiw	a1,a1,124
   113b0:	9d1ff06f          	j	10d80 <_malloc_r+0x74>
/home/nancy/riscv-tools/riscv-gnu-toolchain/build/src/newlib-gcc/newlib/libc/stdlib/mallocr.c:2452 (discriminator 10)
      return chunk2mem(victim);
    }

    /* Else place in bin */

    frontlink(victim, victim_size, remainder_index, bck, fwd);
   113b4:	05400613          	li	a2,84
   113b8:	06e66063          	bltu	a2,a4,11418 <_malloc_r+0x70c>
/home/nancy/riscv-tools/riscv-gnu-toolchain/build/src/newlib-gcc/newlib/libc/stdlib/mallocr.c:2452 (discriminator 12)
   113bc:	00c7d713          	srli	a4,a5,0xc
   113c0:	0007071b          	sext.w	a4,a4
   113c4:	06f7059b          	addiw	a1,a4,111
   113c8:	06e7061b          	addiw	a2,a4,110
   113cc:	0015959b          	slliw	a1,a1,0x1
   113d0:	e2dff06f          	j	111fc <_malloc_r+0x4f0>
malloc_extend_top():
/home/nancy/riscv-tools/riscv-gnu-toolchain/build/src/newlib-gcc/newlib/libc/stdlib/mallocr.c:2176

  sbrked_mem += sbrk_size;

  if (brk == old_end /* can just add bytes to current top, unless
			previous correction failed */
      && ((POINTER_UINT)old_end & (pagesz - 1)) == 0)
   113d4:	034a1713          	slli	a4,s4,0x34
   113d8:	ca071ce3          	bnez	a4,11090 <_malloc_r+0x384>
/home/nancy/riscv-tools/riscv-gnu-toolchain/build/src/newlib-gcc/newlib/libc/stdlib/mallocr.c:2179
  {
    top_size = sbrk_size + old_top_size;
    set_head(top, top_size | PREV_INUSE);
   113dc:	01093683          	ld	a3,16(s2)
   113e0:	016b8733          	add	a4,s7,s6
   113e4:	00176713          	ori	a4,a4,1
   113e8:	00e6b423          	sd	a4,8(a3)
   113ec:	d59ff06f          	j	11144 <_malloc_r+0x438>
/home/nancy/riscv-tools/riscv-gnu-toolchain/build/src/newlib-gcc/newlib/libc/stdlib/mallocr.c:2203
    /* Guarantee the next brk will be at a page boundary */
    correction += pagesz - ((POINTER_UINT)(brk + sbrk_size) & (pagesz - 1));

    /* Allocate correction */
    new_brk = (char*)(MORECORE (correction));
    if (new_brk == (char*)(MORECORE_FAILURE))
   113f0:	00100713          	li	a4,1
   113f4:	00000a13          	li	s4,0
   113f8:	d01ff06f          	j	110f8 <_malloc_r+0x3ec>
/home/nancy/riscv-tools/riscv-gnu-toolchain/build/src/newlib-gcc/newlib/libc/stdlib/mallocr.c:2184
    set_head(top, top_size | PREV_INUSE);
  }
  else
  {
    if (sbrk_base == (char*)(-1))  /* First time through. Record base */
      sbrk_base = brk;
   113fc:	8151bc23          	sd	s5,-2024(gp) # 24458 <__malloc_sbrk_base>
   11400:	ca9ff06f          	j	110a8 <_malloc_r+0x39c>
/home/nancy/riscv-tools/riscv-gnu-toolchain/build/src/newlib-gcc/newlib/libc/stdlib/mallocr.c:2238
        SIZE_SZ|PREV_INUSE;
      chunk_at_offset(old_top, old_top_size + SIZE_SZ)->size =
        SIZE_SZ|PREV_INUSE;
      /* If possible, release the rest. */
      if (old_top_size >= MINSIZE) 
        fREe(RCALL chunk2mem(old_top));
   11404:	01040593          	addi	a1,s0,16
   11408:	00098513          	mv	a0,s3
   1140c:	728050ef          	jal	16b34 <_free_r>
   11410:	000c2783          	lw	a5,0(s8)
   11414:	d31ff06f          	j	11144 <_malloc_r+0x438>
_malloc_r():
/home/nancy/riscv-tools/riscv-gnu-toolchain/build/src/newlib-gcc/newlib/libc/stdlib/mallocr.c:2452 (discriminator 13)
      return chunk2mem(victim);
    }

    /* Else place in bin */

    frontlink(victim, victim_size, remainder_index, bck, fwd);
   11418:	15400613          	li	a2,340
   1141c:	00e66e63          	bltu	a2,a4,11438 <_malloc_r+0x72c>
/home/nancy/riscv-tools/riscv-gnu-toolchain/build/src/newlib-gcc/newlib/libc/stdlib/mallocr.c:2452 (discriminator 15)
   11420:	00f7d713          	srli	a4,a5,0xf
   11424:	0007071b          	sext.w	a4,a4
   11428:	0787059b          	addiw	a1,a4,120
   1142c:	0777061b          	addiw	a2,a4,119
   11430:	0015959b          	slliw	a1,a1,0x1
   11434:	dc9ff06f          	j	111fc <_malloc_r+0x4f0>
/home/nancy/riscv-tools/riscv-gnu-toolchain/build/src/newlib-gcc/newlib/libc/stdlib/mallocr.c:2452 (discriminator 16)
   11438:	55400513          	li	a0,1364
   1143c:	0fe00593          	li	a1,254
   11440:	07e00613          	li	a2,126
   11444:	dae56ce3          	bltu	a0,a4,111fc <_malloc_r+0x4f0>
/home/nancy/riscv-tools/riscv-gnu-toolchain/build/src/newlib-gcc/newlib/libc/stdlib/mallocr.c:2452 (discriminator 18)
   11448:	0127d713          	srli	a4,a5,0x12
   1144c:	0007071b          	sext.w	a4,a4
   11450:	07d7059b          	addiw	a1,a4,125
   11454:	07c7061b          	addiw	a2,a4,124
   11458:	0015959b          	slliw	a1,a1,0x1
   1145c:	da1ff06f          	j	111fc <_malloc_r+0x4f0>
   11460:	00893783          	ld	a5,8(s2)
   11464:	eadff06f          	j	11310 <_malloc_r+0x604>
   11468:	0034d693          	srli	a3,s1,0x3
   1146c:	0006869b          	sext.w	a3,a3
   11470:	0016879b          	addiw	a5,a3,1
   11474:	0017979b          	slliw	a5,a5,0x1
   11478:	ab9ff06f          	j	10f30 <_malloc_r+0x224>

000000000001147c <__malloc_lock>:
__malloc_lock():
   1147c:	00008067          	ret

0000000000011480 <__malloc_unlock>:
__malloc_unlock():
/home/nancy/riscv-tools/riscv-gnu-toolchain/build/src/newlib-gcc/newlib/libc/stdlib/mlock.c:58
}

void
__malloc_unlock (ptr)
     struct _reent *ptr;
{
   11480:	00008067          	ret

0000000000011484 <_printf_r>:
_printf_r():
/home/nancy/riscv-tools/riscv-gnu-toolchain/build/src/newlib-gcc/newlib/libc/stdio/printf.c:29

int
_DEFUN(_printf_r, (ptr, fmt),
       struct _reent *ptr _AND
       const char *__restrict fmt _DOTS)
{
   11484:	fb010113          	addi	sp,sp,-80
   11488:	02c13023          	sd	a2,32(sp)
   1148c:	02d13423          	sd	a3,40(sp)
   11490:	02f13c23          	sd	a5,56(sp)
   11494:	02e13823          	sd	a4,48(sp)
   11498:	05013023          	sd	a6,64(sp)
   1149c:	05113423          	sd	a7,72(sp)
/home/nancy/riscv-tools/riscv-gnu-toolchain/build/src/newlib-gcc/newlib/libc/stdio/printf.c:35
  int ret;
  va_list ap;

  _REENT_SMALL_CHECK_INIT (ptr);
  va_start (ap, fmt);
  ret = _vfprintf_r (ptr, _stdout_r (ptr), fmt, ap);
   114a0:	00058613          	mv	a2,a1
   114a4:	01053583          	ld	a1,16(a0)
/home/nancy/riscv-tools/riscv-gnu-toolchain/build/src/newlib-gcc/newlib/libc/stdio/printf.c:34
{
  int ret;
  va_list ap;

  _REENT_SMALL_CHECK_INIT (ptr);
  va_start (ap, fmt);
   114a8:	02010793          	addi	a5,sp,32
/home/nancy/riscv-tools/riscv-gnu-toolchain/build/src/newlib-gcc/newlib/libc/stdio/printf.c:35
  ret = _vfprintf_r (ptr, _stdout_r (ptr), fmt, ap);
   114ac:	00078693          	mv	a3,a5
/home/nancy/riscv-tools/riscv-gnu-toolchain/build/src/newlib-gcc/newlib/libc/stdio/printf.c:29

int
_DEFUN(_printf_r, (ptr, fmt),
       struct _reent *ptr _AND
       const char *__restrict fmt _DOTS)
{
   114b0:	00113c23          	sd	ra,24(sp)
/home/nancy/riscv-tools/riscv-gnu-toolchain/build/src/newlib-gcc/newlib/libc/stdio/printf.c:34
  int ret;
  va_list ap;

  _REENT_SMALL_CHECK_INIT (ptr);
  va_start (ap, fmt);
   114b4:	00f13423          	sd	a5,8(sp)
/home/nancy/riscv-tools/riscv-gnu-toolchain/build/src/newlib-gcc/newlib/libc/stdio/printf.c:35
  ret = _vfprintf_r (ptr, _stdout_r (ptr), fmt, ap);
   114b8:	528000ef          	jal	119e0 <_vfprintf_r>
/home/nancy/riscv-tools/riscv-gnu-toolchain/build/src/newlib-gcc/newlib/libc/stdio/printf.c:38
  va_end (ap);
  return ret;
}
   114bc:	01813083          	ld	ra,24(sp)
   114c0:	05010113          	addi	sp,sp,80
   114c4:	00008067          	ret

00000000000114c8 <printf>:
printf():
/home/nancy/riscv-tools/riscv-gnu-toolchain/build/src/newlib-gcc/newlib/libc/stdio/printf.c:54
_DEFUN(printf, (fmt),
       const char *__restrict fmt _DOTS)
{
  int ret;
  va_list ap;
  struct _reent *ptr = _REENT;
   114c8:	8101b303          	ld	t1,-2032(gp) # 24450 <_impure_ptr>
/home/nancy/riscv-tools/riscv-gnu-toolchain/build/src/newlib-gcc/newlib/libc/stdio/printf.c:51
#ifndef _REENT_ONLY

int
_DEFUN(printf, (fmt),
       const char *__restrict fmt _DOTS)
{
   114cc:	fa010113          	addi	sp,sp,-96
   114d0:	02c13823          	sd	a2,48(sp)
   114d4:	02d13c23          	sd	a3,56(sp)
   114d8:	04f13423          	sd	a5,72(sp)
   114dc:	02b13423          	sd	a1,40(sp)
   114e0:	04e13023          	sd	a4,64(sp)
   114e4:	05013823          	sd	a6,80(sp)
   114e8:	05113c23          	sd	a7,88(sp)
/home/nancy/riscv-tools/riscv-gnu-toolchain/build/src/newlib-gcc/newlib/libc/stdio/printf.c:58
  va_list ap;
  struct _reent *ptr = _REENT;

  _REENT_SMALL_CHECK_INIT (ptr);
  va_start (ap, fmt);
  ret = _vfprintf_r (ptr, _stdout_r (ptr), fmt, ap);
   114ec:	01033583          	ld	a1,16(t1)
/home/nancy/riscv-tools/riscv-gnu-toolchain/build/src/newlib-gcc/newlib/libc/stdio/printf.c:57
  int ret;
  va_list ap;
  struct _reent *ptr = _REENT;

  _REENT_SMALL_CHECK_INIT (ptr);
  va_start (ap, fmt);
   114f0:	02810793          	addi	a5,sp,40
/home/nancy/riscv-tools/riscv-gnu-toolchain/build/src/newlib-gcc/newlib/libc/stdio/printf.c:58
  ret = _vfprintf_r (ptr, _stdout_r (ptr), fmt, ap);
   114f4:	00050613          	mv	a2,a0
   114f8:	00078693          	mv	a3,a5
   114fc:	00030513          	mv	a0,t1
/home/nancy/riscv-tools/riscv-gnu-toolchain/build/src/newlib-gcc/newlib/libc/stdio/printf.c:51
#ifndef _REENT_ONLY

int
_DEFUN(printf, (fmt),
       const char *__restrict fmt _DOTS)
{
   11500:	00113c23          	sd	ra,24(sp)
/home/nancy/riscv-tools/riscv-gnu-toolchain/build/src/newlib-gcc/newlib/libc/stdio/printf.c:57
  int ret;
  va_list ap;
  struct _reent *ptr = _REENT;

  _REENT_SMALL_CHECK_INIT (ptr);
  va_start (ap, fmt);
   11504:	00f13423          	sd	a5,8(sp)
/home/nancy/riscv-tools/riscv-gnu-toolchain/build/src/newlib-gcc/newlib/libc/stdio/printf.c:58
  ret = _vfprintf_r (ptr, _stdout_r (ptr), fmt, ap);
   11508:	4d8000ef          	jal	119e0 <_vfprintf_r>
/home/nancy/riscv-tools/riscv-gnu-toolchain/build/src/newlib-gcc/newlib/libc/stdio/printf.c:61
  va_end (ap);
  return ret;
}
   1150c:	01813083          	ld	ra,24(sp)
   11510:	06010113          	addi	sp,sp,96
   11514:	00008067          	ret

0000000000011518 <_putchar_r>:
_putchar_r():
/home/nancy/riscv-tools/riscv-gnu-toolchain/build/src/newlib-gcc/newlib/libc/stdio/putchar.c:84
_DEFUN(_putchar_r, (ptr, c),
       struct _reent *ptr _AND
       int c)
{
  _REENT_SMALL_CHECK_INIT (ptr);
  return _putc_r (ptr, c, _stdout_r (ptr));
   11518:	01053603          	ld	a2,16(a0)
   1151c:	0180006f          	j	11534 <_putc_r>

0000000000011520 <putchar>:
putchar():
/home/nancy/riscv-tools/riscv-gnu-toolchain/build/src/newlib-gcc/newlib/libc/stdio/putchar.c:93

int
_DEFUN(putchar, (c),
       int c)
{
  struct _reent *reent = _REENT;
   11520:	8101b783          	ld	a5,-2032(gp) # 24450 <_impure_ptr>
/home/nancy/riscv-tools/riscv-gnu-toolchain/build/src/newlib-gcc/newlib/libc/stdio/putchar.c:96

  _REENT_SMALL_CHECK_INIT (reent);
  return _putc_r (reent, c, _stdout_r (reent));
   11524:	00050593          	mv	a1,a0
   11528:	0107b603          	ld	a2,16(a5)
   1152c:	00078513          	mv	a0,a5
   11530:	0040006f          	j	11534 <_putc_r>

0000000000011534 <_putc_r>:
_putc_r():
/home/nancy/riscv-tools/riscv-gnu-toolchain/build/src/newlib-gcc/newlib/libc/stdio/putc.c:97
int
_DEFUN(_putc_r, (ptr, c, fp),
       struct _reent *ptr _AND
       int c _AND
       register FILE *fp)
{
   11534:	fe010113          	addi	sp,sp,-32
   11538:	00813823          	sd	s0,16(sp)
   1153c:	00113c23          	sd	ra,24(sp)
   11540:	00050413          	mv	s0,a0
/home/nancy/riscv-tools/riscv-gnu-toolchain/build/src/newlib-gcc/newlib/libc/stdio/putc.c:99
  int result;
  CHECK_INIT (ptr, fp);
   11544:	00050663          	beqz	a0,11550 <_putc_r+0x1c>
/home/nancy/riscv-tools/riscv-gnu-toolchain/build/src/newlib-gcc/newlib/libc/stdio/putc.c:99 (discriminator 1)
   11548:	05052783          	lw	a5,80(a0)
   1154c:	06078863          	beqz	a5,115bc <_putc_r+0x88>
/home/nancy/riscv-tools/riscv-gnu-toolchain/build/src/newlib-gcc/newlib/libc/stdio/putc.c:101
  _newlib_flockfile_start (fp);
  result = __sputc_r (ptr, c, fp);
   11550:	00c62783          	lw	a5,12(a2)
   11554:	fff7879b          	addiw	a5,a5,-1
   11558:	00f62623          	sw	a5,12(a2)
   1155c:	0207c663          	bltz	a5,11588 <_putc_r+0x54>
/home/nancy/riscv-tools/riscv-gnu-toolchain/build/src/newlib-gcc/newlib/libc/stdio/putc.c:101 (discriminator 2)
   11560:	00063783          	ld	a5,0(a2)
   11564:	00b78023          	sb	a1,0(a5)
   11568:	00063783          	ld	a5,0(a2)
/home/nancy/riscv-tools/riscv-gnu-toolchain/build/src/newlib-gcc/newlib/libc/stdio/putc.c:104
  _newlib_flockfile_end (fp);
  return result;
}
   1156c:	01813083          	ld	ra,24(sp)
/home/nancy/riscv-tools/riscv-gnu-toolchain/build/src/newlib-gcc/newlib/libc/stdio/putc.c:101
       register FILE *fp)
{
  int result;
  CHECK_INIT (ptr, fp);
  _newlib_flockfile_start (fp);
  result = __sputc_r (ptr, c, fp);
   11570:	00178713          	addi	a4,a5,1
   11574:	00e63023          	sd	a4,0(a2)
   11578:	0007c503          	lbu	a0,0(a5)
/home/nancy/riscv-tools/riscv-gnu-toolchain/build/src/newlib-gcc/newlib/libc/stdio/putc.c:104
  _newlib_flockfile_end (fp);
  return result;
}
   1157c:	01013403          	ld	s0,16(sp)
   11580:	02010113          	addi	sp,sp,32
   11584:	00008067          	ret
/home/nancy/riscv-tools/riscv-gnu-toolchain/build/src/newlib-gcc/newlib/libc/stdio/putc.c:101 (discriminator 1)
       register FILE *fp)
{
  int result;
  CHECK_INIT (ptr, fp);
  _newlib_flockfile_start (fp);
  result = __sputc_r (ptr, c, fp);
   11588:	02862703          	lw	a4,40(a2)
   1158c:	00e7ce63          	blt	a5,a4,115a8 <_putc_r+0x74>
/home/nancy/riscv-tools/riscv-gnu-toolchain/build/src/newlib-gcc/newlib/libc/stdio/putc.c:101 (discriminator 3)
   11590:	00063783          	ld	a5,0(a2)
   11594:	00a00713          	li	a4,10
   11598:	00b78023          	sb	a1,0(a5)
   1159c:	00063783          	ld	a5,0(a2)
   115a0:	0007c583          	lbu	a1,0(a5)
   115a4:	fce594e3          	bne	a1,a4,1156c <_putc_r+0x38>
/home/nancy/riscv-tools/riscv-gnu-toolchain/build/src/newlib-gcc/newlib/libc/stdio/putc.c:101 (discriminator 4)
   115a8:	00040513          	mv	a0,s0
/home/nancy/riscv-tools/riscv-gnu-toolchain/build/src/newlib-gcc/newlib/libc/stdio/putc.c:104
  _newlib_flockfile_end (fp);
  return result;
}
   115ac:	01813083          	ld	ra,24(sp)
   115b0:	01013403          	ld	s0,16(sp)
   115b4:	02010113          	addi	sp,sp,32
/home/nancy/riscv-tools/riscv-gnu-toolchain/build/src/newlib-gcc/newlib/libc/stdio/putc.c:101
       register FILE *fp)
{
  int result;
  CHECK_INIT (ptr, fp);
  _newlib_flockfile_start (fp);
  result = __sputc_r (ptr, c, fp);
   115b8:	32c0306f          	j	148e4 <__swbuf_r>
   115bc:	00c13423          	sd	a2,8(sp)
   115c0:	00b13023          	sd	a1,0(sp)
/home/nancy/riscv-tools/riscv-gnu-toolchain/build/src/newlib-gcc/newlib/libc/stdio/putc.c:99 (discriminator 2)
       struct _reent *ptr _AND
       int c _AND
       register FILE *fp)
{
  int result;
  CHECK_INIT (ptr, fp);
   115c4:	1ac050ef          	jal	16770 <__sinit>
   115c8:	00813603          	ld	a2,8(sp)
   115cc:	00013583          	ld	a1,0(sp)
   115d0:	f81ff06f          	j	11550 <_putc_r+0x1c>

00000000000115d4 <putc>:
putc():
/home/nancy/riscv-tools/riscv-gnu-toolchain/build/src/newlib-gcc/newlib/libc/stdio/putc.c:111
#ifndef _REENT_ONLY
int
_DEFUN(putc, (c, fp),
       int c _AND
       register FILE *fp)
{
   115d4:	fd010113          	addi	sp,sp,-48
   115d8:	02813023          	sd	s0,32(sp)
/home/nancy/riscv-tools/riscv-gnu-toolchain/build/src/newlib-gcc/newlib/libc/stdio/putc.c:114
#if !defined(PREFER_SIZE_OVER_SPEED) && !defined(__OPTIMIZE_SIZE__)
  int result;
  struct _reent *reent = _REENT;
   115dc:	8101b403          	ld	s0,-2032(gp) # 24450 <_impure_ptr>
/home/nancy/riscv-tools/riscv-gnu-toolchain/build/src/newlib-gcc/newlib/libc/stdio/putc.c:111
#ifndef _REENT_ONLY
int
_DEFUN(putc, (c, fp),
       int c _AND
       register FILE *fp)
{
   115e0:	00913c23          	sd	s1,24(sp)
   115e4:	02113423          	sd	ra,40(sp)
   115e8:	00050493          	mv	s1,a0
/home/nancy/riscv-tools/riscv-gnu-toolchain/build/src/newlib-gcc/newlib/libc/stdio/putc.c:116
#if !defined(PREFER_SIZE_OVER_SPEED) && !defined(__OPTIMIZE_SIZE__)
  int result;
  struct _reent *reent = _REENT;

  CHECK_INIT (reent, fp);
   115ec:	00040663          	beqz	s0,115f8 <putc+0x24>
/home/nancy/riscv-tools/riscv-gnu-toolchain/build/src/newlib-gcc/newlib/libc/stdio/putc.c:116 (discriminator 1)
   115f0:	05042783          	lw	a5,80(s0)
   115f4:	06078663          	beqz	a5,11660 <putc+0x8c>
/home/nancy/riscv-tools/riscv-gnu-toolchain/build/src/newlib-gcc/newlib/libc/stdio/putc.c:118
  _newlib_flockfile_start (fp);
  result = __sputc_r (reent, c, fp);
   115f8:	00c5a783          	lw	a5,12(a1)
   115fc:	fff7879b          	addiw	a5,a5,-1
   11600:	00f5a623          	sw	a5,12(a1)
   11604:	0207c863          	bltz	a5,11634 <putc+0x60>
/home/nancy/riscv-tools/riscv-gnu-toolchain/build/src/newlib-gcc/newlib/libc/stdio/putc.c:118 (discriminator 2)
   11608:	0005b783          	ld	a5,0(a1)
   1160c:	00978023          	sb	s1,0(a5)
   11610:	0005b783          	ld	a5,0(a1)
/home/nancy/riscv-tools/riscv-gnu-toolchain/build/src/newlib-gcc/newlib/libc/stdio/putc.c:124
  _newlib_flockfile_end (fp);
  return result;
#else
  return _putc_r (_REENT, c, fp);
#endif
}
   11614:	02813083          	ld	ra,40(sp)
/home/nancy/riscv-tools/riscv-gnu-toolchain/build/src/newlib-gcc/newlib/libc/stdio/putc.c:118
  int result;
  struct _reent *reent = _REENT;

  CHECK_INIT (reent, fp);
  _newlib_flockfile_start (fp);
  result = __sputc_r (reent, c, fp);
   11618:	00178713          	addi	a4,a5,1
   1161c:	00e5b023          	sd	a4,0(a1)
   11620:	0007c503          	lbu	a0,0(a5)
/home/nancy/riscv-tools/riscv-gnu-toolchain/build/src/newlib-gcc/newlib/libc/stdio/putc.c:124
  _newlib_flockfile_end (fp);
  return result;
#else
  return _putc_r (_REENT, c, fp);
#endif
}
   11624:	02013403          	ld	s0,32(sp)
   11628:	01813483          	ld	s1,24(sp)
   1162c:	03010113          	addi	sp,sp,48
   11630:	00008067          	ret
/home/nancy/riscv-tools/riscv-gnu-toolchain/build/src/newlib-gcc/newlib/libc/stdio/putc.c:118 (discriminator 1)
  int result;
  struct _reent *reent = _REENT;

  CHECK_INIT (reent, fp);
  _newlib_flockfile_start (fp);
  result = __sputc_r (reent, c, fp);
   11634:	0285a703          	lw	a4,40(a1)
   11638:	02e7ce63          	blt	a5,a4,11674 <putc+0xa0>
/home/nancy/riscv-tools/riscv-gnu-toolchain/build/src/newlib-gcc/newlib/libc/stdio/putc.c:118 (discriminator 3)
   1163c:	0005b783          	ld	a5,0(a1)
   11640:	00a00693          	li	a3,10
   11644:	00978023          	sb	s1,0(a5)
   11648:	0005b783          	ld	a5,0(a1)
   1164c:	0007c703          	lbu	a4,0(a5)
   11650:	fcd712e3          	bne	a4,a3,11614 <putc+0x40>
/home/nancy/riscv-tools/riscv-gnu-toolchain/build/src/newlib-gcc/newlib/libc/stdio/putc.c:118 (discriminator 6)
   11654:	00058613          	mv	a2,a1
   11658:	00070593          	mv	a1,a4
   1165c:	0200006f          	j	1167c <putc+0xa8>
/home/nancy/riscv-tools/riscv-gnu-toolchain/build/src/newlib-gcc/newlib/libc/stdio/putc.c:116 (discriminator 2)
{
#if !defined(PREFER_SIZE_OVER_SPEED) && !defined(__OPTIMIZE_SIZE__)
  int result;
  struct _reent *reent = _REENT;

  CHECK_INIT (reent, fp);
   11660:	00040513          	mv	a0,s0
   11664:	00b13423          	sd	a1,8(sp)
   11668:	108050ef          	jal	16770 <__sinit>
   1166c:	00813583          	ld	a1,8(sp)
   11670:	f89ff06f          	j	115f8 <putc+0x24>
/home/nancy/riscv-tools/riscv-gnu-toolchain/build/src/newlib-gcc/newlib/libc/stdio/putc.c:118 (discriminator 4)
  _newlib_flockfile_start (fp);
  result = __sputc_r (reent, c, fp);
   11674:	00058613          	mv	a2,a1
   11678:	00048593          	mv	a1,s1
   1167c:	00040513          	mv	a0,s0
/home/nancy/riscv-tools/riscv-gnu-toolchain/build/src/newlib-gcc/newlib/libc/stdio/putc.c:124
  _newlib_flockfile_end (fp);
  return result;
#else
  return _putc_r (_REENT, c, fp);
#endif
}
   11680:	02813083          	ld	ra,40(sp)
   11684:	02013403          	ld	s0,32(sp)
   11688:	01813483          	ld	s1,24(sp)
   1168c:	03010113          	addi	sp,sp,48
/home/nancy/riscv-tools/riscv-gnu-toolchain/build/src/newlib-gcc/newlib/libc/stdio/putc.c:118
  int result;
  struct _reent *reent = _REENT;

  CHECK_INIT (reent, fp);
  _newlib_flockfile_start (fp);
  result = __sputc_r (reent, c, fp);
   11690:	2540306f          	j	148e4 <__swbuf_r>

0000000000011694 <_puts_r>:
_puts_r():
/home/nancy/riscv-tools/riscv-gnu-toolchain/build/src/newlib-gcc/newlib/libc/stdio/puts.c:80

int
_DEFUN(_puts_r, (ptr, s),
       struct _reent *ptr _AND
       _CONST char * s)
{
   11694:	fa010113          	addi	sp,sp,-96
   11698:	04813823          	sd	s0,80(sp)
   1169c:	00050413          	mv	s0,a0
/home/nancy/riscv-tools/riscv-gnu-toolchain/build/src/newlib-gcc/newlib/libc/stdio/puts.c:83
#ifdef _FVWRITE_IN_STREAMIO
  int result;
  size_t c = strlen (s);
   116a0:	00058513          	mv	a0,a1
/home/nancy/riscv-tools/riscv-gnu-toolchain/build/src/newlib-gcc/newlib/libc/stdio/puts.c:80

int
_DEFUN(_puts_r, (ptr, s),
       struct _reent *ptr _AND
       _CONST char * s)
{
   116a4:	04913423          	sd	s1,72(sp)
   116a8:	04113c23          	sd	ra,88(sp)
   116ac:	00058493          	mv	s1,a1
/home/nancy/riscv-tools/riscv-gnu-toolchain/build/src/newlib-gcc/newlib/libc/stdio/puts.c:83
#ifdef _FVWRITE_IN_STREAMIO
  int result;
  size_t c = strlen (s);
   116b0:	260000ef          	jal	11910 <strlen>
/home/nancy/riscv-tools/riscv-gnu-toolchain/build/src/newlib-gcc/newlib/libc/stdio/puts.c:97
  uio.uio_resid = c + 1;
  uio.uio_iov = &iov[0];
  uio.uio_iovcnt = 2;

  _REENT_SMALL_CHECK_INIT (ptr);
  fp = _stdout_r (ptr);
   116b4:	01043583          	ld	a1,16(s0)
/home/nancy/riscv-tools/riscv-gnu-toolchain/build/src/newlib-gcc/newlib/libc/stdio/puts.c:90
  struct __siov iov[2];
  FILE *fp;

  iov[0].iov_base = s;
  iov[0].iov_len = c;
  iov[1].iov_base = "\n";
   116b8:	00022737          	lui	a4,0x22
   116bc:	b9070713          	addi	a4,a4,-1136 # 21b90 <zeroes.4123+0x6a0>
/home/nancy/riscv-tools/riscv-gnu-toolchain/build/src/newlib-gcc/newlib/libc/stdio/puts.c:99
  uio.uio_iovcnt = 2;

  _REENT_SMALL_CHECK_INIT (ptr);
  fp = _stdout_r (ptr);
  _newlib_flockfile_start (fp);
  ORIENT (fp, -1);
   116c0:	01059683          	lh	a3,16(a1)
/home/nancy/riscv-tools/riscv-gnu-toolchain/build/src/newlib-gcc/newlib/libc/stdio/puts.c:90
  struct __siov iov[2];
  FILE *fp;

  iov[0].iov_base = s;
  iov[0].iov_len = c;
  iov[1].iov_base = "\n";
   116c4:	02e13823          	sd	a4,48(sp)
/home/nancy/riscv-tools/riscv-gnu-toolchain/build/src/newlib-gcc/newlib/libc/stdio/puts.c:91
  iov[1].iov_len = 1;
   116c8:	00100713          	li	a4,1
   116cc:	02e13c23          	sd	a4,56(sp)
/home/nancy/riscv-tools/riscv-gnu-toolchain/build/src/newlib-gcc/newlib/libc/stdio/puts.c:93
  uio.uio_resid = c + 1;
  uio.uio_iov = &iov[0];
   116d0:	02010713          	addi	a4,sp,32
/home/nancy/riscv-tools/riscv-gnu-toolchain/build/src/newlib-gcc/newlib/libc/stdio/puts.c:92

  iov[0].iov_base = s;
  iov[0].iov_len = c;
  iov[1].iov_base = "\n";
  iov[1].iov_len = 1;
  uio.uio_resid = c + 1;
   116d4:	00150613          	addi	a2,a0,1
/home/nancy/riscv-tools/riscv-gnu-toolchain/build/src/newlib-gcc/newlib/libc/stdio/puts.c:93
  uio.uio_iov = &iov[0];
   116d8:	00e13423          	sd	a4,8(sp)
/home/nancy/riscv-tools/riscv-gnu-toolchain/build/src/newlib-gcc/newlib/libc/stdio/puts.c:94
  uio.uio_iovcnt = 2;
   116dc:	00200713          	li	a4,2
/home/nancy/riscv-tools/riscv-gnu-toolchain/build/src/newlib-gcc/newlib/libc/stdio/puts.c:88
  size_t c = strlen (s);
  struct __suio uio;
  struct __siov iov[2];
  FILE *fp;

  iov[0].iov_base = s;
   116e0:	02913023          	sd	s1,32(sp)
/home/nancy/riscv-tools/riscv-gnu-toolchain/build/src/newlib-gcc/newlib/libc/stdio/puts.c:89
  iov[0].iov_len = c;
   116e4:	02a13423          	sd	a0,40(sp)
/home/nancy/riscv-tools/riscv-gnu-toolchain/build/src/newlib-gcc/newlib/libc/stdio/puts.c:92
  iov[1].iov_base = "\n";
  iov[1].iov_len = 1;
  uio.uio_resid = c + 1;
   116e8:	00c13c23          	sd	a2,24(sp)
/home/nancy/riscv-tools/riscv-gnu-toolchain/build/src/newlib-gcc/newlib/libc/stdio/puts.c:94
  uio.uio_iov = &iov[0];
  uio.uio_iovcnt = 2;
   116ec:	00e12823          	sw	a4,16(sp)
/home/nancy/riscv-tools/riscv-gnu-toolchain/build/src/newlib-gcc/newlib/libc/stdio/puts.c:99

  _REENT_SMALL_CHECK_INIT (ptr);
  fp = _stdout_r (ptr);
  _newlib_flockfile_start (fp);
  ORIENT (fp, -1);
   116f0:	03269793          	slli	a5,a3,0x32
   116f4:	0207c263          	bltz	a5,11718 <_puts_r+0x84>
/home/nancy/riscv-tools/riscv-gnu-toolchain/build/src/newlib-gcc/newlib/libc/stdio/puts.c:98 (discriminator 1)
  uio.uio_iov = &iov[0];
  uio.uio_iovcnt = 2;

  _REENT_SMALL_CHECK_INIT (ptr);
  fp = _stdout_r (ptr);
  _newlib_flockfile_start (fp);
   116f8:	0ac5a783          	lw	a5,172(a1)
/home/nancy/riscv-tools/riscv-gnu-toolchain/build/src/newlib-gcc/newlib/libc/stdio/puts.c:99
  ORIENT (fp, -1);
   116fc:	ffffe737          	lui	a4,0xffffe
   11700:	00002637          	lui	a2,0x2
   11704:	fff7071b          	addiw	a4,a4,-1
   11708:	00c6e6b3          	or	a3,a3,a2
   1170c:	00e7f733          	and	a4,a5,a4
   11710:	00d59823          	sh	a3,16(a1)
   11714:	0ae5a623          	sw	a4,172(a1)
/home/nancy/riscv-tools/riscv-gnu-toolchain/build/src/newlib-gcc/newlib/libc/stdio/puts.c:100
  result = (__sfvwrite_r (ptr, fp, &uio) ? EOF : '\n');
   11718:	00810613          	addi	a2,sp,8
   1171c:	00040513          	mv	a0,s0
   11720:	724050ef          	jal	16e44 <__sfvwrite_r>
/home/nancy/riscv-tools/riscv-gnu-toolchain/build/src/newlib-gcc/newlib/libc/stdio/puts.c:130

err:
  _newlib_flockfile_end (fp);
  return result;
#endif
}
   11724:	05813083          	ld	ra,88(sp)
/home/nancy/riscv-tools/riscv-gnu-toolchain/build/src/newlib-gcc/newlib/libc/stdio/puts.c:100

  _REENT_SMALL_CHECK_INIT (ptr);
  fp = _stdout_r (ptr);
  _newlib_flockfile_start (fp);
  ORIENT (fp, -1);
  result = (__sfvwrite_r (ptr, fp, &uio) ? EOF : '\n');
   11728:	00a03533          	snez	a0,a0
   1172c:	40a0053b          	negw	a0,a0
/home/nancy/riscv-tools/riscv-gnu-toolchain/build/src/newlib-gcc/newlib/libc/stdio/puts.c:130

err:
  _newlib_flockfile_end (fp);
  return result;
#endif
}
   11730:	00a56513          	ori	a0,a0,10
   11734:	05013403          	ld	s0,80(sp)
   11738:	04813483          	ld	s1,72(sp)
   1173c:	06010113          	addi	sp,sp,96
   11740:	00008067          	ret

0000000000011744 <puts>:
puts():
/home/nancy/riscv-tools/riscv-gnu-toolchain/build/src/newlib-gcc/newlib/libc/stdio/puts.c:138

int
_DEFUN(puts, (s),
       char _CONST * s)
{
  return _puts_r (_REENT, s);
   11744:	00050593          	mv	a1,a0
   11748:	8101b503          	ld	a0,-2032(gp) # 24450 <_impure_ptr>
   1174c:	f49ff06f          	j	11694 <_puts_r>

0000000000011750 <scanf>:
scanf():
/home/nancy/riscv-tools/riscv-gnu-toolchain/build/src/newlib-gcc/newlib/libc/stdio/scanf.c:41
      va_dcl
#endif
{
  int ret;
  va_list ap;
  struct _reent *reent = _REENT;
   11750:	8101b303          	ld	t1,-2032(gp) # 24450 <_impure_ptr>
/home/nancy/riscv-tools/riscv-gnu-toolchain/build/src/newlib-gcc/newlib/libc/stdio/scanf.c:38
#else
scanf(fmt, va_alist)
      char *fmt;
      va_dcl
#endif
{
   11754:	fa010113          	addi	sp,sp,-96
   11758:	02c13823          	sd	a2,48(sp)
   1175c:	02d13c23          	sd	a3,56(sp)
   11760:	04f13423          	sd	a5,72(sp)
   11764:	02b13423          	sd	a1,40(sp)
   11768:	04e13023          	sd	a4,64(sp)
   1176c:	05013823          	sd	a6,80(sp)
   11770:	05113c23          	sd	a7,88(sp)
/home/nancy/riscv-tools/riscv-gnu-toolchain/build/src/newlib-gcc/newlib/libc/stdio/scanf.c:49
#ifdef _HAVE_STDC
  va_start (ap, fmt);
#else
  va_start (ap);
#endif
  ret = _vfscanf_r (reent, _stdin_r (reent), fmt, ap);
   11774:	00833583          	ld	a1,8(t1)
/home/nancy/riscv-tools/riscv-gnu-toolchain/build/src/newlib-gcc/newlib/libc/stdio/scanf.c:45
  va_list ap;
  struct _reent *reent = _REENT;

  _REENT_SMALL_CHECK_INIT (reent);
#ifdef _HAVE_STDC
  va_start (ap, fmt);
   11778:	02810793          	addi	a5,sp,40
/home/nancy/riscv-tools/riscv-gnu-toolchain/build/src/newlib-gcc/newlib/libc/stdio/scanf.c:49
#else
  va_start (ap);
#endif
  ret = _vfscanf_r (reent, _stdin_r (reent), fmt, ap);
   1177c:	00050613          	mv	a2,a0
   11780:	00078693          	mv	a3,a5
   11784:	00030513          	mv	a0,t1
/home/nancy/riscv-tools/riscv-gnu-toolchain/build/src/newlib-gcc/newlib/libc/stdio/scanf.c:38
#else
scanf(fmt, va_alist)
      char *fmt;
      va_dcl
#endif
{
   11788:	00113c23          	sd	ra,24(sp)
/home/nancy/riscv-tools/riscv-gnu-toolchain/build/src/newlib-gcc/newlib/libc/stdio/scanf.c:45
  va_list ap;
  struct _reent *reent = _REENT;

  _REENT_SMALL_CHECK_INIT (reent);
#ifdef _HAVE_STDC
  va_start (ap, fmt);
   1178c:	00f13423          	sd	a5,8(sp)
/home/nancy/riscv-tools/riscv-gnu-toolchain/build/src/newlib-gcc/newlib/libc/stdio/scanf.c:49
#else
  va_start (ap);
#endif
  ret = _vfscanf_r (reent, _stdin_r (reent), fmt, ap);
   11790:	108030ef          	jal	14898 <_vfscanf_r>
/home/nancy/riscv-tools/riscv-gnu-toolchain/build/src/newlib-gcc/newlib/libc/stdio/scanf.c:52
  va_end (ap);
  return ret;
}
   11794:	01813083          	ld	ra,24(sp)
   11798:	06010113          	addi	sp,sp,96
   1179c:	00008067          	ret

00000000000117a0 <_scanf_r>:
_scanf_r():
/home/nancy/riscv-tools/riscv-gnu-toolchain/build/src/newlib-gcc/newlib/libc/stdio/scanf.c:71
_scanf_r(ptr, fmt, va_alist)
         struct _reent *ptr;
         char *fmt;
         va_dcl
#endif
{
   117a0:	fb010113          	addi	sp,sp,-80
   117a4:	02c13023          	sd	a2,32(sp)
   117a8:	02d13423          	sd	a3,40(sp)
   117ac:	02f13c23          	sd	a5,56(sp)
   117b0:	02e13823          	sd	a4,48(sp)
   117b4:	05013023          	sd	a6,64(sp)
   117b8:	05113423          	sd	a7,72(sp)
/home/nancy/riscv-tools/riscv-gnu-toolchain/build/src/newlib-gcc/newlib/libc/stdio/scanf.c:81
#ifdef _HAVE_STDC
  va_start (ap, fmt);
#else
  va_start (ap);
#endif
  ret = _vfscanf_r (ptr, _stdin_r (ptr), fmt, ap);
   117bc:	00058613          	mv	a2,a1
   117c0:	00853583          	ld	a1,8(a0)
/home/nancy/riscv-tools/riscv-gnu-toolchain/build/src/newlib-gcc/newlib/libc/stdio/scanf.c:77
  int ret;
  va_list ap;

  _REENT_SMALL_CHECK_INIT (ptr);
#ifdef _HAVE_STDC
  va_start (ap, fmt);
   117c4:	02010793          	addi	a5,sp,32
/home/nancy/riscv-tools/riscv-gnu-toolchain/build/src/newlib-gcc/newlib/libc/stdio/scanf.c:81
#else
  va_start (ap);
#endif
  ret = _vfscanf_r (ptr, _stdin_r (ptr), fmt, ap);
   117c8:	00078693          	mv	a3,a5
/home/nancy/riscv-tools/riscv-gnu-toolchain/build/src/newlib-gcc/newlib/libc/stdio/scanf.c:71
_scanf_r(ptr, fmt, va_alist)
         struct _reent *ptr;
         char *fmt;
         va_dcl
#endif
{
   117cc:	00113c23          	sd	ra,24(sp)
/home/nancy/riscv-tools/riscv-gnu-toolchain/build/src/newlib-gcc/newlib/libc/stdio/scanf.c:77
  int ret;
  va_list ap;

  _REENT_SMALL_CHECK_INIT (ptr);
#ifdef _HAVE_STDC
  va_start (ap, fmt);
   117d0:	00f13423          	sd	a5,8(sp)
/home/nancy/riscv-tools/riscv-gnu-toolchain/build/src/newlib-gcc/newlib/libc/stdio/scanf.c:81
#else
  va_start (ap);
#endif
  ret = _vfscanf_r (ptr, _stdin_r (ptr), fmt, ap);
   117d4:	0c4030ef          	jal	14898 <_vfscanf_r>
/home/nancy/riscv-tools/riscv-gnu-toolchain/build/src/newlib-gcc/newlib/libc/stdio/scanf.c:84
  va_end (ap);
  return (ret);
}
   117d8:	01813083          	ld	ra,24(sp)
   117dc:	05010113          	addi	sp,sp,80
   117e0:	00008067          	ret

00000000000117e4 <strcmp>:
strcmp():
   117e4:	00b56733          	or	a4,a0,a1
   117e8:	fff00393          	li	t2,-1
   117ec:	00777713          	andi	a4,a4,7
   117f0:	0c071c63          	bnez	a4,118c8 <strcmp+0xe4>
   117f4:	00013e17          	auipc	t3,0x13
   117f8:	ca4e3e03          	ld	t3,-860(t3) # 24498 <mask>
   117fc:	00053603          	ld	a2,0(a0)
   11800:	0005b683          	ld	a3,0(a1)
   11804:	01c672b3          	and	t0,a2,t3
   11808:	01c66333          	or	t1,a2,t3
   1180c:	01c282b3          	add	t0,t0,t3
   11810:	0062e2b3          	or	t0,t0,t1
   11814:	0c729e63          	bne	t0,t2,118f0 <strcmp+0x10c>
   11818:	04d61663          	bne	a2,a3,11864 <strcmp+0x80>
   1181c:	00853603          	ld	a2,8(a0)
   11820:	0085b683          	ld	a3,8(a1)
   11824:	01c672b3          	and	t0,a2,t3
   11828:	01c66333          	or	t1,a2,t3
   1182c:	01c282b3          	add	t0,t0,t3
   11830:	0062e2b3          	or	t0,t0,t1
   11834:	0a729a63          	bne	t0,t2,118e8 <strcmp+0x104>
   11838:	02d61663          	bne	a2,a3,11864 <strcmp+0x80>
   1183c:	01053603          	ld	a2,16(a0)
   11840:	0105b683          	ld	a3,16(a1)
   11844:	01c672b3          	and	t0,a2,t3
   11848:	01c66333          	or	t1,a2,t3
   1184c:	01c282b3          	add	t0,t0,t3
   11850:	0062e2b3          	or	t0,t0,t1
   11854:	0a729463          	bne	t0,t2,118fc <strcmp+0x118>
   11858:	01850513          	addi	a0,a0,24
   1185c:	01858593          	addi	a1,a1,24
   11860:	f8d60ee3          	beq	a2,a3,117fc <strcmp+0x18>
   11864:	03061713          	slli	a4,a2,0x30
   11868:	03069793          	slli	a5,a3,0x30
   1186c:	02f71a63          	bne	a4,a5,118a0 <strcmp+0xbc>
   11870:	02061713          	slli	a4,a2,0x20
   11874:	02069793          	slli	a5,a3,0x20
   11878:	02f71463          	bne	a4,a5,118a0 <strcmp+0xbc>
   1187c:	01061713          	slli	a4,a2,0x10
   11880:	01069793          	slli	a5,a3,0x10
   11884:	00f71e63          	bne	a4,a5,118a0 <strcmp+0xbc>
   11888:	03065713          	srli	a4,a2,0x30
   1188c:	0306d793          	srli	a5,a3,0x30
   11890:	40f70533          	sub	a0,a4,a5
   11894:	0ff57593          	andi	a1,a0,255
   11898:	02059063          	bnez	a1,118b8 <strcmp+0xd4>
   1189c:	00008067          	ret
   118a0:	03075713          	srli	a4,a4,0x30
   118a4:	0307d793          	srli	a5,a5,0x30
   118a8:	40f70533          	sub	a0,a4,a5
   118ac:	0ff57593          	andi	a1,a0,255
   118b0:	00059463          	bnez	a1,118b8 <strcmp+0xd4>
   118b4:	00008067          	ret
   118b8:	0ff77713          	andi	a4,a4,255
   118bc:	0ff7f793          	andi	a5,a5,255
   118c0:	40f70533          	sub	a0,a4,a5
   118c4:	00008067          	ret
   118c8:	00054603          	lbu	a2,0(a0)
   118cc:	0005c683          	lbu	a3,0(a1)
   118d0:	00150513          	addi	a0,a0,1
   118d4:	00158593          	addi	a1,a1,1
   118d8:	00d61463          	bne	a2,a3,118e0 <strcmp+0xfc>
   118dc:	fe0616e3          	bnez	a2,118c8 <strcmp+0xe4>
   118e0:	40d60533          	sub	a0,a2,a3
   118e4:	00008067          	ret
   118e8:	00850513          	addi	a0,a0,8
   118ec:	00858593          	addi	a1,a1,8
   118f0:	fcd61ce3          	bne	a2,a3,118c8 <strcmp+0xe4>
   118f4:	00000513          	li	a0,0
   118f8:	00008067          	ret
   118fc:	01050513          	addi	a0,a0,16
   11900:	01058593          	addi	a1,a1,16
   11904:	fcd612e3          	bne	a2,a3,118c8 <strcmp+0xe4>
   11908:	00000513          	li	a0,0
   1190c:	00008067          	ret

0000000000011910 <strlen>:
strlen():
/home/nancy/riscv-tools/riscv-gnu-toolchain/build/src/newlib-gcc/newlib/libc/machine/riscv/strlen.c:13
#if defined(PREFER_SIZE_OVER_SPEED) || defined(__OPTIMIZE_SIZE__)
  while (*str++)
    ;
  return str - start - 1;
#else
  if (__builtin_expect((uintptr_t)str & (sizeof(long)-1), 0)) do
   11910:	00757793          	andi	a5,a0,7
   11914:	00050593          	mv	a1,a0
   11918:	06079a63          	bnez	a5,1198c <strlen+0x7c>
   1191c:	000247b7          	lui	a5,0x24
/home/nancy/riscv-tools/riscv-gnu-toolchain/build/src/newlib-gcc/newlib/libc/machine/riscv/strlen.c:22 (discriminator 1)
    if (!ch)
      return str - start - 1;
  } while ((uintptr_t)str & (sizeof(long)-1));

  unsigned long* ls = (unsigned long*)str;
  while (!__libc_detect_null(*ls++))
   11920:	4987b683          	ld	a3,1176(a5) # 24498 <mask>
   11924:	fff00613          	li	a2,-1
   11928:	00850513          	addi	a0,a0,8
   1192c:	ff853783          	ld	a5,-8(a0)
   11930:	00d7f733          	and	a4,a5,a3
   11934:	00d70733          	add	a4,a4,a3
   11938:	00d7e7b3          	or	a5,a5,a3
   1193c:	00f767b3          	or	a5,a4,a5
   11940:	fec784e3          	beq	a5,a2,11928 <strlen+0x18>
/home/nancy/riscv-tools/riscv-gnu-toolchain/build/src/newlib-gcc/newlib/libc/machine/riscv/strlen.c:30

  str = (const char*)ls;
  size_t ret = str - start, sl = sizeof(long);

  char c0 = str[0-sl], c1 = str[1-sl], c2 = str[2-sl], c3 = str[3-sl];
  if (c0 == 0)            return ret + 0 - sl;
   11944:	ff854783          	lbu	a5,-8(a0)
/home/nancy/riscv-tools/riscv-gnu-toolchain/build/src/newlib-gcc/newlib/libc/machine/riscv/strlen.c:27
  while (!__libc_detect_null(*ls++))
    ;
  asm volatile ("" : "+r"(ls)); /* prevent "optimization" */

  str = (const char*)ls;
  size_t ret = str - start, sl = sizeof(long);
   11948:	40b505b3          	sub	a1,a0,a1
/home/nancy/riscv-tools/riscv-gnu-toolchain/build/src/newlib-gcc/newlib/libc/machine/riscv/strlen.c:30

  char c0 = str[0-sl], c1 = str[1-sl], c2 = str[2-sl], c3 = str[3-sl];
  if (c0 == 0)            return ret + 0 - sl;
   1194c:	06078263          	beqz	a5,119b0 <strlen+0xa0>
/home/nancy/riscv-tools/riscv-gnu-toolchain/build/src/newlib-gcc/newlib/libc/machine/riscv/strlen.c:31
  if (c1 == 0)            return ret + 1 - sl;
   11950:	ff954783          	lbu	a5,-7(a0)
   11954:	04078a63          	beqz	a5,119a8 <strlen+0x98>
/home/nancy/riscv-tools/riscv-gnu-toolchain/build/src/newlib-gcc/newlib/libc/machine/riscv/strlen.c:32
  if (c2 == 0)            return ret + 2 - sl;
   11958:	ffa54783          	lbu	a5,-6(a0)
   1195c:	06078263          	beqz	a5,119c0 <strlen+0xb0>
/home/nancy/riscv-tools/riscv-gnu-toolchain/build/src/newlib-gcc/newlib/libc/machine/riscv/strlen.c:33 (discriminator 2)
  if (sl == 4 || c3 == 0) return ret + 3 - sl;
   11960:	ffb54783          	lbu	a5,-5(a0)
   11964:	04078a63          	beqz	a5,119b8 <strlen+0xa8>
/home/nancy/riscv-tools/riscv-gnu-toolchain/build/src/newlib-gcc/newlib/libc/machine/riscv/strlen.c:36

  c0 = str[4-sl], c1 = str[5-sl], c2 = str[6-sl], c3 = str[7-sl];
  if (c0 == 0)            return ret + 4 - sl;
   11968:	ffc54783          	lbu	a5,-4(a0)
/home/nancy/riscv-tools/riscv-gnu-toolchain/build/src/newlib-gcc/newlib/libc/machine/riscv/strlen.c:35
  if (c0 == 0)            return ret + 0 - sl;
  if (c1 == 0)            return ret + 1 - sl;
  if (c2 == 0)            return ret + 2 - sl;
  if (sl == 4 || c3 == 0) return ret + 3 - sl;

  c0 = str[4-sl], c1 = str[5-sl], c2 = str[6-sl], c3 = str[7-sl];
   1196c:	ffd54703          	lbu	a4,-3(a0)
   11970:	ffe54683          	lbu	a3,-2(a0)
/home/nancy/riscv-tools/riscv-gnu-toolchain/build/src/newlib-gcc/newlib/libc/machine/riscv/strlen.c:36
  if (c0 == 0)            return ret + 4 - sl;
   11974:	04078a63          	beqz	a5,119c8 <strlen+0xb8>
/home/nancy/riscv-tools/riscv-gnu-toolchain/build/src/newlib-gcc/newlib/libc/machine/riscv/strlen.c:37
  if (c1 == 0)            return ret + 5 - sl;
   11978:	04070c63          	beqz	a4,119d0 <strlen+0xc0>
/home/nancy/riscv-tools/riscv-gnu-toolchain/build/src/newlib-gcc/newlib/libc/machine/riscv/strlen.c:39
  if (c2 == 0)            return ret + 6 - sl;
                          return ret + 7 - sl;
   1197c:	fff58513          	addi	a0,a1,-1
/home/nancy/riscv-tools/riscv-gnu-toolchain/build/src/newlib-gcc/newlib/libc/machine/riscv/strlen.c:38
  if (sl == 4 || c3 == 0) return ret + 3 - sl;

  c0 = str[4-sl], c1 = str[5-sl], c2 = str[6-sl], c3 = str[7-sl];
  if (c0 == 0)            return ret + 4 - sl;
  if (c1 == 0)            return ret + 5 - sl;
  if (c2 == 0)            return ret + 6 - sl;
   11980:	04068c63          	beqz	a3,119d8 <strlen+0xc8>
/home/nancy/riscv-tools/riscv-gnu-toolchain/build/src/newlib-gcc/newlib/libc/machine/riscv/strlen.c:41
                          return ret + 7 - sl;
#endif /* not PREFER_SIZE_OVER_SPEED */
}
   11984:	00008067          	ret
/home/nancy/riscv-tools/riscv-gnu-toolchain/build/src/newlib-gcc/newlib/libc/machine/riscv/strlen.c:19
  {
    char ch = *str;
    str++;
    if (!ch)
      return str - start - 1;
  } while ((uintptr_t)str & (sizeof(long)-1));
   11988:	f8070ae3          	beqz	a4,1191c <strlen+0xc>
/home/nancy/riscv-tools/riscv-gnu-toolchain/build/src/newlib-gcc/newlib/libc/machine/riscv/strlen.c:15
    ;
  return str - start - 1;
#else
  if (__builtin_expect((uintptr_t)str & (sizeof(long)-1), 0)) do
  {
    char ch = *str;
   1198c:	00054783          	lbu	a5,0(a0)
/home/nancy/riscv-tools/riscv-gnu-toolchain/build/src/newlib-gcc/newlib/libc/machine/riscv/strlen.c:16
    str++;
   11990:	00150513          	addi	a0,a0,1
/home/nancy/riscv-tools/riscv-gnu-toolchain/build/src/newlib-gcc/newlib/libc/machine/riscv/strlen.c:19
    if (!ch)
      return str - start - 1;
  } while ((uintptr_t)str & (sizeof(long)-1));
   11994:	00757713          	andi	a4,a0,7
/home/nancy/riscv-tools/riscv-gnu-toolchain/build/src/newlib-gcc/newlib/libc/machine/riscv/strlen.c:17
#else
  if (__builtin_expect((uintptr_t)str & (sizeof(long)-1), 0)) do
  {
    char ch = *str;
    str++;
    if (!ch)
   11998:	fe0798e3          	bnez	a5,11988 <strlen+0x78>
/home/nancy/riscv-tools/riscv-gnu-toolchain/build/src/newlib-gcc/newlib/libc/machine/riscv/strlen.c:18
      return str - start - 1;
   1199c:	40b50533          	sub	a0,a0,a1
   119a0:	fff50513          	addi	a0,a0,-1
   119a4:	00008067          	ret
/home/nancy/riscv-tools/riscv-gnu-toolchain/build/src/newlib-gcc/newlib/libc/machine/riscv/strlen.c:31 (discriminator 1)
  str = (const char*)ls;
  size_t ret = str - start, sl = sizeof(long);

  char c0 = str[0-sl], c1 = str[1-sl], c2 = str[2-sl], c3 = str[3-sl];
  if (c0 == 0)            return ret + 0 - sl;
  if (c1 == 0)            return ret + 1 - sl;
   119a8:	ff958513          	addi	a0,a1,-7
   119ac:	00008067          	ret
/home/nancy/riscv-tools/riscv-gnu-toolchain/build/src/newlib-gcc/newlib/libc/machine/riscv/strlen.c:30

  str = (const char*)ls;
  size_t ret = str - start, sl = sizeof(long);

  char c0 = str[0-sl], c1 = str[1-sl], c2 = str[2-sl], c3 = str[3-sl];
  if (c0 == 0)            return ret + 0 - sl;
   119b0:	ff858513          	addi	a0,a1,-8
   119b4:	00008067          	ret
/home/nancy/riscv-tools/riscv-gnu-toolchain/build/src/newlib-gcc/newlib/libc/machine/riscv/strlen.c:33 (discriminator 3)
  if (c1 == 0)            return ret + 1 - sl;
  if (c2 == 0)            return ret + 2 - sl;
  if (sl == 4 || c3 == 0) return ret + 3 - sl;
   119b8:	ffb58513          	addi	a0,a1,-5
   119bc:	00008067          	ret
/home/nancy/riscv-tools/riscv-gnu-toolchain/build/src/newlib-gcc/newlib/libc/machine/riscv/strlen.c:32 (discriminator 1)
  size_t ret = str - start, sl = sizeof(long);

  char c0 = str[0-sl], c1 = str[1-sl], c2 = str[2-sl], c3 = str[3-sl];
  if (c0 == 0)            return ret + 0 - sl;
  if (c1 == 0)            return ret + 1 - sl;
  if (c2 == 0)            return ret + 2 - sl;
   119c0:	ffa58513          	addi	a0,a1,-6
   119c4:	00008067          	ret
/home/nancy/riscv-tools/riscv-gnu-toolchain/build/src/newlib-gcc/newlib/libc/machine/riscv/strlen.c:36
  if (sl == 4 || c3 == 0) return ret + 3 - sl;

  c0 = str[4-sl], c1 = str[5-sl], c2 = str[6-sl], c3 = str[7-sl];
  if (c0 == 0)            return ret + 4 - sl;
   119c8:	ffc58513          	addi	a0,a1,-4
   119cc:	00008067          	ret
/home/nancy/riscv-tools/riscv-gnu-toolchain/build/src/newlib-gcc/newlib/libc/machine/riscv/strlen.c:37
  if (c1 == 0)            return ret + 5 - sl;
   119d0:	ffd58513          	addi	a0,a1,-3
   119d4:	00008067          	ret
/home/nancy/riscv-tools/riscv-gnu-toolchain/build/src/newlib-gcc/newlib/libc/machine/riscv/strlen.c:38
  if (c2 == 0)            return ret + 6 - sl;
   119d8:	ffe58513          	addi	a0,a1,-2
/home/nancy/riscv-tools/riscv-gnu-toolchain/build/src/newlib-gcc/newlib/libc/machine/riscv/strlen.c:41
                          return ret + 7 - sl;
#endif /* not PREFER_SIZE_OVER_SPEED */
}
   119dc:	00008067          	ret

00000000000119e0 <_vfprintf_r>:
_vfprintf_r():
/home/nancy/riscv-tools/riscv-gnu-toolchain/build/src/newlib-gcc/newlib/libc/stdio/vfprintf.c:668
_DEFUN(_VFPRINTF_R, (data, fp, fmt0, ap),
       struct _reent *data _AND
       FILE * fp           _AND
       _CONST char *fmt0   _AND
       va_list ap)
{
   119e0:	e1010113          	addi	sp,sp,-496
   119e4:	1e113423          	sd	ra,488(sp)
   119e8:	1d313423          	sd	s3,456(sp)
   119ec:	1d413023          	sd	s4,448(sp)
   119f0:	1b713423          	sd	s7,424(sp)
   119f4:	00058a13          	mv	s4,a1
   119f8:	00060993          	mv	s3,a2
   119fc:	02d13423          	sd	a3,40(sp)
   11a00:	1e813023          	sd	s0,480(sp)
   11a04:	1c913c23          	sd	s1,472(sp)
   11a08:	1d213823          	sd	s2,464(sp)
   11a0c:	1b513c23          	sd	s5,440(sp)
   11a10:	1b613823          	sd	s6,432(sp)
   11a14:	1b813023          	sd	s8,416(sp)
   11a18:	19913c23          	sd	s9,408(sp)
   11a1c:	19a13823          	sd	s10,400(sp)
   11a20:	19b13423          	sd	s11,392(sp)
   11a24:	16813c27          	fsd	fs0,376(sp)
   11a28:	00050b93          	mv	s7,a0
/home/nancy/riscv-tools/riscv-gnu-toolchain/build/src/newlib-gcc/newlib/libc/stdio/vfprintf.c:696
	char *thousands_sep = NULL;
	size_t thsnd_len = 0;
	const char *grouping = NULL;
#endif
#ifdef FLOATING_POINT
	char *decimal_point = _localeconv_r (data)->decimal_point;
   11a2c:	30d050ef          	jal	17538 <_localeconv_r>
   11a30:	00053783          	ld	a5,0(a0)
/home/nancy/riscv-tools/riscv-gnu-toolchain/build/src/newlib-gcc/newlib/libc/stdio/vfprintf.c:697
	size_t decp_len = strlen (decimal_point);
   11a34:	00078513          	mv	a0,a5
/home/nancy/riscv-tools/riscv-gnu-toolchain/build/src/newlib-gcc/newlib/libc/stdio/vfprintf.c:696
	char *thousands_sep = NULL;
	size_t thsnd_len = 0;
	const char *grouping = NULL;
#endif
#ifdef FLOATING_POINT
	char *decimal_point = _localeconv_r (data)->decimal_point;
   11a38:	06f13023          	sd	a5,96(sp)
/home/nancy/riscv-tools/riscv-gnu-toolchain/build/src/newlib-gcc/newlib/libc/stdio/vfprintf.c:697
	size_t decp_len = strlen (decimal_point);
   11a3c:	ed5ff0ef          	jal	11910 <strlen>
   11a40:	06a13423          	sd	a0,104(sp)
/home/nancy/riscv-tools/riscv-gnu-toolchain/build/src/newlib-gcc/newlib/libc/stdio/vfprintf.c:859
	    (u_long)GET_ARG (N, ap, u_int))
#endif

#ifndef STRING_ONLY
	/* Initialize std streams if not dealing with sprintf family.  */
	CHECK_INIT (data, fp);
   11a44:	000b8663          	beqz	s7,11a50 <_vfprintf_r+0x70>
/home/nancy/riscv-tools/riscv-gnu-toolchain/build/src/newlib-gcc/newlib/libc/stdio/vfprintf.c:859 (discriminator 1)
   11a48:	050ba783          	lw	a5,80(s7)
   11a4c:	2e078c63          	beqz	a5,11d44 <_vfprintf_r+0x364>
/home/nancy/riscv-tools/riscv-gnu-toolchain/build/src/newlib-gcc/newlib/libc/stdio/vfprintf.c:862
	_newlib_flockfile_start (fp);

	ORIENT(fp, -1);
   11a50:	010a1683          	lh	a3,16(s4)
   11a54:	03069793          	slli	a5,a3,0x30
   11a58:	0307d793          	srli	a5,a5,0x30
   11a5c:	03279713          	slli	a4,a5,0x32
   11a60:	02074a63          	bltz	a4,11a94 <_vfprintf_r+0xb4>
/home/nancy/riscv-tools/riscv-gnu-toolchain/build/src/newlib-gcc/newlib/libc/stdio/vfprintf.c:862 (discriminator 1)
   11a64:	000027b7          	lui	a5,0x2
/home/nancy/riscv-tools/riscv-gnu-toolchain/build/src/newlib-gcc/newlib/libc/stdio/vfprintf.c:860
#endif

#ifndef STRING_ONLY
	/* Initialize std streams if not dealing with sprintf family.  */
	CHECK_INIT (data, fp);
	_newlib_flockfile_start (fp);
   11a68:	0aca2603          	lw	a2,172(s4)
/home/nancy/riscv-tools/riscv-gnu-toolchain/build/src/newlib-gcc/newlib/libc/stdio/vfprintf.c:862

	ORIENT(fp, -1);
   11a6c:	00f6e7b3          	or	a5,a3,a5
   11a70:	0107979b          	slliw	a5,a5,0x10
   11a74:	ffffe737          	lui	a4,0xffffe
   11a78:	4107d79b          	sraiw	a5,a5,0x10
   11a7c:	fff7071b          	addiw	a4,a4,-1
   11a80:	00e67733          	and	a4,a2,a4
   11a84:	00fa1823          	sh	a5,16(s4)
   11a88:	03079793          	slli	a5,a5,0x30
   11a8c:	0aea2623          	sw	a4,172(s4)
   11a90:	0307d793          	srli	a5,a5,0x30
/home/nancy/riscv-tools/riscv-gnu-toolchain/build/src/newlib-gcc/newlib/libc/stdio/vfprintf.c:865

	/* sorry, fprintf(read_only_file, "") returns EOF, not 0 */
	if (cantwrite (data, fp)) {
   11a94:	0087f713          	andi	a4,a5,8
   11a98:	1e070063          	beqz	a4,11c78 <_vfprintf_r+0x298>
/home/nancy/riscv-tools/riscv-gnu-toolchain/build/src/newlib-gcc/newlib/libc/stdio/vfprintf.c:865 (discriminator 2)
   11a9c:	018a3703          	ld	a4,24(s4)
   11aa0:	1c070c63          	beqz	a4,11c78 <_vfprintf_r+0x298>
/home/nancy/riscv-tools/riscv-gnu-toolchain/build/src/newlib-gcc/newlib/libc/stdio/vfprintf.c:872
		return (EOF);
	}

#ifdef _UNBUF_STREAM_OPT
	/* optimise fprintf(stderr) (and other unbuffered Unix files) */
	if ((fp->_flags & (__SNBF|__SWR|__SRW)) == (__SNBF|__SWR) &&
   11aa4:	01a7f793          	andi	a5,a5,26
   11aa8:	00a00713          	li	a4,10
   11aac:	1ee78863          	beq	a5,a4,11c9c <_vfprintf_r+0x2bc>
/home/nancy/riscv-tools/riscv-gnu-toolchain/build/src/newlib-gcc/newlib/libc/stdio/vfprintf.c:959
		N = arg_index;
		is_pos_arg = 0;
#endif

rflag:		ch = *fmt++;
reswitch:	switch (ch) {
   11ab0:	000207b7          	lui	a5,0x20
   11ab4:	60078793          	addi	a5,a5,1536 # 20600 <sulp+0x68>
/home/nancy/riscv-tools/riscv-gnu-toolchain/build/src/newlib-gcc/newlib/libc/stdio/vfprintf.c:894
        }
#endif /* STRING_ONLY */

	fmt = (char *)fmt0;
#ifdef _FVWRITE_IN_STREAMIO
	uio.uio_iov = iovp = iov;
   11ab8:	0f010b13          	addi	s6,sp,240
/home/nancy/riscv-tools/riscv-gnu-toolchain/build/src/newlib-gcc/newlib/libc/stdio/vfprintf.c:959
		N = arg_index;
		is_pos_arg = 0;
#endif

rflag:		ch = *fmt++;
reswitch:	switch (ch) {
   11abc:	02f13823          	sd	a5,48(sp)
   11ac0:	0ef10793          	addi	a5,sp,239
   11ac4:	00020ab7          	lui	s5,0x20
   11ac8:	000204b7          	lui	s1,0x20
   11acc:	40fb07b3          	sub	a5,s6,a5
/home/nancy/riscv-tools/riscv-gnu-toolchain/build/src/newlib-gcc/newlib/libc/stdio/vfprintf.c:699
#endif
#ifdef FLOATING_POINT
	char *decimal_point = _localeconv_r (data)->decimal_point;
	size_t decp_len = strlen (decimal_point);
	char softsign;		/* temporary negative sign for floats */
	union { int i; _PRINTF_FLOAT_TYPE fp; } _double_ = {0};
   11ad0:	04013c23          	sd	zero,88(sp)
/home/nancy/riscv-tools/riscv-gnu-toolchain/build/src/newlib-gcc/newlib/libc/stdio/vfprintf.c:894
        }
#endif /* STRING_ONLY */

	fmt = (char *)fmt0;
#ifdef _FVWRITE_IN_STREAMIO
	uio.uio_iov = iovp = iov;
   11ad4:	0b613823          	sd	s6,176(sp)
/home/nancy/riscv-tools/riscv-gnu-toolchain/build/src/newlib-gcc/newlib/libc/stdio/vfprintf.c:895
	uio.uio_resid = 0;
   11ad8:	0c013023          	sd	zero,192(sp)
/home/nancy/riscv-tools/riscv-gnu-toolchain/build/src/newlib-gcc/newlib/libc/stdio/vfprintf.c:896
	uio.uio_iovcnt = 0;
   11adc:	0a012c23          	sw	zero,184(sp)
/home/nancy/riscv-tools/riscv-gnu-toolchain/build/src/newlib-gcc/newlib/libc/stdio/vfprintf.c:707
	int expsize = 0;	/* character count for expstr */
	char expstr[MAXEXPLEN];	/* buffer for exponent string */
	int lead;		/* sig figs before decimal or group sep */
#endif /* FLOATING_POINT */
#if defined (FLOATING_POINT) || defined (_WANT_IO_C99_FORMATS)
	int ndig = 0;		/* actual number of digits returned by cvt */
   11ae0:	06012823          	sw	zero,112(sp)
/home/nancy/riscv-tools/riscv-gnu-toolchain/build/src/newlib-gcc/newlib/libc/stdio/vfprintf.c:894
        }
#endif /* STRING_ONLY */

	fmt = (char *)fmt0;
#ifdef _FVWRITE_IN_STREAMIO
	uio.uio_iov = iovp = iov;
   11ae4:	000b0893          	mv	a7,s6
/home/nancy/riscv-tools/riscv-gnu-toolchain/build/src/newlib-gcc/newlib/libc/stdio/vfprintf.c:718
	u_quad_t _uquad;	/* integer arguments %[diouxX] */
	enum { OCT, DEC, HEX } base;/* base for [diouxX] conversion */
	int dprec;		/* a copy of prec if [diouxX], 0 otherwise */
	int realsz;		/* field size expanded by dprec */
	int size;		/* size of converted field or string */
	char *xdigs = NULL;	/* digits for [xX] conversion */
   11ae8:	02013c23          	sd	zero,56(sp)
/home/nancy/riscv-tools/riscv-gnu-toolchain/build/src/newlib-gcc/newlib/libc/stdio/vfprintf.c:702
	size_t decp_len = strlen (decimal_point);
	char softsign;		/* temporary negative sign for floats */
	union { int i; _PRINTF_FLOAT_TYPE fp; } _double_ = {0};
# define _fpvalue (_double_.fp)
	int expt;		/* integer value of exponent */
	int expsize = 0;	/* character count for expstr */
   11aec:	06012a23          	sw	zero,116(sp)
/home/nancy/riscv-tools/riscv-gnu-toolchain/build/src/newlib-gcc/newlib/libc/stdio/vfprintf.c:898
#ifdef _FVWRITE_IN_STREAMIO
	uio.uio_iov = iovp = iov;
	uio.uio_resid = 0;
	uio.uio_iovcnt = 0;
#endif
	ret = 0;
   11af0:	00012e23          	sw	zero,28(sp)
   11af4:	768a8a93          	addi	s5,s5,1896 # 20768 <blanks.4193>
   11af8:	77848493          	addi	s1,s1,1912 # 20778 <zeroes.4194>
   11afc:	06f13c23          	sd	a5,120(sp)
/home/nancy/riscv-tools/riscv-gnu-toolchain/build/src/newlib-gcc/newlib/libc/stdio/vfprintf.c:925
                    else if (wc == '%')
                        break;
                    fmt += n;
		}
#else
                while (*fmt != '\0' && *fmt != '%')
   11b00:	0009c783          	lbu	a5,0(s3)
   11b04:	0e0782e3          	beqz	a5,123e8 <_vfprintf_r+0xa08>
   11b08:	02500713          	li	a4,37
   11b0c:	00098413          	mv	s0,s3
   11b10:	00e79663          	bne	a5,a4,11b1c <_vfprintf_r+0x13c>
   11b14:	0580006f          	j	11b6c <_vfprintf_r+0x18c>
/home/nancy/riscv-tools/riscv-gnu-toolchain/build/src/newlib-gcc/newlib/libc/stdio/vfprintf.c:925 (discriminator 1)
   11b18:	00e78863          	beq	a5,a4,11b28 <_vfprintf_r+0x148>
/home/nancy/riscv-tools/riscv-gnu-toolchain/build/src/newlib-gcc/newlib/libc/stdio/vfprintf.c:926
                    fmt += 1;
   11b1c:	00140413          	addi	s0,s0,1
/home/nancy/riscv-tools/riscv-gnu-toolchain/build/src/newlib-gcc/newlib/libc/stdio/vfprintf.c:925
                    else if (wc == '%')
                        break;
                    fmt += n;
		}
#else
                while (*fmt != '\0' && *fmt != '%')
   11b20:	00044783          	lbu	a5,0(s0)
   11b24:	fe079ae3          	bnez	a5,11b18 <_vfprintf_r+0x138>
   11b28:	4134093b          	subw	s2,s0,s3
/home/nancy/riscv-tools/riscv-gnu-toolchain/build/src/newlib-gcc/newlib/libc/stdio/vfprintf.c:928
                    fmt += 1;
#endif
		if ((m = fmt - cp) != 0) {
   11b2c:	04090063          	beqz	s2,11b6c <_vfprintf_r+0x18c>
/home/nancy/riscv-tools/riscv-gnu-toolchain/build/src/newlib-gcc/newlib/libc/stdio/vfprintf.c:929
			PRINT (cp, m);
   11b30:	0c013703          	ld	a4,192(sp)
   11b34:	0b812783          	lw	a5,184(sp)
   11b38:	00090693          	mv	a3,s2
   11b3c:	00d70733          	add	a4,a4,a3
   11b40:	0017879b          	addiw	a5,a5,1
   11b44:	0138b023          	sd	s3,0(a7)
   11b48:	00d8b423          	sd	a3,8(a7)
   11b4c:	0ce13023          	sd	a4,192(sp)
   11b50:	0af12c23          	sw	a5,184(sp)
   11b54:	00700713          	li	a4,7
   11b58:	01088893          	addi	a7,a7,16
   11b5c:	16f74063          	blt	a4,a5,11cbc <_vfprintf_r+0x2dc>
/home/nancy/riscv-tools/riscv-gnu-toolchain/build/src/newlib-gcc/newlib/libc/stdio/vfprintf.c:930
			ret += m;
   11b60:	01c12783          	lw	a5,28(sp)
   11b64:	012787bb          	addw	a5,a5,s2
   11b68:	00f12e23          	sw	a5,28(sp)
/home/nancy/riscv-tools/riscv-gnu-toolchain/build/src/newlib-gcc/newlib/libc/stdio/vfprintf.c:936
		}
#ifdef _MB_CAPABLE
		if (n <= 0)
                    goto done;
#else
                if (*fmt == '\0')
   11b6c:	00044783          	lbu	a5,0(s0)
   11b70:	16078463          	beqz	a5,11cd8 <_vfprintf_r+0x2f8>
/home/nancy/riscv-tools/riscv-gnu-toolchain/build/src/newlib-gcc/newlib/libc/stdio/vfprintf.c:940
                    goto done;
#endif
		fmt_anchor = fmt;
		fmt++;		/* skip over '%' */
   11b74:	00140993          	addi	s3,s0,1
/home/nancy/riscv-tools/riscv-gnu-toolchain/build/src/newlib-gcc/newlib/libc/stdio/vfprintf.c:946

		flags = 0;
		dprec = 0;
		width = 0;
		prec = -1;
		sign = '\0';
   11b78:	080107a3          	sb	zero,143(sp)
   11b7c:	00000613          	li	a2,0
   11b80:	00000593          	li	a1,0
/home/nancy/riscv-tools/riscv-gnu-toolchain/build/src/newlib-gcc/newlib/libc/stdio/vfprintf.c:945
		fmt++;		/* skip over '%' */

		flags = 0;
		dprec = 0;
		width = 0;
		prec = -1;
   11b84:	fff00413          	li	s0,-1
/home/nancy/riscv-tools/riscv-gnu-toolchain/build/src/newlib-gcc/newlib/libc/stdio/vfprintf.c:944
		fmt_anchor = fmt;
		fmt++;		/* skip over '%' */

		flags = 0;
		dprec = 0;
		width = 0;
   11b88:	00012c23          	sw	zero,24(sp)
/home/nancy/riscv-tools/riscv-gnu-toolchain/build/src/newlib-gcc/newlib/libc/stdio/vfprintf.c:942
                    goto done;
#endif
		fmt_anchor = fmt;
		fmt++;		/* skip over '%' */

		flags = 0;
   11b8c:	00000c13          	li	s8,0
/home/nancy/riscv-tools/riscv-gnu-toolchain/build/src/newlib-gcc/newlib/libc/stdio/vfprintf.c:959
		N = arg_index;
		is_pos_arg = 0;
#endif

rflag:		ch = *fmt++;
reswitch:	switch (ch) {
   11b90:	05800713          	li	a4,88
/home/nancy/riscv-tools/riscv-gnu-toolchain/build/src/newlib-gcc/newlib/libc/stdio/vfprintf.c:1092
		case '5': case '6': case '7': case '8': case '9':
			n = 0;
			do {
				n = 10 * n + to_digit (ch);
				ch = *fmt++;
			} while (is_digit (ch));
   11b94:	00900693          	li	a3,9
/home/nancy/riscv-tools/riscv-gnu-toolchain/build/src/newlib-gcc/newlib/libc/stdio/vfprintf.c:1033
			goto rflag;
		case '+':
			sign = '+';
			goto rflag;
		case '.':
			if ((ch = *fmt++) == '*') {
   11b98:	02a00513          	li	a0,42
/home/nancy/riscv-tools/riscv-gnu-toolchain/build/src/newlib-gcc/newlib/libc/stdio/vfprintf.c:958
#ifndef _NO_POS_ARGS
		N = arg_index;
		is_pos_arg = 0;
#endif

rflag:		ch = *fmt++;
   11b9c:	0009cd03          	lbu	s10,0(s3)
   11ba0:	00198993          	addi	s3,s3,1
/home/nancy/riscv-tools/riscv-gnu-toolchain/build/src/newlib-gcc/newlib/libc/stdio/vfprintf.c:959
reswitch:	switch (ch) {
   11ba4:	fe0d079b          	addiw	a5,s10,-32
   11ba8:	1cf762e3          	bltu	a4,a5,1256c <_vfprintf_r+0xb8c>
   11bac:	03013803          	ld	a6,48(sp)
   11bb0:	02079793          	slli	a5,a5,0x20
   11bb4:	01e7d793          	srli	a5,a5,0x1e
   11bb8:	010787b3          	add	a5,a5,a6
   11bbc:	0007a783          	lw	a5,0(a5)
   11bc0:	00078067          	jr	a5
/home/nancy/riscv-tools/riscv-gnu-toolchain/build/src/newlib-gcc/newlib/libc/stdio/vfprintf.c:1130
			} else
#endif
				flags |= LONGINT;
			goto rflag;
		case 'q': /* extension */
			flags |= QUADINT;
   11bc4:	010c6c13          	ori	s8,s8,16
/home/nancy/riscv-tools/riscv-gnu-toolchain/build/src/newlib-gcc/newlib/libc/stdio/vfprintf.c:1131
			goto rflag;
   11bc8:	fd5ff06f          	j	11b9c <_vfprintf_r+0x1bc>
/home/nancy/riscv-tools/riscv-gnu-toolchain/build/src/newlib-gcc/newlib/libc/stdio/vfprintf.c:1018
			 * ``A negative field width argument is taken as a
			 * - flag followed by a positive field width.''
			 *	-- ANSI X3J11
			 * They don't exclude field widths read from args.
			 */
			width = GET_ARG (n, ap, int);
   11bcc:	02813783          	ld	a5,40(sp)
   11bd0:	0007a803          	lw	a6,0(a5)
   11bd4:	00878793          	addi	a5,a5,8
   11bd8:	02f13423          	sd	a5,40(sp)
   11bdc:	01012c23          	sw	a6,24(sp)
/home/nancy/riscv-tools/riscv-gnu-toolchain/build/src/newlib-gcc/newlib/libc/stdio/vfprintf.c:1022
#ifndef _NO_POS_ARGS
			is_pos_arg = old_is_pos_arg;
#endif
			if (width >= 0)
   11be0:	fa085ee3          	bgez	a6,11b9c <_vfprintf_r+0x1bc>
/home/nancy/riscv-tools/riscv-gnu-toolchain/build/src/newlib-gcc/newlib/libc/stdio/vfprintf.c:1024
				goto rflag;
			width = -width;
   11be4:	410007bb          	negw	a5,a6
   11be8:	00f12c23          	sw	a5,24(sp)
/home/nancy/riscv-tools/riscv-gnu-toolchain/build/src/newlib-gcc/newlib/libc/stdio/vfprintf.c:1027
			/* FALLTHROUGH */
		case '-':
			flags |= LADJUST;
   11bec:	004c6c13          	ori	s8,s8,4
/home/nancy/riscv-tools/riscv-gnu-toolchain/build/src/newlib-gcc/newlib/libc/stdio/vfprintf.c:1028
			goto rflag;
   11bf0:	fadff06f          	j	11b9c <_vfprintf_r+0x1bc>
/home/nancy/riscv-tools/riscv-gnu-toolchain/build/src/newlib-gcc/newlib/libc/stdio/vfprintf.c:1430
			/* NOSTRICT */
			_uquad = (uintptr_t) GET_ARG (N, ap, void_ptr_t);
			base = HEX;
			xdigs = "0123456789abcdef";
			flags |= HEXPREFIX;
			ox[0] = '0';
   11bf4:	03000793          	li	a5,48
   11bf8:	08f10823          	sb	a5,144(sp)
/home/nancy/riscv-tools/riscv-gnu-toolchain/build/src/newlib-gcc/newlib/libc/stdio/vfprintf.c:1431
			ox[1] = ch = 'x';
   11bfc:	07800793          	li	a5,120
   11c00:	08f108a3          	sb	a5,145(sp)
/home/nancy/riscv-tools/riscv-gnu-toolchain/build/src/newlib-gcc/newlib/libc/stdio/vfprintf.c:1426
			 * of printable characters, in an implementation-
			 * defined manner.''
			 *	-- ANSI X3J11
			 */
			/* NOSTRICT */
			_uquad = (uintptr_t) GET_ARG (N, ap, void_ptr_t);
   11c04:	02813783          	ld	a5,40(sp)
/home/nancy/riscv-tools/riscv-gnu-toolchain/build/src/newlib-gcc/newlib/libc/stdio/vfprintf.c:1557

#ifdef _WANT_IO_C99_FORMATS
			flags &= ~GROUPING;
#endif
			/* unsigned conversions */
nosign:			sign = '\0';
   11c08:	080107a3          	sb	zero,143(sp)
/home/nancy/riscv-tools/riscv-gnu-toolchain/build/src/newlib-gcc/newlib/libc/stdio/vfprintf.c:1429
			 */
			/* NOSTRICT */
			_uquad = (uintptr_t) GET_ARG (N, ap, void_ptr_t);
			base = HEX;
			xdigs = "0123456789abcdef";
			flags |= HEXPREFIX;
   11c0c:	002c6693          	ori	a3,s8,2
/home/nancy/riscv-tools/riscv-gnu-toolchain/build/src/newlib-gcc/newlib/libc/stdio/vfprintf.c:1426
			 * of printable characters, in an implementation-
			 * defined manner.''
			 *	-- ANSI X3J11
			 */
			/* NOSTRICT */
			_uquad = (uintptr_t) GET_ARG (N, ap, void_ptr_t);
   11c10:	00878713          	addi	a4,a5,8
   11c14:	0007b783          	ld	a5,0(a5)
/home/nancy/riscv-tools/riscv-gnu-toolchain/build/src/newlib-gcc/newlib/libc/stdio/vfprintf.c:1563
			/*
			 * ``... diouXx conversions ... if a precision is
			 * specified, the 0 flag will be ignored.''
			 *	-- ANSI X3J11
			 */
number:			if ((dprec = prec) >= 0)
   11c18:	180444e3          	bltz	s0,125a0 <_vfprintf_r+0xbc0>
   11c1c:	f7fc7c13          	andi	s8,s8,-129
/home/nancy/riscv-tools/riscv-gnu-toolchain/build/src/newlib-gcc/newlib/libc/stdio/vfprintf.c:1426
			 * of printable characters, in an implementation-
			 * defined manner.''
			 *	-- ANSI X3J11
			 */
			/* NOSTRICT */
			_uquad = (uintptr_t) GET_ARG (N, ap, void_ptr_t);
   11c20:	02e13423          	sd	a4,40(sp)
/home/nancy/riscv-tools/riscv-gnu-toolchain/build/src/newlib-gcc/newlib/libc/stdio/vfprintf.c:1564
			 * ``... diouXx conversions ... if a precision is
			 * specified, the 0 flag will be ignored.''
			 *	-- ANSI X3J11
			 */
number:			if ((dprec = prec) >= 0)
				flags &= ~ZEROPAD;
   11c24:	002c6c13          	ori	s8,s8,2
/home/nancy/riscv-tools/riscv-gnu-toolchain/build/src/newlib-gcc/newlib/libc/stdio/vfprintf.c:1572
			 * ``The result of converting a zero value with an
			 * explicit precision of zero is no characters.''
			 *	-- ANSI X3J11
			 */
			cp = buf + BUF;
			if (_uquad != 0 || prec != 0) {
   11c28:	120796e3          	bnez	a5,12554 <_vfprintf_r+0xb74>
/home/nancy/riscv-tools/riscv-gnu-toolchain/build/src/newlib-gcc/newlib/libc/stdio/vfprintf.c:1428
			 *	-- ANSI X3J11
			 */
			/* NOSTRICT */
			_uquad = (uintptr_t) GET_ARG (N, ap, void_ptr_t);
			base = HEX;
			xdigs = "0123456789abcdef";
   11c2c:	000227b7          	lui	a5,0x22
   11c30:	bd078793          	addi	a5,a5,-1072 # 21bd0 <zeroes.4123+0x6e0>
   11c34:	02f13c23          	sd	a5,56(sp)
/home/nancy/riscv-tools/riscv-gnu-toolchain/build/src/newlib-gcc/newlib/libc/stdio/vfprintf.c:1431
			flags |= HEXPREFIX;
			ox[0] = '0';
			ox[1] = ch = 'x';
   11c38:	07800d13          	li	s10,120
/home/nancy/riscv-tools/riscv-gnu-toolchain/build/src/newlib-gcc/newlib/libc/stdio/vfprintf.c:1572
			 * ``The result of converting a zero value with an
			 * explicit precision of zero is no characters.''
			 *	-- ANSI X3J11
			 */
			cp = buf + BUF;
			if (_uquad != 0 || prec != 0) {
   11c3c:	00000613          	li	a2,0
   11c40:	7e040463          	beqz	s0,12428 <_vfprintf_r+0xa48>
   11c44:	00000793          	li	a5,0
/home/nancy/riscv-tools/riscv-gnu-toolchain/build/src/newlib-gcc/newlib/libc/stdio/vfprintf.c:1572 (discriminator 1)
   11c48:	000b0913          	mv	s2,s6
/home/nancy/riscv-tools/riscv-gnu-toolchain/build/src/newlib-gcc/newlib/libc/stdio/vfprintf.c:1626
					} while (_uquad != 0);
					break;

				case HEX:
					do {
						*--cp = xdigs[_uquad & 15];
   11c4c:	03813683          	ld	a3,56(sp)
   11c50:	00f7f713          	andi	a4,a5,15
   11c54:	fff90913          	addi	s2,s2,-1
   11c58:	00e68733          	add	a4,a3,a4
   11c5c:	00074703          	lbu	a4,0(a4) # ffffffffffffe000 <_end+0xfffffffffffd71e8>
/home/nancy/riscv-tools/riscv-gnu-toolchain/build/src/newlib-gcc/newlib/libc/stdio/vfprintf.c:1627
						_uquad >>= 4;
   11c60:	0047d793          	srli	a5,a5,0x4
/home/nancy/riscv-tools/riscv-gnu-toolchain/build/src/newlib-gcc/newlib/libc/stdio/vfprintf.c:1626
					} while (_uquad != 0);
					break;

				case HEX:
					do {
						*--cp = xdigs[_uquad & 15];
   11c64:	00e90023          	sb	a4,0(s2)
/home/nancy/riscv-tools/riscv-gnu-toolchain/build/src/newlib-gcc/newlib/libc/stdio/vfprintf.c:1628
						_uquad >>= 4;
					} while (_uquad);
   11c68:	fe0792e3          	bnez	a5,11c4c <_vfprintf_r+0x26c>
   11c6c:	412b07b3          	sub	a5,s6,s2
   11c70:	02f12023          	sw	a5,32(sp)
   11c74:	1680006f          	j	11ddc <_vfprintf_r+0x3fc>
/home/nancy/riscv-tools/riscv-gnu-toolchain/build/src/newlib-gcc/newlib/libc/stdio/vfprintf.c:865 (discriminator 3)
	_newlib_flockfile_start (fp);

	ORIENT(fp, -1);

	/* sorry, fprintf(read_only_file, "") returns EOF, not 0 */
	if (cantwrite (data, fp)) {
   11c78:	000a0593          	mv	a1,s4
   11c7c:	000b8513          	mv	a0,s7
   11c80:	5ed020ef          	jal	14a6c <__swsetup_r>
   11c84:	00050463          	beqz	a0,11c8c <_vfprintf_r+0x2ac>
   11c88:	3940106f          	j	1301c <_vfprintf_r+0x163c>
   11c8c:	010a5783          	lhu	a5,16(s4)
/home/nancy/riscv-tools/riscv-gnu-toolchain/build/src/newlib-gcc/newlib/libc/stdio/vfprintf.c:872
		return (EOF);
	}

#ifdef _UNBUF_STREAM_OPT
	/* optimise fprintf(stderr) (and other unbuffered Unix files) */
	if ((fp->_flags & (__SNBF|__SWR|__SRW)) == (__SNBF|__SWR) &&
   11c90:	00a00713          	li	a4,10
   11c94:	01a7f793          	andi	a5,a5,26
   11c98:	e0e79ce3          	bne	a5,a4,11ab0 <_vfprintf_r+0xd0>
/home/nancy/riscv-tools/riscv-gnu-toolchain/build/src/newlib-gcc/newlib/libc/stdio/vfprintf.c:872 (discriminator 1)
   11c9c:	012a1783          	lh	a5,18(s4)
   11ca0:	e007c8e3          	bltz	a5,11ab0 <_vfprintf_r+0xd0>
/home/nancy/riscv-tools/riscv-gnu-toolchain/build/src/newlib-gcc/newlib/libc/stdio/vfprintf.c:875
	    fp->_file >= 0) {
		_newlib_flockfile_exit (fp);
		return (__sbprintf (data, fp, fmt0, ap));
   11ca4:	02813683          	ld	a3,40(sp)
   11ca8:	00098613          	mv	a2,s3
   11cac:	000a0593          	mv	a1,s4
   11cb0:	000b8513          	mv	a0,s7
   11cb4:	1c9010ef          	jal	1367c <__sbprintf>
   11cb8:	04c0006f          	j	11d04 <_vfprintf_r+0x324>
/home/nancy/riscv-tools/riscv-gnu-toolchain/build/src/newlib-gcc/newlib/libc/stdio/vfprintf.c:929 (discriminator 1)
#else
                while (*fmt != '\0' && *fmt != '%')
                    fmt += 1;
#endif
		if ((m = fmt - cp) != 0) {
			PRINT (cp, m);
   11cbc:	0b010613          	addi	a2,sp,176
   11cc0:	000a0593          	mv	a1,s4
   11cc4:	000b8513          	mv	a0,s7
   11cc8:	1e80b0ef          	jal	1ceb0 <__sprint_r>
   11ccc:	02051263          	bnez	a0,11cf0 <_vfprintf_r+0x310>
/home/nancy/riscv-tools/riscv-gnu-toolchain/build/src/newlib-gcc/newlib/libc/stdio/vfprintf.c:929
   11cd0:	000b0893          	mv	a7,s6
   11cd4:	e8dff06f          	j	11b60 <_vfprintf_r+0x180>
/home/nancy/riscv-tools/riscv-gnu-toolchain/build/src/newlib-gcc/newlib/libc/stdio/vfprintf.c:1782
			_free_r (data, malloc_buf);
			malloc_buf = NULL;
		}
	}
done:
	FLUSH ();
   11cd8:	0c013783          	ld	a5,192(sp)
   11cdc:	00078a63          	beqz	a5,11cf0 <_vfprintf_r+0x310>
/home/nancy/riscv-tools/riscv-gnu-toolchain/build/src/newlib-gcc/newlib/libc/stdio/vfprintf.c:1782 (discriminator 1)
   11ce0:	0b010613          	addi	a2,sp,176
   11ce4:	000a0593          	mv	a1,s4
   11ce8:	000b8513          	mv	a0,s7
   11cec:	1c40b0ef          	jal	1ceb0 <__sprint_r>
/home/nancy/riscv-tools/riscv-gnu-toolchain/build/src/newlib-gcc/newlib/libc/stdio/vfprintf.c:1789
	if (malloc_buf != NULL)
		_free_r (data, malloc_buf);
#ifndef STRING_ONLY
	_newlib_flockfile_end (fp);
#endif
	return (__sferror (fp) ? EOF : ret);
   11cf0:	010a5783          	lhu	a5,16(s4)
   11cf4:	0407f793          	andi	a5,a5,64
   11cf8:	00078463          	beqz	a5,11d00 <_vfprintf_r+0x320>
   11cfc:	3200106f          	j	1301c <_vfprintf_r+0x163c>
   11d00:	01c12503          	lw	a0,28(sp)
/home/nancy/riscv-tools/riscv-gnu-toolchain/build/src/newlib-gcc/newlib/libc/stdio/vfprintf.c:1791
	/* NOTREACHED */
}
   11d04:	1e813083          	ld	ra,488(sp)
   11d08:	1e013403          	ld	s0,480(sp)
   11d0c:	1d813483          	ld	s1,472(sp)
   11d10:	1d013903          	ld	s2,464(sp)
   11d14:	1c813983          	ld	s3,456(sp)
   11d18:	1c013a03          	ld	s4,448(sp)
   11d1c:	1b813a83          	ld	s5,440(sp)
   11d20:	1b013b03          	ld	s6,432(sp)
   11d24:	1a813b83          	ld	s7,424(sp)
   11d28:	1a013c03          	ld	s8,416(sp)
   11d2c:	19813c83          	ld	s9,408(sp)
   11d30:	19013d03          	ld	s10,400(sp)
   11d34:	18813d83          	ld	s11,392(sp)
   11d38:	17813407          	fld	fs0,376(sp)
   11d3c:	1f010113          	addi	sp,sp,496
   11d40:	00008067          	ret
/home/nancy/riscv-tools/riscv-gnu-toolchain/build/src/newlib-gcc/newlib/libc/stdio/vfprintf.c:859 (discriminator 2)
	    (u_long)GET_ARG (N, ap, u_int))
#endif

#ifndef STRING_ONLY
	/* Initialize std streams if not dealing with sprintf family.  */
	CHECK_INIT (data, fp);
   11d44:	000b8513          	mv	a0,s7
   11d48:	229040ef          	jal	16770 <__sinit>
   11d4c:	d05ff06f          	j	11a50 <_vfprintf_r+0x70>
/home/nancy/riscv-tools/riscv-gnu-toolchain/build/src/newlib-gcc/newlib/libc/stdio/vfprintf.c:959
		N = arg_index;
		is_pos_arg = 0;
#endif

rflag:		ch = *fmt++;
reswitch:	switch (ch) {
   11d50:	00100613          	li	a2,1
/home/nancy/riscv-tools/riscv-gnu-toolchain/build/src/newlib-gcc/newlib/libc/stdio/vfprintf.c:1030
			/* FALLTHROUGH */
		case '-':
			flags |= LADJUST;
			goto rflag;
		case '+':
			sign = '+';
   11d54:	02b00593          	li	a1,43
   11d58:	e45ff06f          	j	11b9c <_vfprintf_r+0x1bc>
   11d5c:	00060463          	beqz	a2,11d64 <_vfprintf_r+0x384>
   11d60:	0d90106f          	j	13638 <_vfprintf_r+0x1c58>
/home/nancy/riscv-tools/riscv-gnu-toolchain/build/src/newlib-gcc/newlib/libc/stdio/vfprintf.c:1411
			continue;	/* no output */
		case 'O': /* extension */
			flags |= LONGINT;
			/*FALLTHROUGH*/
		case 'o':
			_uquad = UARG ();
   11d64:	010c7793          	andi	a5,s8,16
   11d68:	22078263          	beqz	a5,11f8c <_vfprintf_r+0x5ac>
/home/nancy/riscv-tools/riscv-gnu-toolchain/build/src/newlib-gcc/newlib/libc/stdio/vfprintf.c:1411 (discriminator 1)
   11d6c:	02813783          	ld	a5,40(sp)
/home/nancy/riscv-tools/riscv-gnu-toolchain/build/src/newlib-gcc/newlib/libc/stdio/vfprintf.c:1557

#ifdef _WANT_IO_C99_FORMATS
			flags &= ~GROUPING;
#endif
			/* unsigned conversions */
nosign:			sign = '\0';
   11d70:	080107a3          	sb	zero,143(sp)
/home/nancy/riscv-tools/riscv-gnu-toolchain/build/src/newlib-gcc/newlib/libc/stdio/vfprintf.c:1411
			continue;	/* no output */
		case 'O': /* extension */
			flags |= LONGINT;
			/*FALLTHROUGH*/
		case 'o':
			_uquad = UARG ();
   11d74:	00878713          	addi	a4,a5,8
   11d78:	0007b783          	ld	a5,0(a5)
/home/nancy/riscv-tools/riscv-gnu-toolchain/build/src/newlib-gcc/newlib/libc/stdio/vfprintf.c:1563
			/*
			 * ``... diouXx conversions ... if a precision is
			 * specified, the 0 flag will be ignored.''
			 *	-- ANSI X3J11
			 */
number:			if ((dprec = prec) >= 0)
   11d7c:	22044663          	bltz	s0,11fa8 <_vfprintf_r+0x5c8>
/home/nancy/riscv-tools/riscv-gnu-toolchain/build/src/newlib-gcc/newlib/libc/stdio/vfprintf.c:1411
			continue;	/* no output */
		case 'O': /* extension */
			flags |= LONGINT;
			/*FALLTHROUGH*/
		case 'o':
			_uquad = UARG ();
   11d80:	02e13423          	sd	a4,40(sp)
/home/nancy/riscv-tools/riscv-gnu-toolchain/build/src/newlib-gcc/newlib/libc/stdio/vfprintf.c:1564
			 * ``... diouXx conversions ... if a precision is
			 * specified, the 0 flag will be ignored.''
			 *	-- ANSI X3J11
			 */
number:			if ((dprec = prec) >= 0)
				flags &= ~ZEROPAD;
   11d84:	f7fc7c13          	andi	s8,s8,-129
/home/nancy/riscv-tools/riscv-gnu-toolchain/build/src/newlib-gcc/newlib/libc/stdio/vfprintf.c:1572
			 * ``The result of converting a zero value with an
			 * explicit precision of zero is no characters.''
			 *	-- ANSI X3J11
			 */
			cp = buf + BUF;
			if (_uquad != 0 || prec != 0) {
   11d88:	22079663          	bnez	a5,11fb4 <_vfprintf_r+0x5d4>
   11d8c:	00000613          	li	a2,0
   11d90:	00000793          	li	a5,0
   11d94:	00041463          	bnez	s0,11d9c <_vfprintf_r+0x3bc>
   11d98:	3680106f          	j	13100 <_vfprintf_r+0x1720>
/home/nancy/riscv-tools/riscv-gnu-toolchain/build/src/newlib-gcc/newlib/libc/stdio/vfprintf.c:1572 (discriminator 1)
   11d9c:	000b0913          	mv	s2,s6
/home/nancy/riscv-tools/riscv-gnu-toolchain/build/src/newlib-gcc/newlib/libc/stdio/vfprintf.c:1581
				 * a variable; hence this switch.
				 */
				switch (base) {
				case OCT:
					do {
						*--cp = to_char (_uquad & 7);
   11da0:	0077f713          	andi	a4,a5,7
   11da4:	fff90913          	addi	s2,s2,-1
   11da8:	0307071b          	addiw	a4,a4,48
   11dac:	00e90023          	sb	a4,0(s2)
/home/nancy/riscv-tools/riscv-gnu-toolchain/build/src/newlib-gcc/newlib/libc/stdio/vfprintf.c:1582
						_uquad >>= 3;
   11db0:	0037d793          	srli	a5,a5,0x3
/home/nancy/riscv-tools/riscv-gnu-toolchain/build/src/newlib-gcc/newlib/libc/stdio/vfprintf.c:1583
					} while (_uquad);
   11db4:	fe0796e3          	bnez	a5,11da0 <_vfprintf_r+0x3c0>
/home/nancy/riscv-tools/riscv-gnu-toolchain/build/src/newlib-gcc/newlib/libc/stdio/vfprintf.c:1585
					/* handle octal leading 0 */
					if (flags & ALT && *cp != '0')
   11db8:	001c7793          	andi	a5,s8,1
   11dbc:	ea0788e3          	beqz	a5,11c6c <_vfprintf_r+0x28c>
/home/nancy/riscv-tools/riscv-gnu-toolchain/build/src/newlib-gcc/newlib/libc/stdio/vfprintf.c:1585 (discriminator 1)
   11dc0:	03000793          	li	a5,48
   11dc4:	eaf704e3          	beq	a4,a5,11c6c <_vfprintf_r+0x28c>
/home/nancy/riscv-tools/riscv-gnu-toolchain/build/src/newlib-gcc/newlib/libc/stdio/vfprintf.c:1586
						*--cp = '0';
   11dc8:	fff90713          	addi	a4,s2,-1
   11dcc:	40eb06b3          	sub	a3,s6,a4
   11dd0:	fef90fa3          	sb	a5,-1(s2)
   11dd4:	02d12023          	sw	a3,32(sp)
   11dd8:	00070913          	mv	s2,a4
   11ddc:	02012783          	lw	a5,32(sp)
   11de0:	00078d93          	mv	s11,a5
   11de4:	0087d463          	ble	s0,a5,11dec <_vfprintf_r+0x40c>
   11de8:	00040d93          	mv	s11,s0
/home/nancy/riscv-tools/riscv-gnu-toolchain/build/src/newlib-gcc/newlib/libc/stdio/vfprintf.c:948
		dprec = 0;
		width = 0;
		prec = -1;
		sign = '\0';
#ifdef FLOATING_POINT
		lead = 0;
   11dec:	01b12423          	sw	s11,8(sp)
   11df0:	04012623          	sw	zero,76(sp)
/home/nancy/riscv-tools/riscv-gnu-toolchain/build/src/newlib-gcc/newlib/libc/stdio/vfprintf.c:1679
		 *
		 * Compute actual size, so we know how much to pad.
		 * size excludes decimal prec; realsz includes it.
		 */
		realsz = dprec > size ? dprec : size;
		if (sign)
   11df4:	2a060263          	beqz	a2,12098 <_vfprintf_r+0x6b8>
/home/nancy/riscv-tools/riscv-gnu-toolchain/build/src/newlib-gcc/newlib/libc/stdio/vfprintf.c:1680
			realsz++;
   11df8:	00812783          	lw	a5,8(sp)
   11dfc:	0017879b          	addiw	a5,a5,1
   11e00:	00f12423          	sw	a5,8(sp)
   11e04:	2940006f          	j	12098 <_vfprintf_r+0x6b8>
/home/nancy/riscv-tools/riscv-gnu-toolchain/build/src/newlib-gcc/newlib/libc/stdio/vfprintf.c:1033
			goto rflag;
		case '+':
			sign = '+';
			goto rflag;
		case '.':
			if ((ch = *fmt++) == '*') {
   11e08:	0009cd03          	lbu	s10,0(s3)
   11e0c:	00198993          	addi	s3,s3,1
   11e10:	00ad1463          	bne	s10,a0,11e18 <_vfprintf_r+0x438>
   11e14:	75c0106f          	j	13570 <_vfprintf_r+0x1b90>
/home/nancy/riscv-tools/riscv-gnu-toolchain/build/src/newlib-gcc/newlib/libc/stdio/vfprintf.c:1072
				if (prec < 0)
					prec = -1;
				goto rflag;
			}
			n = 0;
			while (is_digit (ch)) {
   11e18:	fd0d079b          	addiw	a5,s10,-48
   11e1c:	00000413          	li	s0,0
   11e20:	d8f6e2e3          	bltu	a3,a5,11ba4 <_vfprintf_r+0x1c4>
/home/nancy/riscv-tools/riscv-gnu-toolchain/build/src/newlib-gcc/newlib/libc/stdio/vfprintf.c:1074
				n = 10 * n + to_digit (ch);
				ch = *fmt++;
   11e24:	00198993          	addi	s3,s3,1
   11e28:	fff9cd03          	lbu	s10,-1(s3)
/home/nancy/riscv-tools/riscv-gnu-toolchain/build/src/newlib-gcc/newlib/libc/stdio/vfprintf.c:1073
					prec = -1;
				goto rflag;
			}
			n = 0;
			while (is_digit (ch)) {
				n = 10 * n + to_digit (ch);
   11e2c:	0014181b          	slliw	a6,s0,0x1
   11e30:	0034141b          	slliw	s0,s0,0x3
   11e34:	0088043b          	addw	s0,a6,s0
   11e38:	00f4043b          	addw	s0,s0,a5
/home/nancy/riscv-tools/riscv-gnu-toolchain/build/src/newlib-gcc/newlib/libc/stdio/vfprintf.c:1072
				if (prec < 0)
					prec = -1;
				goto rflag;
			}
			n = 0;
			while (is_digit (ch)) {
   11e3c:	fd0d079b          	addiw	a5,s10,-48
   11e40:	fef6f2e3          	bleu	a5,a3,11e24 <_vfprintf_r+0x444>
   11e44:	d60450e3          	bgez	s0,11ba4 <_vfprintf_r+0x1c4>
   11e48:	fff00413          	li	s0,-1
/home/nancy/riscv-tools/riscv-gnu-toolchain/build/src/newlib-gcc/newlib/libc/stdio/vfprintf.c:1077
				n = 10 * n + to_digit (ch);
				ch = *fmt++;
			}
			prec = n < 0 ? -1 : n;
			goto reswitch;
   11e4c:	d59ff06f          	j	11ba4 <_vfprintf_r+0x1c4>
/home/nancy/riscv-tools/riscv-gnu-toolchain/build/src/newlib-gcc/newlib/libc/stdio/vfprintf.c:1084
			/*
			 * ``Note that 0 is taken as a flag, not as the
			 * beginning of a field width.''
			 *	-- ANSI X3J11
			 */
			flags |= ZEROPAD;
   11e50:	080c6c13          	ori	s8,s8,128
/home/nancy/riscv-tools/riscv-gnu-toolchain/build/src/newlib-gcc/newlib/libc/stdio/vfprintf.c:1085
			goto rflag;
   11e54:	d49ff06f          	j	11b9c <_vfprintf_r+0x1bc>
/home/nancy/riscv-tools/riscv-gnu-toolchain/build/src/newlib-gcc/newlib/libc/stdio/vfprintf.c:975
			/*
			 * ``If the space and + flags both appear, the space
			 * flag will be ignored.''
			 *	-- ANSI X3J11
			 */
			if (!sign)
   11e58:	d40592e3          	bnez	a1,11b9c <_vfprintf_r+0x1bc>
   11e5c:	00100613          	li	a2,1
/home/nancy/riscv-tools/riscv-gnu-toolchain/build/src/newlib-gcc/newlib/libc/stdio/vfprintf.c:976
				sign = ' ';
   11e60:	02000593          	li	a1,32
   11e64:	d39ff06f          	j	11b9c <_vfprintf_r+0x1bc>
/home/nancy/riscv-tools/riscv-gnu-toolchain/build/src/newlib-gcc/newlib/libc/stdio/vfprintf.c:979
			goto rflag;
		case '#':
			flags |= ALT;
   11e68:	001c6c13          	ori	s8,s8,1
/home/nancy/riscv-tools/riscv-gnu-toolchain/build/src/newlib-gcc/newlib/libc/stdio/vfprintf.c:980
			goto rflag;
   11e6c:	d31ff06f          	j	11b9c <_vfprintf_r+0x1bc>
/home/nancy/riscv-tools/riscv-gnu-toolchain/build/src/newlib-gcc/newlib/libc/stdio/vfprintf.c:1437
			goto nosign;
		case 's':
#ifdef _WANT_IO_C99_FORMATS
		case 'S':
#endif
			cp = GET_ARG (N, ap, char_ptr_t);
   11e70:	02813783          	ld	a5,40(sp)
/home/nancy/riscv-tools/riscv-gnu-toolchain/build/src/newlib-gcc/newlib/libc/stdio/vfprintf.c:1441
#ifdef _GLIBC_EXTENSION
string:
#endif
			sign = '\0';
   11e74:	080107a3          	sb	zero,143(sp)
/home/nancy/riscv-tools/riscv-gnu-toolchain/build/src/newlib-gcc/newlib/libc/stdio/vfprintf.c:1437
			goto nosign;
		case 's':
#ifdef _WANT_IO_C99_FORMATS
		case 'S':
#endif
			cp = GET_ARG (N, ap, char_ptr_t);
   11e78:	0007b903          	ld	s2,0(a5)
   11e7c:	00878c93          	addi	s9,a5,8
/home/nancy/riscv-tools/riscv-gnu-toolchain/build/src/newlib-gcc/newlib/libc/stdio/vfprintf.c:1447
#ifndef __OPTIMIZE_SIZE__
			/* Behavior is undefined if the user passed a
			   NULL string when precision is not 0.
			   However, if we are not optimizing for size,
			   we might as well mirror glibc behavior.  */
			if (cp == NULL) {
   11e80:	00091463          	bnez	s2,11e88 <_vfprintf_r+0x4a8>
   11e84:	39c0106f          	j	13220 <_vfprintf_r+0x1840>
   11e88:	01113023          	sd	a7,0(sp)
/home/nancy/riscv-tools/riscv-gnu-toolchain/build/src/newlib-gcc/newlib/libc/stdio/vfprintf.c:1516
				}
				cp[size] = '\0';
			}
			else
#endif /* _MB_CAPABLE */
			if (prec >= 0) {
   11e8c:	00045463          	bgez	s0,11e94 <_vfprintf_r+0x4b4>
   11e90:	3240106f          	j	131b4 <_vfprintf_r+0x17d4>
/home/nancy/riscv-tools/riscv-gnu-toolchain/build/src/newlib-gcc/newlib/libc/stdio/vfprintf.c:1522
				/*
				 * can't use strlen; can only look for the
				 * NUL in the first `prec' characters, and
				 * strlen () will go further.
				 */
				char *p = memchr (cp, 0, prec);
   11e94:	00040613          	mv	a2,s0
   11e98:	00000593          	li	a1,0
   11e9c:	00090513          	mv	a0,s2
   11ea0:	2c9050ef          	jal	17968 <memchr>
/home/nancy/riscv-tools/riscv-gnu-toolchain/build/src/newlib-gcc/newlib/libc/stdio/vfprintf.c:1524

				if (p != NULL)
   11ea4:	00013883          	ld	a7,0(sp)
   11ea8:	00051463          	bnez	a0,11eb0 <_vfprintf_r+0x4d0>
   11eac:	4c00106f          	j	1336c <_vfprintf_r+0x198c>
/home/nancy/riscv-tools/riscv-gnu-toolchain/build/src/newlib-gcc/newlib/libc/stdio/vfprintf.c:1525
					size = p - cp;
   11eb0:	412507bb          	subw	a5,a0,s2
   11eb4:	02f12023          	sw	a5,32(sp)
   11eb8:	00078d93          	mv	s11,a5
   11ebc:	0007d463          	bgez	a5,11ec4 <_vfprintf_r+0x4e4>
   11ec0:	3140106f          	j	131d4 <_vfprintf_r+0x17f4>
   11ec4:	08f14603          	lbu	a2,143(sp)
/home/nancy/riscv-tools/riscv-gnu-toolchain/build/src/newlib-gcc/newlib/libc/stdio/vfprintf.c:1529
				else
					size = prec;
			} else
				size = strlen (cp);
   11ec8:	01b12423          	sw	s11,8(sp)
/home/nancy/riscv-tools/riscv-gnu-toolchain/build/src/newlib-gcc/newlib/libc/stdio/vfprintf.c:1437
			goto nosign;
		case 's':
#ifdef _WANT_IO_C99_FORMATS
		case 'S':
#endif
			cp = GET_ARG (N, ap, char_ptr_t);
   11ecc:	03913423          	sd	s9,40(sp)
/home/nancy/riscv-tools/riscv-gnu-toolchain/build/src/newlib-gcc/newlib/libc/stdio/vfprintf.c:943
#endif
		fmt_anchor = fmt;
		fmt++;		/* skip over '%' */

		flags = 0;
		dprec = 0;
   11ed0:	00000413          	li	s0,0
/home/nancy/riscv-tools/riscv-gnu-toolchain/build/src/newlib-gcc/newlib/libc/stdio/vfprintf.c:948
		width = 0;
		prec = -1;
		sign = '\0';
#ifdef FLOATING_POINT
		lead = 0;
   11ed4:	04012623          	sw	zero,76(sp)
   11ed8:	f1dff06f          	j	11df4 <_vfprintf_r+0x414>
   11edc:	00060463          	beqz	a2,11ee4 <_vfprintf_r+0x504>
   11ee0:	7800106f          	j	13660 <_vfprintf_r+0x1c80>
/home/nancy/riscv-tools/riscv-gnu-toolchain/build/src/newlib-gcc/newlib/libc/stdio/vfprintf.c:1536
			break;
		case 'U': /* extension */
			flags |= LONGINT;
			/*FALLTHROUGH*/
		case 'u':
			_uquad = UARG ();
   11ee4:	010c7793          	andi	a5,s8,16
   11ee8:	0e078463          	beqz	a5,11fd0 <_vfprintf_r+0x5f0>
/home/nancy/riscv-tools/riscv-gnu-toolchain/build/src/newlib-gcc/newlib/libc/stdio/vfprintf.c:1536 (discriminator 1)
   11eec:	02813783          	ld	a5,40(sp)
/home/nancy/riscv-tools/riscv-gnu-toolchain/build/src/newlib-gcc/newlib/libc/stdio/vfprintf.c:1557

#ifdef _WANT_IO_C99_FORMATS
			flags &= ~GROUPING;
#endif
			/* unsigned conversions */
nosign:			sign = '\0';
   11ef0:	080107a3          	sb	zero,143(sp)
/home/nancy/riscv-tools/riscv-gnu-toolchain/build/src/newlib-gcc/newlib/libc/stdio/vfprintf.c:1536
			break;
		case 'U': /* extension */
			flags |= LONGINT;
			/*FALLTHROUGH*/
		case 'u':
			_uquad = UARG ();
   11ef4:	00878713          	addi	a4,a5,8
   11ef8:	0007b783          	ld	a5,0(a5)
/home/nancy/riscv-tools/riscv-gnu-toolchain/build/src/newlib-gcc/newlib/libc/stdio/vfprintf.c:1563
			/*
			 * ``... diouXx conversions ... if a precision is
			 * specified, the 0 flag will be ignored.''
			 *	-- ANSI X3J11
			 */
number:			if ((dprec = prec) >= 0)
   11efc:	0e044863          	bltz	s0,11fec <_vfprintf_r+0x60c>
/home/nancy/riscv-tools/riscv-gnu-toolchain/build/src/newlib-gcc/newlib/libc/stdio/vfprintf.c:1536
			break;
		case 'U': /* extension */
			flags |= LONGINT;
			/*FALLTHROUGH*/
		case 'u':
			_uquad = UARG ();
   11f00:	02e13423          	sd	a4,40(sp)
/home/nancy/riscv-tools/riscv-gnu-toolchain/build/src/newlib-gcc/newlib/libc/stdio/vfprintf.c:1564
			 * ``... diouXx conversions ... if a precision is
			 * specified, the 0 flag will be ignored.''
			 *	-- ANSI X3J11
			 */
number:			if ((dprec = prec) >= 0)
				flags &= ~ZEROPAD;
   11f04:	f7fc7c13          	andi	s8,s8,-129
/home/nancy/riscv-tools/riscv-gnu-toolchain/build/src/newlib-gcc/newlib/libc/stdio/vfprintf.c:1572
			 * ``The result of converting a zero value with an
			 * explicit precision of zero is no characters.''
			 *	-- ANSI X3J11
			 */
			cp = buf + BUF;
			if (_uquad != 0 || prec != 0) {
   11f08:	00000613          	li	a2,0
   11f0c:	50078c63          	beqz	a5,12424 <_vfprintf_r+0xa44>
/home/nancy/riscv-tools/riscv-gnu-toolchain/build/src/newlib-gcc/newlib/libc/stdio/vfprintf.c:1591
						*--cp = '0';
					break;

				case DEC:
					/* many numbers are 1 digit */
					if (_uquad < 10) {
   11f10:	00900713          	li	a4,9
   11f14:	000b0913          	mv	s2,s6
/home/nancy/riscv-tools/riscv-gnu-toolchain/build/src/newlib-gcc/newlib/libc/stdio/vfprintf.c:1599
					}
#ifdef _WANT_IO_C99_FORMATS
					ndig = 0;
#endif
					do {
					  *--cp = to_char (_uquad % 10);
   11f18:	00a00693          	li	a3,10
/home/nancy/riscv-tools/riscv-gnu-toolchain/build/src/newlib-gcc/newlib/libc/stdio/vfprintf.c:1591
						*--cp = '0';
					break;

				case DEC:
					/* many numbers are 1 digit */
					if (_uquad < 10) {
   11f1c:	40f770e3          	bleu	a5,a4,12b1c <_vfprintf_r+0x113c>
/home/nancy/riscv-tools/riscv-gnu-toolchain/build/src/newlib-gcc/newlib/libc/stdio/vfprintf.c:1599 (discriminator 1)
					}
#ifdef _WANT_IO_C99_FORMATS
					ndig = 0;
#endif
					do {
					  *--cp = to_char (_uquad % 10);
   11f20:	02d7f733          	remu	a4,a5,a3
   11f24:	fff90913          	addi	s2,s2,-1
/home/nancy/riscv-tools/riscv-gnu-toolchain/build/src/newlib-gcc/newlib/libc/stdio/vfprintf.c:1620
					       next cases. */
					    if (grouping[1] != '\0')
					      grouping++;
					  }
#endif
					  _uquad /= 10;
   11f28:	02d7d7b3          	divu	a5,a5,a3
/home/nancy/riscv-tools/riscv-gnu-toolchain/build/src/newlib-gcc/newlib/libc/stdio/vfprintf.c:1599
					}
#ifdef _WANT_IO_C99_FORMATS
					ndig = 0;
#endif
					do {
					  *--cp = to_char (_uquad % 10);
   11f2c:	0307071b          	addiw	a4,a4,48
   11f30:	00e90023          	sb	a4,0(s2)
/home/nancy/riscv-tools/riscv-gnu-toolchain/build/src/newlib-gcc/newlib/libc/stdio/vfprintf.c:1621
					    if (grouping[1] != '\0')
					      grouping++;
					  }
#endif
					  _uquad /= 10;
					} while (_uquad != 0);
   11f34:	fe0796e3          	bnez	a5,11f20 <_vfprintf_r+0x540>
   11f38:	412b07b3          	sub	a5,s6,s2
   11f3c:	02f12023          	sw	a5,32(sp)
   11f40:	e9dff06f          	j	11ddc <_vfprintf_r+0x3fc>
/home/nancy/riscv-tools/riscv-gnu-toolchain/build/src/newlib-gcc/newlib/libc/stdio/vfprintf.c:959
		N = arg_index;
		is_pos_arg = 0;
#endif

rflag:		ch = *fmt++;
reswitch:	switch (ch) {
   11f44:	00012c23          	sw	zero,24(sp)
   11f48:	fd0d079b          	addiw	a5,s10,-48
/home/nancy/riscv-tools/riscv-gnu-toolchain/build/src/newlib-gcc/newlib/libc/stdio/vfprintf.c:1090
			goto rflag;
		case '1': case '2': case '3': case '4':
		case '5': case '6': case '7': case '8': case '9':
			n = 0;
			do {
				n = 10 * n + to_digit (ch);
   11f4c:	01812303          	lw	t1,24(sp)
/home/nancy/riscv-tools/riscv-gnu-toolchain/build/src/newlib-gcc/newlib/libc/stdio/vfprintf.c:1091
				ch = *fmt++;
   11f50:	00198993          	addi	s3,s3,1
   11f54:	fff9cd03          	lbu	s10,-1(s3)
/home/nancy/riscv-tools/riscv-gnu-toolchain/build/src/newlib-gcc/newlib/libc/stdio/vfprintf.c:1090
			goto rflag;
		case '1': case '2': case '3': case '4':
		case '5': case '6': case '7': case '8': case '9':
			n = 0;
			do {
				n = 10 * n + to_digit (ch);
   11f58:	0013181b          	slliw	a6,t1,0x1
   11f5c:	00331c9b          	slliw	s9,t1,0x3
   11f60:	01980cbb          	addw	s9,a6,s9
   11f64:	019787bb          	addw	a5,a5,s9
   11f68:	00f12c23          	sw	a5,24(sp)
/home/nancy/riscv-tools/riscv-gnu-toolchain/build/src/newlib-gcc/newlib/libc/stdio/vfprintf.c:1092
				ch = *fmt++;
			} while (is_digit (ch));
   11f6c:	fd0d079b          	addiw	a5,s10,-48
   11f70:	fcf6fee3          	bleu	a5,a3,11f4c <_vfprintf_r+0x56c>
   11f74:	c31ff06f          	j	11ba4 <_vfprintf_r+0x1c4>
   11f78:	00060463          	beqz	a2,11f80 <_vfprintf_r+0x5a0>
   11f7c:	6d80106f          	j	13654 <_vfprintf_r+0x1c74>
/home/nancy/riscv-tools/riscv-gnu-toolchain/build/src/newlib-gcc/newlib/libc/stdio/vfprintf.c:1408
#endif
			else
				*GET_ARG (N, ap, int_ptr_t) = ret;
			continue;	/* no output */
		case 'O': /* extension */
			flags |= LONGINT;
   11f80:	010c6c13          	ori	s8,s8,16
/home/nancy/riscv-tools/riscv-gnu-toolchain/build/src/newlib-gcc/newlib/libc/stdio/vfprintf.c:1411
			/*FALLTHROUGH*/
		case 'o':
			_uquad = UARG ();
   11f84:	010c7793          	andi	a5,s8,16
   11f88:	de0792e3          	bnez	a5,11d6c <_vfprintf_r+0x38c>
/home/nancy/riscv-tools/riscv-gnu-toolchain/build/src/newlib-gcc/newlib/libc/stdio/vfprintf.c:1411 (discriminator 2)
   11f8c:	040c7793          	andi	a5,s8,64
/home/nancy/riscv-tools/riscv-gnu-toolchain/build/src/newlib-gcc/newlib/libc/stdio/vfprintf.c:1557

#ifdef _WANT_IO_C99_FORMATS
			flags &= ~GROUPING;
#endif
			/* unsigned conversions */
nosign:			sign = '\0';
   11f90:	080107a3          	sb	zero,143(sp)
/home/nancy/riscv-tools/riscv-gnu-toolchain/build/src/newlib-gcc/newlib/libc/stdio/vfprintf.c:1411
			continue;	/* no output */
		case 'O': /* extension */
			flags |= LONGINT;
			/*FALLTHROUGH*/
		case 'o':
			_uquad = UARG ();
   11f94:	580780e3          	beqz	a5,12d14 <_vfprintf_r+0x1334>
/home/nancy/riscv-tools/riscv-gnu-toolchain/build/src/newlib-gcc/newlib/libc/stdio/vfprintf.c:1411 (discriminator 4)
   11f98:	02813783          	ld	a5,40(sp)
   11f9c:	00878713          	addi	a4,a5,8
   11fa0:	0007d783          	lhu	a5,0(a5)
/home/nancy/riscv-tools/riscv-gnu-toolchain/build/src/newlib-gcc/newlib/libc/stdio/vfprintf.c:1563
			/*
			 * ``... diouXx conversions ... if a precision is
			 * specified, the 0 flag will be ignored.''
			 *	-- ANSI X3J11
			 */
number:			if ((dprec = prec) >= 0)
   11fa4:	dc045ee3          	bgez	s0,11d80 <_vfprintf_r+0x3a0>
/home/nancy/riscv-tools/riscv-gnu-toolchain/build/src/newlib-gcc/newlib/libc/stdio/vfprintf.c:1572
			 * ``The result of converting a zero value with an
			 * explicit precision of zero is no characters.''
			 *	-- ANSI X3J11
			 */
			cp = buf + BUF;
			if (_uquad != 0 || prec != 0) {
   11fa8:	02e13423          	sd	a4,40(sp)
   11fac:	00000613          	li	a2,0
   11fb0:	60078a63          	beqz	a5,125c4 <_vfprintf_r+0xbe4>
   11fb4:	00000613          	li	a2,0
   11fb8:	de5ff06f          	j	11d9c <_vfprintf_r+0x3bc>
   11fbc:	00060463          	beqz	a2,11fc4 <_vfprintf_r+0x5e4>
   11fc0:	6880106f          	j	13648 <_vfprintf_r+0x1c68>
/home/nancy/riscv-tools/riscv-gnu-toolchain/build/src/newlib-gcc/newlib/libc/stdio/vfprintf.c:1533
			} else
				size = strlen (cp);

			break;
		case 'U': /* extension */
			flags |= LONGINT;
   11fc4:	010c6c13          	ori	s8,s8,16
/home/nancy/riscv-tools/riscv-gnu-toolchain/build/src/newlib-gcc/newlib/libc/stdio/vfprintf.c:1536
			/*FALLTHROUGH*/
		case 'u':
			_uquad = UARG ();
   11fc8:	010c7793          	andi	a5,s8,16
   11fcc:	f20790e3          	bnez	a5,11eec <_vfprintf_r+0x50c>
/home/nancy/riscv-tools/riscv-gnu-toolchain/build/src/newlib-gcc/newlib/libc/stdio/vfprintf.c:1536 (discriminator 2)
   11fd0:	040c7793          	andi	a5,s8,64
/home/nancy/riscv-tools/riscv-gnu-toolchain/build/src/newlib-gcc/newlib/libc/stdio/vfprintf.c:1557

#ifdef _WANT_IO_C99_FORMATS
			flags &= ~GROUPING;
#endif
			/* unsigned conversions */
nosign:			sign = '\0';
   11fd4:	080107a3          	sb	zero,143(sp)
/home/nancy/riscv-tools/riscv-gnu-toolchain/build/src/newlib-gcc/newlib/libc/stdio/vfprintf.c:1536
			break;
		case 'U': /* extension */
			flags |= LONGINT;
			/*FALLTHROUGH*/
		case 'u':
			_uquad = UARG ();
   11fd8:	500780e3          	beqz	a5,12cd8 <_vfprintf_r+0x12f8>
/home/nancy/riscv-tools/riscv-gnu-toolchain/build/src/newlib-gcc/newlib/libc/stdio/vfprintf.c:1536 (discriminator 4)
   11fdc:	02813783          	ld	a5,40(sp)
   11fe0:	00878713          	addi	a4,a5,8
   11fe4:	0007d783          	lhu	a5,0(a5)
/home/nancy/riscv-tools/riscv-gnu-toolchain/build/src/newlib-gcc/newlib/libc/stdio/vfprintf.c:1563
			/*
			 * ``... diouXx conversions ... if a precision is
			 * specified, the 0 flag will be ignored.''
			 *	-- ANSI X3J11
			 */
number:			if ((dprec = prec) >= 0)
   11fe8:	f0045ce3          	bgez	s0,11f00 <_vfprintf_r+0x520>
/home/nancy/riscv-tools/riscv-gnu-toolchain/build/src/newlib-gcc/newlib/libc/stdio/vfprintf.c:1536
			break;
		case 'U': /* extension */
			flags |= LONGINT;
			/*FALLTHROUGH*/
		case 'u':
			_uquad = UARG ();
   11fec:	02e13423          	sd	a4,40(sp)
/home/nancy/riscv-tools/riscv-gnu-toolchain/build/src/newlib-gcc/newlib/libc/stdio/vfprintf.c:1563
			/*
			 * ``... diouXx conversions ... if a precision is
			 * specified, the 0 flag will be ignored.''
			 *	-- ANSI X3J11
			 */
number:			if ((dprec = prec) >= 0)
   11ff0:	00000613          	li	a2,0
/home/nancy/riscv-tools/riscv-gnu-toolchain/build/src/newlib-gcc/newlib/libc/stdio/vfprintf.c:1572
			 * ``The result of converting a zero value with an
			 * explicit precision of zero is no characters.''
			 *	-- ANSI X3J11
			 */
			cp = buf + BUF;
			if (_uquad != 0 || prec != 0) {
   11ff4:	f0079ee3          	bnez	a5,11f10 <_vfprintf_r+0x530>
   11ff8:	00100793          	li	a5,1
   11ffc:	5c80006f          	j	125c4 <_vfprintf_r+0xbe4>
   12000:	00060463          	beqz	a2,12008 <_vfprintf_r+0x628>
   12004:	63c0106f          	j	13640 <_vfprintf_r+0x1c60>
/home/nancy/riscv-tools/riscv-gnu-toolchain/build/src/newlib-gcc/newlib/libc/stdio/vfprintf.c:1540
		case 'u':
			_uquad = UARG ();
			base = DEC;
			goto nosign;
		case 'X':
			xdigs = "0123456789ABCDEF";
   12008:	000227b7          	lui	a5,0x22
   1200c:	bb878793          	addi	a5,a5,-1096 # 21bb8 <zeroes.4123+0x6c8>
   12010:	02f13c23          	sd	a5,56(sp)
/home/nancy/riscv-tools/riscv-gnu-toolchain/build/src/newlib-gcc/newlib/libc/stdio/vfprintf.c:1544
			goto hex;
		case 'x':
			xdigs = "0123456789abcdef";
hex:			_uquad = UARG ();
   12014:	010c7793          	andi	a5,s8,16
   12018:	4c078263          	beqz	a5,124dc <_vfprintf_r+0xafc>
/home/nancy/riscv-tools/riscv-gnu-toolchain/build/src/newlib-gcc/newlib/libc/stdio/vfprintf.c:1544 (discriminator 1)
   1201c:	02813703          	ld	a4,40(sp)
   12020:	00073783          	ld	a5,0(a4)
   12024:	00870713          	addi	a4,a4,8
   12028:	02e13423          	sd	a4,40(sp)
/home/nancy/riscv-tools/riscv-gnu-toolchain/build/src/newlib-gcc/newlib/libc/stdio/vfprintf.c:1547 (discriminator 8)
			base = HEX;
			/* leading 0x/X only if non-zero */
			if (flags & ALT && _uquad != 0) {
   1202c:	001c7713          	andi	a4,s8,1
   12030:	120706e3          	beqz	a4,1295c <_vfprintf_r+0xf7c>
/home/nancy/riscv-tools/riscv-gnu-toolchain/build/src/newlib-gcc/newlib/libc/stdio/vfprintf.c:1547 (discriminator 1)
   12034:	6a078ee3          	beqz	a5,12ef0 <_vfprintf_r+0x1510>
/home/nancy/riscv-tools/riscv-gnu-toolchain/build/src/newlib-gcc/newlib/libc/stdio/vfprintf.c:1548
				ox[0] = '0';
   12038:	03000713          	li	a4,48
   1203c:	08e10823          	sb	a4,144(sp)
/home/nancy/riscv-tools/riscv-gnu-toolchain/build/src/newlib-gcc/newlib/libc/stdio/vfprintf.c:1549
				ox[1] = ch;
   12040:	09a108a3          	sb	s10,145(sp)
/home/nancy/riscv-tools/riscv-gnu-toolchain/build/src/newlib-gcc/newlib/libc/stdio/vfprintf.c:1557

#ifdef _WANT_IO_C99_FORMATS
			flags &= ~GROUPING;
#endif
			/* unsigned conversions */
nosign:			sign = '\0';
   12044:	080107a3          	sb	zero,143(sp)
/home/nancy/riscv-tools/riscv-gnu-toolchain/build/src/newlib-gcc/newlib/libc/stdio/vfprintf.c:1550
			base = HEX;
			/* leading 0x/X only if non-zero */
			if (flags & ALT && _uquad != 0) {
				ox[0] = '0';
				ox[1] = ch;
				flags |= HEXPREFIX;
   12048:	002c6713          	ori	a4,s8,2
/home/nancy/riscv-tools/riscv-gnu-toolchain/build/src/newlib-gcc/newlib/libc/stdio/vfprintf.c:1563
			/*
			 * ``... diouXx conversions ... if a precision is
			 * specified, the 0 flag will be ignored.''
			 *	-- ANSI X3J11
			 */
number:			if ((dprec = prec) >= 0)
   1204c:	00045463          	bgez	s0,12054 <_vfprintf_r+0x674>
   12050:	2140106f          	j	13264 <_vfprintf_r+0x1884>
   12054:	f7fc7c13          	andi	s8,s8,-129
/home/nancy/riscv-tools/riscv-gnu-toolchain/build/src/newlib-gcc/newlib/libc/stdio/vfprintf.c:1564
				flags &= ~ZEROPAD;
   12058:	002c6c13          	ori	s8,s8,2
   1205c:	00000613          	li	a2,0
   12060:	be9ff06f          	j	11c48 <_vfprintf_r+0x268>
/home/nancy/riscv-tools/riscv-gnu-toolchain/build/src/newlib-gcc/newlib/libc/stdio/vfprintf.c:1189
				}
			}
			else
#endif /* _MB_CAPABLE */
			{
				*cp = GET_ARG (N, ap, int);
   12064:	02813703          	ld	a4,40(sp)
/home/nancy/riscv-tools/riscv-gnu-toolchain/build/src/newlib-gcc/newlib/libc/stdio/vfprintf.c:1193
				size = 1;
			}
			sign = '\0';
			break;
   12068:	00100693          	li	a3,1
   1206c:	00d12423          	sw	a3,8(sp)
/home/nancy/riscv-tools/riscv-gnu-toolchain/build/src/newlib-gcc/newlib/libc/stdio/vfprintf.c:1189
				}
			}
			else
#endif /* _MB_CAPABLE */
			{
				*cp = GET_ARG (N, ap, int);
   12070:	00072783          	lw	a5,0(a4)
/home/nancy/riscv-tools/riscv-gnu-toolchain/build/src/newlib-gcc/newlib/libc/stdio/vfprintf.c:1192
				size = 1;
			}
			sign = '\0';
   12074:	080107a3          	sb	zero,143(sp)
/home/nancy/riscv-tools/riscv-gnu-toolchain/build/src/newlib-gcc/newlib/libc/stdio/vfprintf.c:1193
			break;
   12078:	00000613          	li	a2,0
/home/nancy/riscv-tools/riscv-gnu-toolchain/build/src/newlib-gcc/newlib/libc/stdio/vfprintf.c:1189
				}
			}
			else
#endif /* _MB_CAPABLE */
			{
				*cp = GET_ARG (N, ap, int);
   1207c:	0cf10423          	sb	a5,200(sp)
   12080:	00870793          	addi	a5,a4,8
   12084:	02f13423          	sd	a5,40(sp)
/home/nancy/riscv-tools/riscv-gnu-toolchain/build/src/newlib-gcc/newlib/libc/stdio/vfprintf.c:1190
				size = 1;
   12088:	02d12023          	sw	a3,32(sp)
/home/nancy/riscv-tools/riscv-gnu-toolchain/build/src/newlib-gcc/newlib/libc/stdio/vfprintf.c:943
#endif
		fmt_anchor = fmt;
		fmt++;		/* skip over '%' */

		flags = 0;
		dprec = 0;
   1208c:	00000413          	li	s0,0
/home/nancy/riscv-tools/riscv-gnu-toolchain/build/src/newlib-gcc/newlib/libc/stdio/vfprintf.c:948
		width = 0;
		prec = -1;
		sign = '\0';
#ifdef FLOATING_POINT
		lead = 0;
   12090:	04012623          	sw	zero,76(sp)
/home/nancy/riscv-tools/riscv-gnu-toolchain/build/src/newlib-gcc/newlib/libc/stdio/vfprintf.c:1173
		    flags |= QUADINT;
		  goto rflag;
		case 'C':
#endif /* _WANT_IO_C99_FORMATS */
		case 'c':
			cp = buf;
   12094:	0c810913          	addi	s2,sp,200
/home/nancy/riscv-tools/riscv-gnu-toolchain/build/src/newlib-gcc/newlib/libc/stdio/vfprintf.c:1681
		 * size excludes decimal prec; realsz includes it.
		 */
		realsz = dprec > size ? dprec : size;
		if (sign)
			realsz++;
		if (flags & HEXPREFIX)
   12098:	002c7793          	andi	a5,s8,2
   1209c:	04f12023          	sw	a5,64(sp)
   120a0:	00078863          	beqz	a5,120b0 <_vfprintf_r+0x6d0>
/home/nancy/riscv-tools/riscv-gnu-toolchain/build/src/newlib-gcc/newlib/libc/stdio/vfprintf.c:1682
			realsz+= 2;
   120a4:	00812783          	lw	a5,8(sp)
   120a8:	0027879b          	addiw	a5,a5,2
   120ac:	00f12423          	sw	a5,8(sp)
/home/nancy/riscv-tools/riscv-gnu-toolchain/build/src/newlib-gcc/newlib/libc/stdio/vfprintf.c:1685

		/* right-adjusting blank padding */
		if ((flags & (LADJUST|ZEROPAD)) == 0)
   120b0:	084c7793          	andi	a5,s8,132
   120b4:	04f12423          	sw	a5,72(sp)
   120b8:	52079263          	bnez	a5,125dc <_vfprintf_r+0xbfc>
/home/nancy/riscv-tools/riscv-gnu-toolchain/build/src/newlib-gcc/newlib/libc/stdio/vfprintf.c:1686
			PAD (width - realsz, blanks);
   120bc:	01812783          	lw	a5,24(sp)
   120c0:	00812703          	lw	a4,8(sp)
   120c4:	40e78cbb          	subw	s9,a5,a4
   120c8:	51905a63          	blez	s9,125dc <_vfprintf_r+0xbfc>
/home/nancy/riscv-tools/riscv-gnu-toolchain/build/src/newlib-gcc/newlib/libc/stdio/vfprintf.c:1686 (discriminator 5)
   120cc:	01000793          	li	a5,16
   120d0:	0197c463          	blt	a5,s9,120d8 <_vfprintf_r+0x6f8>
   120d4:	1080106f          	j	131dc <_vfprintf_r+0x17fc>
/home/nancy/riscv-tools/riscv-gnu-toolchain/build/src/newlib-gcc/newlib/libc/stdio/vfprintf.c:1686
   120d8:	01000813          	li	a6,16
   120dc:	0c013783          	ld	a5,192(sp)
   120e0:	0b812703          	lw	a4,184(sp)
   120e4:	05513823          	sd	s5,80(sp)
   120e8:	00700313          	li	t1,7
   120ec:	00080d93          	mv	s11,a6
   120f0:	00c0006f          	j	120fc <_vfprintf_r+0x71c>
/home/nancy/riscv-tools/riscv-gnu-toolchain/build/src/newlib-gcc/newlib/libc/stdio/vfprintf.c:1686 (discriminator 4)
   120f4:	ff0c8c9b          	addiw	s9,s9,-16
   120f8:	059dde63          	ble	s9,s11,12154 <_vfprintf_r+0x774>
/home/nancy/riscv-tools/riscv-gnu-toolchain/build/src/newlib-gcc/newlib/libc/stdio/vfprintf.c:1686 (discriminator 6)
   120fc:	01078793          	addi	a5,a5,16
   12100:	0017071b          	addiw	a4,a4,1
   12104:	0158b023          	sd	s5,0(a7)
   12108:	0108b423          	sd	a6,8(a7)
   1210c:	0cf13023          	sd	a5,192(sp)
   12110:	0ae12c23          	sw	a4,184(sp)
   12114:	01088893          	addi	a7,a7,16
   12118:	fce35ee3          	ble	a4,t1,120f4 <_vfprintf_r+0x714>
/home/nancy/riscv-tools/riscv-gnu-toolchain/build/src/newlib-gcc/newlib/libc/stdio/vfprintf.c:1686 (discriminator 1)
   1211c:	0b010613          	addi	a2,sp,176
   12120:	000a0593          	mv	a1,s4
   12124:	000b8513          	mv	a0,s7
   12128:	00613823          	sd	t1,16(sp)
   1212c:	01013023          	sd	a6,0(sp)
   12130:	5810a0ef          	jal	1ceb0 <__sprint_r>
   12134:	ba051ee3          	bnez	a0,11cf0 <_vfprintf_r+0x310>
/home/nancy/riscv-tools/riscv-gnu-toolchain/build/src/newlib-gcc/newlib/libc/stdio/vfprintf.c:1686
   12138:	ff0c8c9b          	addiw	s9,s9,-16
   1213c:	0c013783          	ld	a5,192(sp)
   12140:	0b812703          	lw	a4,184(sp)
   12144:	000b0893          	mv	a7,s6
   12148:	01013303          	ld	t1,16(sp)
   1214c:	00013803          	ld	a6,0(sp)
   12150:	fb9dc6e3          	blt	s11,s9,120fc <_vfprintf_r+0x71c>
/home/nancy/riscv-tools/riscv-gnu-toolchain/build/src/newlib-gcc/newlib/libc/stdio/vfprintf.c:1686 (discriminator 7)
   12154:	05013603          	ld	a2,80(sp)
   12158:	00fc87b3          	add	a5,s9,a5
   1215c:	0017071b          	addiw	a4,a4,1
   12160:	00c8b023          	sd	a2,0(a7)
   12164:	0198b423          	sd	s9,8(a7)
   12168:	0cf13023          	sd	a5,192(sp)
   1216c:	0ae12c23          	sw	a4,184(sp)
   12170:	00700693          	li	a3,7
   12174:	0ce6cae3          	blt	a3,a4,12a48 <_vfprintf_r+0x1068>
   12178:	08f14603          	lbu	a2,143(sp)
/home/nancy/riscv-tools/riscv-gnu-toolchain/build/src/newlib-gcc/newlib/libc/stdio/vfprintf.c:1686
   1217c:	01088893          	addi	a7,a7,16
/home/nancy/riscv-tools/riscv-gnu-toolchain/build/src/newlib-gcc/newlib/libc/stdio/vfprintf.c:1689

		/* prefix */
		if (sign)
   12180:	02060a63          	beqz	a2,121b4 <_vfprintf_r+0x7d4>
/home/nancy/riscv-tools/riscv-gnu-toolchain/build/src/newlib-gcc/newlib/libc/stdio/vfprintf.c:1690
			PRINT (&sign, 1);
   12184:	0b812703          	lw	a4,184(sp)
   12188:	08f10693          	addi	a3,sp,143
   1218c:	00d8b023          	sd	a3,0(a7)
   12190:	00178793          	addi	a5,a5,1
   12194:	00100693          	li	a3,1
   12198:	0017071b          	addiw	a4,a4,1
   1219c:	00d8b423          	sd	a3,8(a7)
   121a0:	0cf13023          	sd	a5,192(sp)
   121a4:	0ae12c23          	sw	a4,184(sp)
   121a8:	00700693          	li	a3,7
   121ac:	01088893          	addi	a7,a7,16
   121b0:	76e6c663          	blt	a3,a4,1291c <_vfprintf_r+0xf3c>
/home/nancy/riscv-tools/riscv-gnu-toolchain/build/src/newlib-gcc/newlib/libc/stdio/vfprintf.c:1691
		if (flags & HEXPREFIX)
   121b4:	04012703          	lw	a4,64(sp)
   121b8:	02070a63          	beqz	a4,121ec <_vfprintf_r+0x80c>
/home/nancy/riscv-tools/riscv-gnu-toolchain/build/src/newlib-gcc/newlib/libc/stdio/vfprintf.c:1692
			PRINT (ox, 2);
   121bc:	0b812703          	lw	a4,184(sp)
   121c0:	09010693          	addi	a3,sp,144
   121c4:	00d8b023          	sd	a3,0(a7)
   121c8:	00278793          	addi	a5,a5,2
   121cc:	00200693          	li	a3,2
   121d0:	0017071b          	addiw	a4,a4,1
   121d4:	00d8b423          	sd	a3,8(a7)
   121d8:	0cf13023          	sd	a5,192(sp)
   121dc:	0ae12c23          	sw	a4,184(sp)
   121e0:	00700693          	li	a3,7
   121e4:	01088893          	addi	a7,a7,16
   121e8:	74e6ca63          	blt	a3,a4,1293c <_vfprintf_r+0xf5c>
/home/nancy/riscv-tools/riscv-gnu-toolchain/build/src/newlib-gcc/newlib/libc/stdio/vfprintf.c:1695

		/* right-adjusting zero padding */
		if ((flags & (LADJUST|ZEROPAD)) == ZEROPAD)
   121ec:	04812683          	lw	a3,72(sp)
   121f0:	08000713          	li	a4,128
   121f4:	5ee68663          	beq	a3,a4,127e0 <_vfprintf_r+0xe00>
/home/nancy/riscv-tools/riscv-gnu-toolchain/build/src/newlib-gcc/newlib/libc/stdio/vfprintf.c:1699
			PAD (width - realsz, zeroes);

		/* leading zeroes from decimal precision */
		PAD (dprec - size, zeroes);
   121f8:	02012703          	lw	a4,32(sp)
   121fc:	40e4043b          	subw	s0,s0,a4
   12200:	0c805063          	blez	s0,122c0 <_vfprintf_r+0x8e0>
/home/nancy/riscv-tools/riscv-gnu-toolchain/build/src/newlib-gcc/newlib/libc/stdio/vfprintf.c:1699 (discriminator 5)
   12204:	01000713          	li	a4,16
   12208:	4e875ce3          	ble	s0,a4,12f00 <_vfprintf_r+0x1520>
/home/nancy/riscv-tools/riscv-gnu-toolchain/build/src/newlib-gcc/newlib/libc/stdio/vfprintf.c:1699
   1220c:	01000c93          	li	s9,16
   12210:	0b812703          	lw	a4,184(sp)
   12214:	00913823          	sd	s1,16(sp)
   12218:	00700813          	li	a6,7
   1221c:	000c8d93          	mv	s11,s9
   12220:	00c0006f          	j	1222c <_vfprintf_r+0x84c>
/home/nancy/riscv-tools/riscv-gnu-toolchain/build/src/newlib-gcc/newlib/libc/stdio/vfprintf.c:1699 (discriminator 4)
   12224:	ff04041b          	addiw	s0,s0,-16
   12228:	048dda63          	ble	s0,s11,1227c <_vfprintf_r+0x89c>
/home/nancy/riscv-tools/riscv-gnu-toolchain/build/src/newlib-gcc/newlib/libc/stdio/vfprintf.c:1699 (discriminator 6)
   1222c:	01078793          	addi	a5,a5,16
   12230:	0017071b          	addiw	a4,a4,1
   12234:	0098b023          	sd	s1,0(a7)
   12238:	0198b423          	sd	s9,8(a7)
   1223c:	0cf13023          	sd	a5,192(sp)
   12240:	0ae12c23          	sw	a4,184(sp)
   12244:	01088893          	addi	a7,a7,16
   12248:	fce85ee3          	ble	a4,a6,12224 <_vfprintf_r+0x844>
/home/nancy/riscv-tools/riscv-gnu-toolchain/build/src/newlib-gcc/newlib/libc/stdio/vfprintf.c:1699 (discriminator 1)
   1224c:	0b010613          	addi	a2,sp,176
   12250:	000a0593          	mv	a1,s4
   12254:	000b8513          	mv	a0,s7
   12258:	01013023          	sd	a6,0(sp)
   1225c:	4550a0ef          	jal	1ceb0 <__sprint_r>
   12260:	a80518e3          	bnez	a0,11cf0 <_vfprintf_r+0x310>
/home/nancy/riscv-tools/riscv-gnu-toolchain/build/src/newlib-gcc/newlib/libc/stdio/vfprintf.c:1699
   12264:	ff04041b          	addiw	s0,s0,-16
   12268:	0c013783          	ld	a5,192(sp)
   1226c:	0b812703          	lw	a4,184(sp)
   12270:	000b0893          	mv	a7,s6
   12274:	00013803          	ld	a6,0(sp)
   12278:	fa8dcae3          	blt	s11,s0,1222c <_vfprintf_r+0x84c>
/home/nancy/riscv-tools/riscv-gnu-toolchain/build/src/newlib-gcc/newlib/libc/stdio/vfprintf.c:1699 (discriminator 7)
   1227c:	01013683          	ld	a3,16(sp)
   12280:	008787b3          	add	a5,a5,s0
   12284:	0017071b          	addiw	a4,a4,1
   12288:	00d8b023          	sd	a3,0(a7)
   1228c:	0088b423          	sd	s0,8(a7)
   12290:	0cf13023          	sd	a5,192(sp)
   12294:	0ae12c23          	sw	a4,184(sp)
   12298:	00700693          	li	a3,7
   1229c:	01088893          	addi	a7,a7,16
   122a0:	02e6d063          	ble	a4,a3,122c0 <_vfprintf_r+0x8e0>
/home/nancy/riscv-tools/riscv-gnu-toolchain/build/src/newlib-gcc/newlib/libc/stdio/vfprintf.c:1699 (discriminator 8)
   122a4:	0b010613          	addi	a2,sp,176
   122a8:	000a0593          	mv	a1,s4
   122ac:	000b8513          	mv	a0,s7
   122b0:	4010a0ef          	jal	1ceb0 <__sprint_r>
   122b4:	a2051ee3          	bnez	a0,11cf0 <_vfprintf_r+0x310>
   122b8:	0c013783          	ld	a5,192(sp)
/home/nancy/riscv-tools/riscv-gnu-toolchain/build/src/newlib-gcc/newlib/libc/stdio/vfprintf.c:1699
   122bc:	000b0893          	mv	a7,s6
/home/nancy/riscv-tools/riscv-gnu-toolchain/build/src/newlib-gcc/newlib/libc/stdio/vfprintf.c:1703

		/* the string or number proper */
#ifdef FLOATING_POINT
		if ((flags & FPT) == 0) {
   122c0:	100c7713          	andi	a4,s8,256
   122c4:	40071663          	bnez	a4,126d0 <_vfprintf_r+0xcf0>
/home/nancy/riscv-tools/riscv-gnu-toolchain/build/src/newlib-gcc/newlib/libc/stdio/vfprintf.c:1704
			PRINT (cp, size);
   122c8:	02012703          	lw	a4,32(sp)
   122cc:	0b812683          	lw	a3,184(sp)
   122d0:	0128b023          	sd	s2,0(a7)
   122d4:	00e787b3          	add	a5,a5,a4
   122d8:	0016869b          	addiw	a3,a3,1
   122dc:	00e8b423          	sd	a4,8(a7)
   122e0:	0cf13023          	sd	a5,192(sp)
   122e4:	0ad12c23          	sw	a3,184(sp)
   122e8:	00700713          	li	a4,7
   122ec:	3cd74263          	blt	a4,a3,126b0 <_vfprintf_r+0xcd0>
/home/nancy/riscv-tools/riscv-gnu-toolchain/build/src/newlib-gcc/newlib/libc/stdio/vfprintf.c:1761
					} else	/* 0.[0..] */
						/* __dtoa irregularity */
						PAD (ndig - 1, zeroes);
				} else	/* XeYYY */
					PRINT (cp, 1);
				PRINT (expstr, expsize);
   122f0:	01088893          	addi	a7,a7,16
/home/nancy/riscv-tools/riscv-gnu-toolchain/build/src/newlib-gcc/newlib/libc/stdio/vfprintf.c:1768
		}
#else /* !FLOATING_POINT */
		PRINT (cp, size);
#endif
		/* left-adjusting padding (always blank) */
		if (flags & LADJUST)
   122f4:	004c7c13          	andi	s8,s8,4
   122f8:	0c0c0063          	beqz	s8,123b8 <_vfprintf_r+0x9d8>
/home/nancy/riscv-tools/riscv-gnu-toolchain/build/src/newlib-gcc/newlib/libc/stdio/vfprintf.c:1769
			PAD (width - realsz, blanks);
   122fc:	01812703          	lw	a4,24(sp)
   12300:	00812683          	lw	a3,8(sp)
   12304:	40d7043b          	subw	s0,a4,a3
   12308:	0a805863          	blez	s0,123b8 <_vfprintf_r+0x9d8>
/home/nancy/riscv-tools/riscv-gnu-toolchain/build/src/newlib-gcc/newlib/libc/stdio/vfprintf.c:1769 (discriminator 5)
   1230c:	01000713          	li	a4,16
   12310:	748754e3          	ble	s0,a4,13258 <_vfprintf_r+0x1878>
/home/nancy/riscv-tools/riscv-gnu-toolchain/build/src/newlib-gcc/newlib/libc/stdio/vfprintf.c:1769
   12314:	01000913          	li	s2,16
   12318:	0b812703          	lw	a4,184(sp)
   1231c:	05513823          	sd	s5,80(sp)
   12320:	00700c13          	li	s8,7
   12324:	00090d13          	mv	s10,s2
   12328:	00c0006f          	j	12334 <_vfprintf_r+0x954>
/home/nancy/riscv-tools/riscv-gnu-toolchain/build/src/newlib-gcc/newlib/libc/stdio/vfprintf.c:1769 (discriminator 4)
   1232c:	ff04041b          	addiw	s0,s0,-16
   12330:	048d5663          	ble	s0,s10,1237c <_vfprintf_r+0x99c>
/home/nancy/riscv-tools/riscv-gnu-toolchain/build/src/newlib-gcc/newlib/libc/stdio/vfprintf.c:1769 (discriminator 6)
   12334:	01078793          	addi	a5,a5,16
   12338:	0017071b          	addiw	a4,a4,1
   1233c:	0158b023          	sd	s5,0(a7)
   12340:	0128b423          	sd	s2,8(a7)
   12344:	0cf13023          	sd	a5,192(sp)
   12348:	0ae12c23          	sw	a4,184(sp)
   1234c:	01088893          	addi	a7,a7,16
   12350:	fcec5ee3          	ble	a4,s8,1232c <_vfprintf_r+0x94c>
/home/nancy/riscv-tools/riscv-gnu-toolchain/build/src/newlib-gcc/newlib/libc/stdio/vfprintf.c:1769 (discriminator 1)
   12354:	0b010613          	addi	a2,sp,176
   12358:	000a0593          	mv	a1,s4
